	.file	"kernel_final.c"
	.text
	.p2align 4,,15
	.type	switchFpuOwner, @function
switchFpuOwner:
.LFB346:
	.cfi_startproc
	pushl	%ebx
	.cfi_def_cfa_offset 8
	.cfi_offset 3, -8
	movl	%eax, %ebx
	subl	$24, %esp
	.cfi_def_cfa_offset 32
#APP
# 45 "./include/arch/ia32/arch/machine/fpu.h" 1
	clts
# 0 "" 2
#NO_APP
	movl	ia32KSfpuOwner, %eax
	testl	%eax, %eax
	je	.L2
	addl	$80, %eax
	movl	%eax, (%esp)
	call	saveFpuState
.L2:
	testl	%ebx, %ebx
	je	.L3
	leal	80(%ebx), %eax
	movl	%eax, (%esp)
	call	loadFpuState
	movl	%ebx, ia32KSfpuOwner
	addl	$24, %esp
	.cfi_remember_state
	.cfi_def_cfa_offset 8
	popl	%ebx
	.cfi_restore 3
	.cfi_def_cfa_offset 4
	ret
	.p2align 4,,7
	.p2align 3
.L3:
	.cfi_restore_state
#APP
# 41 "./include/arch/ia32/arch/machine/cpu_registers.h" 1
	movl %cr0, %eax
# 0 "" 2
#NO_APP
	orl	$8, %eax
#APP
# 47 "./include/arch/ia32/arch/machine/cpu_registers.h" 1
	movl %eax, %cr0
# 0 "" 2
#NO_APP
	movl	%ebx, ia32KSfpuOwner
	addl	$24, %esp
	.cfi_def_cfa_offset 8
	popl	%ebx
	.cfi_restore 3
	.cfi_def_cfa_offset 4
	ret
	.cfi_endproc
.LFE346:
	.size	switchFpuOwner, .-switchFpuOwner
	.section	.boot.text,"ax",@progbits
	.p2align 4,,15
	.type	pci_read_reg32, @function
pci_read_reg32:
.LFB552:
	.cfi_startproc
	pushl	%ebx
	.cfi_def_cfa_offset 8
	.cfi_offset 3, -8
	subl	$24, %esp
	.cfi_def_cfa_offset 32
	movl	32(%esp), %ebx
	sall	$8, %ecx
	sall	$11, %edx
	orl	$-2147483648, %ecx
	orl	%edx, %ecx
	sall	$16, %eax
	orl	%eax, %ecx
	andl	$252, %ebx
	orl	%ebx, %ecx
	movl	%ecx, 4(%esp)
	movl	$3320, (%esp)
	call	out32
	movl	$3324, 32(%esp)
	addl	$24, %esp
	.cfi_def_cfa_offset 8
	popl	%ebx
	.cfi_restore 3
	.cfi_def_cfa_offset 4
	jmp	in32
	.cfi_endproc
.LFE552:
	.size	pci_read_reg32, .-pci_read_reg32
	.text
	.p2align 4,,15
	.type	lookupPTSlot, @function
lookupPTSlot:
.LFB325:
	.cfi_startproc
	pushl	%ebx
	.cfi_def_cfa_offset 8
	.cfi_offset 3, -8
	movl	%ecx, %ebx
	shrl	$22, %ebx
	movl	(%edx,%ebx,4), %edx
	testb	$-128, %dl
	jne	.L13
	testb	$1, %dl
	je	.L13
	shrl	$10, %ecx
	andl	$-4096, %edx
	andl	$4092, %ecx
	leal	-536870912(%edx,%ecx), %edx
	movl	$0, (%eax)
	movl	%edx, 4(%eax)
	popl	%ebx
	.cfi_remember_state
	.cfi_restore 3
	.cfi_def_cfa_offset 4
	ret
	.p2align 4,,7
	.p2align 3
.L13:
	.cfi_restore_state
	movl	$89, current_lookup_fault
	movl	$0, current_lookup_fault+4
	movl	$2, (%eax)
	movl	$0, 4(%eax)
	popl	%ebx
	.cfi_restore 3
	.cfi_def_cfa_offset 4
	ret
	.cfi_endproc
.LFE325:
	.size	lookupPTSlot, .-lookupPTSlot
	.p2align 4,,15
	.type	findPDForASID, @function
findPDForASID:
.LFB331:
	.cfi_startproc
	movl	%edx, %ecx
	shrl	$10, %ecx
	movl	ia32KSASIDTable(,%ecx,4), %ecx
	testl	%ecx, %ecx
	je	.L20
	andl	$1023, %edx
	movl	(%ecx,%edx,4), %edx
	testl	%edx, %edx
	je	.L20
	movl	$0, (%eax)
	movl	%edx, 4(%eax)
	ret
	.p2align 4,,7
	.p2align 3
.L20:
	movl	$0, current_lookup_fault
	movl	$0, current_lookup_fault+4
	movl	$2, (%eax)
	movl	$0, 4(%eax)
	ret
	.cfi_endproc
.LFE331:
	.size	findPDForASID, .-findPDForASID
	.p2align 4,,15
	.type	parse_opt.constprop.131, @function
parse_opt.constprop.131:
.LFB719:
	.cfi_startproc
	pushl	%edi
	.cfi_def_cfa_offset 8
	.cfi_offset 7, -8
	movl	%eax, %ecx
	pushl	%esi
	.cfi_def_cfa_offset 12
	.cfi_offset 6, -12
	movl	%edx, %esi
	pushl	%ebx
	.cfi_def_cfa_offset 16
	.cfi_offset 3, -16
	movzbl	(%eax), %ebx
	movl	$-1, %eax
	.p2align 4,,7
	.p2align 3
.L25:
	cmpb	$32, %bl
	jg	.L53
	testb	%bl, %bl
	jne	.L30
	popl	%ebx
	.cfi_remember_state
	.cfi_restore 3
	.cfi_def_cfa_offset 12
	popl	%esi
	.cfi_restore 6
	.cfi_def_cfa_offset 8
	popl	%edi
	.cfi_restore 7
	.cfi_def_cfa_offset 4
	ret
	.p2align 4,,7
	.p2align 3
.L53:
	.cfi_restore_state
	movzbl	(%esi), %edx
	testb	%dl, %dl
	.p2align 4,,2
	je	.L27
	cmpb	$61, %bl
	je	.L41
	cmpb	%bl, %dl
	jne	.L41
	movl	%esi, %ebx
	.p2align 4,,4
	jmp	.L33
	.p2align 4,,7
	.p2align 3
.L32:
	movzbl	1(%ecx), %ecx
	cmpb	$61, %cl
	je	.L42
	cmpb	$32, %cl
	jle	.L44
	cmpb	%cl, %dl
	jne	.L44
	movl	%edi, %ecx
.L33:
	addl	$1, %ebx
	movzbl	(%ebx), %edx
	leal	1(%ecx), %edi
	testb	%dl, %dl
	jne	.L32
	movzbl	1(%ecx), %ebx
	movl	%edi, %ecx
.L27:
	cmpb	$61, %bl
	je	.L54
	.p2align 4,,7
	.p2align 3
.L39:
	cmpb	$32, %bl
	jle	.L25
	.p2align 4,,7
	.p2align 3
.L38:
	addl	$1, %ecx
	movzbl	(%ecx), %ebx
	cmpb	$32, %bl
	jg	.L38
	jmp	.L25
	.p2align 4,,7
	.p2align 3
.L30:
	movzbl	1(%ecx), %ebx
	addl	$1, %ecx
	jmp	.L25
	.p2align 4,,7
	.p2align 3
.L44:
	movl	%ecx, %ebx
	movl	%edi, %ecx
	jmp	.L39
	.p2align 4,,7
	.p2align 3
.L42:
	movl	$61, %ebx
	movl	%edi, %ecx
	jmp	.L39
.L54:
	leal	1(%ecx), %edx
	movzbl	1(%ecx), %ecx
	cmpb	$32, %cl
	jle	.L45
	xorl	%eax, %eax
	jmp	.L36
	.p2align 4,,7
	.p2align 3
.L35:
	cmpl	$999, %eax
	je	.L55
.L36:
	addl	$1, %edx
	addl	$1, %eax
	movb	%cl, cmdline_val-1(%eax)
	movzbl	(%edx), %ecx
	cmpb	$32, %cl
	jg	.L35
	leal	cmdline_val(%eax), %ecx
.L34:
	movb	$0, (%ecx)
	movl	%edx, %ecx
	movzbl	(%edx), %ebx
	jmp	.L39
.L55:
	movl	$cmdline_val+999, %ecx
	jmp	.L34
.L41:
	movl	%ecx, %edi
	movl	%edi, %ecx
	jmp	.L39
.L45:
	movl	$cmdline_val, %ecx
	xorl	%eax, %eax
	jmp	.L34
	.cfi_endproc
.LFE719:
	.size	parse_opt.constprop.131, .-parse_opt.constprop.131
	.section	.text.unlikely,"ax",@progbits
	.type	makeUserPDE, @function
makeUserPDE:
.LFB321:
	.cfi_startproc
	pushl	%edi
	.cfi_def_cfa_offset 8
	.cfi_offset 7, -8
	pushl	%esi
	.cfi_def_cfa_offset 12
	.cfi_offset 6, -12
	pushl	%ebx
	.cfi_def_cfa_offset 16
	.cfi_offset 3, -16
	movl	16(%esp), %ebx
	cmpl	$2, %ebx
	je	.L61
	cmpl	$3, %ebx
	je	.L59
	cmpl	$1, %ebx
	je	.L59
	call	halt
.L59:
	subl	$2, %ebx
	cmpl	$1, %ebx
	ja	.L63
	movl	$1, %esi
	jmp	.L58
.L61:
	xorl	%esi, %esi
.L58:
	movl	$1, %edi
	jmp	.L60
.L63:
	movl	$1, %esi
	xorl	%edi, %edi
.L60:
	movl	%ecx, %ebx
	andl	$-4194304, %edx
	andl	$1, %ebx
	addl	%esi, %esi
	sall	$3, %ebx
	orb	$-127, %bl
	orl	%edx, %ebx
	movl	%ecx, %edx
	andl	$4, %edx
	andl	$2, %ecx
	shrl	$2, %edx
	sall	$12, %edx
	shrl	%ecx
	orl	%edx, %ebx
	sall	$4, %ecx
	sall	$2, %edi
	orl	%ecx, %ebx
	orl	%edi, %ebx
	orl	%esi, %ebx
	movl	%ebx, (%eax)
	popl	%ebx
	.cfi_restore 3
	.cfi_def_cfa_offset 12
	popl	%esi
	.cfi_restore 6
	.cfi_def_cfa_offset 8
	popl	%edi
	.cfi_restore 7
	.cfi_def_cfa_offset 4
	ret
	.cfi_endproc
.LFE321:
	.size	makeUserPDE, .-makeUserPDE
	.type	makeUserPTE, @function
makeUserPTE:
.LFB322:
	.cfi_startproc
	pushl	%edi
	.cfi_def_cfa_offset 8
	.cfi_offset 7, -8
	pushl	%esi
	.cfi_def_cfa_offset 12
	.cfi_offset 6, -12
	pushl	%ebx
	.cfi_def_cfa_offset 16
	.cfi_offset 3, -16
	movl	16(%esp), %ebx
	cmpl	$2, %ebx
	je	.L77
	cmpl	$3, %ebx
	je	.L75
	cmpl	$1, %ebx
	je	.L75
	call	halt
.L75:
	subl	$2, %ebx
	cmpl	$1, %ebx
	ja	.L79
	movl	$1, %esi
	jmp	.L74
.L77:
	xorl	%esi, %esi
.L74:
	movl	$1, %edi
	jmp	.L76
.L79:
	movl	$1, %esi
	xorl	%edi, %edi
.L76:
	movl	%ecx, %ebx
	andl	$-4096, %edx
	andl	$1, %ebx
	addl	%esi, %esi
	sall	$3, %ebx
	orl	$1, %ebx
	orl	%edx, %ebx
	movl	%ecx, %edx
	andl	$4, %edx
	andl	$2, %ecx
	shrl	$2, %edx
	sall	$7, %edx
	shrl	%ecx
	orl	%edx, %ebx
	sall	$4, %ecx
	sall	$2, %edi
	orl	%ecx, %ebx
	orl	%edi, %ebx
	orl	%esi, %ebx
	movl	%ebx, (%eax)
	popl	%ebx
	.cfi_restore 3
	.cfi_def_cfa_offset 12
	popl	%esi
	.cfi_restore 6
	.cfi_def_cfa_offset 8
	popl	%edi
	.cfi_restore 7
	.cfi_def_cfa_offset 4
	ret
	.cfi_endproc
.LFE322:
	.size	makeUserPTE, .-makeUserPTE
	.section	.boot.text
	.p2align 4,,15
	.type	pci_scan_bars, @function
pci_scan_bars:
.LFB556:
	.cfi_startproc
	pushl	%ebp
	.cfi_def_cfa_offset 8
	.cfi_offset 5, -8
	pushl	%edi
	.cfi_def_cfa_offset 12
	.cfi_offset 7, -12
	pushl	%esi
	.cfi_def_cfa_offset 16
	.cfi_offset 6, -16
	pushl	%ebx
	.cfi_def_cfa_offset 20
	.cfi_offset 3, -20
	subl	$60, %esp
	.cfi_def_cfa_offset 80
	movzbl	80(%esp), %edi
	testl	%edi, %edi
	movl	%edi, 40(%esp)
	je	.L88
	movzbl	%al, %eax
	movzbl	%dl, %edx
	movl	%eax, 28(%esp)
	sall	$16, %eax
	movzbl	%cl, %edi
	movl	%eax, 36(%esp)
	movl	%edx, %eax
	xorl	%ebp, %ebp
	orl	$-2147483648, 36(%esp)
	sall	$11, %eax
	orl	%eax, 36(%esp)
	movl	%edi, %eax
	sall	$8, %eax
	orl	%eax, 36(%esp)
	movl	%edi, 20(%esp)
	movl	%edx, 24(%esp)
	.p2align 4,,7
	.p2align 3
.L98:
	movl	20(%esp), %ecx
	leal	0(,%ebp,4), %edi
	movl	24(%esp), %edx
	leal	16(%edi), %ebx
	movl	28(%esp), %eax
	movzbl	%bl, %esi
	andl	$252, %ebx
	movl	%esi, (%esp)
	call	pci_read_reg32
	orl	36(%esp), %ebx
	movl	$3320, (%esp)
	movl	%ebx, 4(%esp)
	movl	%eax, 32(%esp)
	call	out32
	movl	$-1, 4(%esp)
	movl	$3324, (%esp)
	call	out32
	movl	20(%esp), %ecx
	movl	24(%esp), %edx
	movl	28(%esp), %eax
	movl	%esi, (%esp)
	call	pci_read_reg32
	testl	%eax, %eax
	je	.L90
	testb	$1, %al
	jne	.L91
	movl	%eax, %esi
	movl	$4096, %edx
	andl	$-16, %esi
	negl	%esi
	cmpl	$4095, %esi
	cmovbe	%edx, %esi
	testl	$4080, 32(%esp)
	jne	.L91
	xorl	%ecx, %ecx
	.p2align 4,,7
	.p2align 3
.L94:
	addl	$1, %ecx
	btl	%ecx, %esi
	jnc	.L94
	movl	$1, %edx
	sall	%cl, %edx
	cmpl	%esi, %edx
	je	.L104
	.p2align 4,,7
	.p2align 3
.L91:
	movl	%ebx, 4(%esp)
	movl	$3320, (%esp)
	call	out32
	movl	32(%esp), %eax
	movl	$3324, (%esp)
	movl	%eax, 4(%esp)
	call	out32
.L90:
	addl	$1, %ebp
	cmpl	40(%esp), %ebp
	jb	.L98
.L88:
	addl	$60, %esp
	.cfi_remember_state
	.cfi_def_cfa_offset 20
	popl	%ebx
	.cfi_restore 3
	.cfi_def_cfa_offset 16
	popl	%esi
	.cfi_restore 6
	.cfi_def_cfa_offset 12
	popl	%edi
	.cfi_restore 7
	.cfi_def_cfa_offset 8
	popl	%ebp
	.cfi_restore 5
	.cfi_def_cfa_offset 4
	ret
	.p2align 4,,7
	.p2align 3
.L104:
	.cfi_restore_state
	movl	32(%esp), %edx
	andl	$-16, %edx
	testb	$4, %al
	movl	%edx, 44(%esp)
	jne	.L105
	movl	glks+188, %eax
	cmpl	$199, %eax
	ja	.L91
	movl	44(%esp), %edi
	leal	glks+176(,%eax,8), %edx
	addl	$1, %eax
	addl	%edi, %esi
	movl	%edi, 16(%edx)
	movl	%esi, 20(%edx)
	movl	%eax, glks+188
	jmp	.L91
.L105:
	leal	20(%edi), %eax
	movl	20(%esp), %ecx
	movzbl	%al, %eax
	movl	24(%esp), %edx
	movl	%eax, (%esp)
	movl	28(%esp), %eax
	call	pci_read_reg32
	testl	%eax, %eax
	jne	.L96
	movl	glks+188, %eax
	cmpl	$199, %eax
	ja	.L96
	movl	44(%esp), %edi
	leal	glks+176(,%eax,8), %edx
	addl	$1, %eax
	addl	%edi, %esi
	movl	%edi, 16(%edx)
	movl	%esi, 20(%edx)
	movl	%eax, glks+188
.L96:
	addl	$1, %ebp
	jmp	.L91
	.cfi_endproc
.LFE556:
	.size	pci_scan_bars, .-pci_scan_bars
	.p2align 4,,15
	.type	pci_scan_fun, @function
pci_scan_fun:
.LFB557:
	.cfi_startproc
	pushl	%ebp
	.cfi_def_cfa_offset 8
	.cfi_offset 5, -8
	movzbl	%cl, %ebp
	pushl	%edi
	.cfi_def_cfa_offset 12
	.cfi_offset 7, -12
	movzbl	%dl, %edi
	pushl	%esi
	.cfi_def_cfa_offset 16
	.cfi_offset 6, -16
	movzbl	%al, %esi
	pushl	%ebx
	.cfi_def_cfa_offset 20
	.cfi_offset 3, -20
	movl	%esi, %eax
	movl	%edi, %ebx
	subl	$28, %esp
	.cfi_def_cfa_offset 48
	sall	$16, %eax
	sall	$11, %ebx
	orl	%eax, %ebx
	movl	%ebp, %eax
	sall	$8, %eax
	orl	%eax, %ebx
	movl	%ebx, %edx
	orl	$-2147483648, %edx
	movl	%edx, 4(%esp)
	movl	$3320, (%esp)
	movl	%edx, 12(%esp)
	call	out32
	movl	$3324, (%esp)
	call	in32
	cmpw	$-1, %ax
	je	.L111
	movl	12(%esp), %edx
	orl	$-2147483636, %ebx
	movl	$3320, (%esp)
	movl	%edx, 4(%esp)
	call	out32
	movl	$3324, (%esp)
	call	in32
	movl	%ebx, 4(%esp)
	movl	$3320, (%esp)
	call	out32
	movl	$3324, (%esp)
	call	in32
	shrl	$16, %eax
	andl	$127, %eax
	cmpb	$1, %al
	je	.L108
	jb	.L109
	cmpb	$2, %al
	jne	.L116
	movl	$1, (%esp)
.L115:
	movl	%esi, %eax
	movl	%ebp, %ecx
	movl	%edi, %edx
	call	pci_scan_bars
	addl	$28, %esp
	.cfi_remember_state
	.cfi_def_cfa_offset 20
	movl	$1, %eax
	popl	%ebx
	.cfi_restore 3
	.cfi_def_cfa_offset 16
	popl	%esi
	.cfi_restore 6
	.cfi_def_cfa_offset 12
	popl	%edi
	.cfi_restore 7
	.cfi_def_cfa_offset 8
	popl	%ebp
	.cfi_restore 5
	.cfi_def_cfa_offset 4
	ret
	.p2align 4,,7
	.p2align 3
.L111:
	.cfi_restore_state
	addl	$28, %esp
	.cfi_remember_state
	.cfi_def_cfa_offset 20
	xorl	%eax, %eax
	popl	%ebx
	.cfi_restore 3
	.cfi_def_cfa_offset 16
	popl	%esi
	.cfi_restore 6
	.cfi_def_cfa_offset 12
	popl	%edi
	.cfi_restore 7
	.cfi_def_cfa_offset 8
	popl	%ebp
	.cfi_restore 5
	.cfi_def_cfa_offset 4
	ret
	.p2align 4,,7
	.p2align 3
.L116:
	.cfi_restore_state
	addl	$28, %esp
	.cfi_remember_state
	.cfi_def_cfa_offset 20
	movl	$1, %eax
	popl	%ebx
	.cfi_restore 3
	.cfi_def_cfa_offset 16
	popl	%esi
	.cfi_restore 6
	.cfi_def_cfa_offset 12
	popl	%edi
	.cfi_restore 7
	.cfi_def_cfa_offset 8
	popl	%ebp
	.cfi_restore 5
	.cfi_def_cfa_offset 4
	ret
	.p2align 4,,7
	.p2align 3
.L108:
	.cfi_restore_state
	movl	$2, (%esp)
	jmp	.L115
	.p2align 4,,7
	.p2align 3
.L109:
	movl	$6, (%esp)
	jmp	.L115
	.cfi_endproc
.LFE557:
	.size	pci_scan_fun, .-pci_scan_fun
	.text
	.p2align 4,,15
	.type	resetMemMapping, @function
resetMemMapping:
.LFB364:
	.cfi_startproc
	pushl	%edi
	.cfi_def_cfa_offset 8
	.cfi_offset 7, -8
	movl	%edx, %edi
	pushl	%esi
	.cfi_def_cfa_offset 12
	.cfi_offset 6, -12
	andl	$14, %edi
	pushl	%ebx
	.cfi_def_cfa_offset 16
	.cfi_offset 3, -16
	movl	%edx, %ebx
	andl	$15, %ebx
	movzbl	%dl, %esi
	cmpl	$14, %edi
	cmove	%esi, %ebx
	cmpl	$3, %ebx
	je	.L121
	cmpl	$5, %ebx
	je	.L122
	cmpl	$1, %ebx
	je	.L127
	popl	%ebx
	.cfi_remember_state
	.cfi_restore 3
	.cfi_def_cfa_offset 12
	popl	%esi
	.cfi_restore 6
	.cfi_def_cfa_offset 8
	movl	%edx, (%eax)
	movl	%ecx, 4(%eax)
	popl	%edi
	.cfi_restore 7
	.cfi_def_cfa_offset 4
	ret
	.p2align 4,,7
	.p2align 3
.L127:
	.cfi_restore_state
	andl	$67108863, %edx
	andl	$-1072693249, %ecx
	popl	%ebx
	.cfi_remember_state
	.cfi_restore 3
	.cfi_def_cfa_offset 12
	movl	%edx, (%eax)
	popl	%esi
	.cfi_restore 6
	.cfi_def_cfa_offset 8
	movl	%ecx, 4(%eax)
	popl	%edi
	.cfi_restore 7
	.cfi_def_cfa_offset 4
	ret
	.p2align 4,,7
	.p2align 3
.L122:
	.cfi_restore_state
	andl	$-65537, %ecx
	popl	%ebx
	.cfi_remember_state
	.cfi_restore 3
	.cfi_def_cfa_offset 12
	movl	%edx, (%eax)
	popl	%esi
	.cfi_restore 6
	.cfi_def_cfa_offset 8
	movl	%ecx, 4(%eax)
	popl	%edi
	.cfi_restore 7
	.cfi_def_cfa_offset 4
	ret
	.p2align 4,,7
	.p2align 3
.L121:
	.cfi_restore_state
	andl	$-67108865, %ecx
	popl	%ebx
	.cfi_restore 3
	.cfi_def_cfa_offset 12
	movl	%edx, (%eax)
	popl	%esi
	.cfi_restore 6
	.cfi_def_cfa_offset 8
	movl	%ecx, 4(%eax)
	popl	%edi
	.cfi_restore 7
	.cfi_def_cfa_offset 4
	ret
	.cfi_endproc
.LFE364:
	.size	resetMemMapping, .-resetMemMapping
	.p2align 4,,15
	.globl	restore_user_context
	.type	restore_user_context, @function
restore_user_context:
.LFB258:
	.cfi_startproc
	movl	ksCurThread, %eax
	leal	76(%eax), %edx
	movl	%edx, ia32KStss+4
	movl	ia32KSfpuOwner, %edx
	cmpl	%edx, %eax
	je	.L136
	testl	%edx, %edx
	jne	.L137
.L130:
	cmpl	$-1, 52(%eax)
	jne	.L131
	andl	$-513, 64(%eax)
#APP
# 37 "src/arch/ia32/c_traps.c" 1
	movl %eax, %esp
popl %eax
popl %ebx
addl $8, %esp
popl %esi
popl %edi
popl %ebp
cmpl $0x23, (%esp)
je 1f
popl %ds
jmp 2f
1: addl $4, %esp
2:
cmpl $0x23, (%esp)
je 1f
popl %es
jmp 2f
1: addl $4, %esp
2:
popl %fs
popl %gs
addl $12, %esp
popl %edx
addl $4,  %esp
popfl
orl $0x200, -4(%esp)
pop %ecx
sti
sysexit

# 0 "" 2
#NO_APP
.L133:
.L134:
	jmp	.L134
.L131:
#APP
# 89 "src/arch/ia32/c_traps.c" 1
	movl %eax, %esp
popl %eax
popl %ebx
popl %ecx
popl %edx
popl %esi
popl %edi
popl %ebp
popl %ds
popl %es
popl %fs
popl %gs
addl $12, %esp
iret

# 0 "" 2
#NO_APP
	jmp	.L133
.L137:
#APP
# 41 "./include/arch/ia32/arch/machine/cpu_registers.h" 1
	movl %cr0, %edx
# 0 "" 2
#NO_APP
	orl	$8, %edx
#APP
# 47 "./include/arch/ia32/arch/machine/cpu_registers.h" 1
	movl %edx, %cr0
# 0 "" 2
#NO_APP
	jmp	.L130
.L136:
#APP
# 45 "./include/arch/ia32/arch/machine/fpu.h" 1
	clts
# 0 "" 2
#NO_APP
	.p2align 4,,8
	jmp	.L130
	.cfi_endproc
.LFE258:
	.size	restore_user_context, .-restore_user_context
	.section	.boot.text
	.p2align 4,,15
	.globl	apic_get_base_paddr
	.type	apic_get_base_paddr, @function
apic_get_base_paddr:
.LFB267:
	.cfi_startproc
	subl	$28, %esp
	.cfi_def_cfa_offset 32
	movl	$27, (%esp)
	call	ia32_rdmsr_low
	addl	$28, %esp
	.cfi_def_cfa_offset 4
	andl	$-4096, %eax
	ret
	.cfi_endproc
.LFE267:
	.size	apic_get_base_paddr, .-apic_get_base_paddr
	.p2align 4,,15
	.globl	apic_init
	.type	apic_init, @function
apic_init:
.LFB268:
	.cfi_startproc
	movl	-65488, %ecx
	xorl	%eax, %eax
	movzbl	%cl, %edx
	shrl	$4, %edx
	cmpl	$1, %edx
	je	.L144
.L141:
	rep ret
	.p2align 4,,7
	.p2align 3
.L144:
	andl	$16711680, %ecx
	shrl	$16, %ecx
	addl	$1, %ecx
	cmpl	$2, %ecx
	jbe	.L141
	movl	$11, -64544
	movl	4(%esp), %eax
	addl	%eax, %eax
	movl	%eax, -64640
	movl	$511, -65296
	movl	8(%esp), %eax
	andl	$1, %eax
	sall	$16, %eax
	orb	$7, %ah
	movl	%eax, -64688
	movl	$1, %eax
	movl	$65536, -64672
	movl	$131135, -64736
	ret
	.cfi_endproc
.LFE268:
	.size	apic_init, .-apic_init
	.text
	.p2align 4,,15
	.globl	apic_is_interrupt_pending
	.type	apic_is_interrupt_pending, @function
apic_is_interrupt_pending:
.LFB269:
	.cfi_startproc
	movl	-65008, %eax
	testl	%eax, %eax
	setne	%al
	movzbl	%al, %eax
	ret
	.cfi_endproc
.LFE269:
	.size	apic_is_interrupt_pending, .-apic_is_interrupt_pending
	.p2align 4,,15
	.globl	apic_ack_active_interrupt
	.type	apic_ack_active_interrupt, @function
apic_ack_active_interrupt:
.LFB270:
	.cfi_startproc
	movl	$0, -65360
	ret
	.cfi_endproc
.LFE270:
	.size	apic_ack_active_interrupt, .-apic_ack_active_interrupt
	.section	.boot.text
	.p2align 4,,15
	.globl	apic_send_init_ipi
	.type	apic_send_init_ipi, @function
apic_send_init_ipi:
.LFB271:
	.cfi_startproc
	movl	4(%esp), %eax
	sall	$24, %eax
	movl	%eax, -64752
	movl	$50432, -64768
	movl	%eax, -64752
	movl	$34048, -64768
	ret
	.cfi_endproc
.LFE271:
	.size	apic_send_init_ipi, .-apic_send_init_ipi
	.p2align 4,,15
	.globl	apic_send_startup_ipi
	.type	apic_send_startup_ipi, @function
apic_send_startup_ipi:
.LFB272:
	.cfi_startproc
	movl	8(%esp), %eax
	movl	4(%esp), %edx
	shrl	$12, %eax
	movzbl	%al, %eax
	sall	$24, %edx
	orb	$6, %ah
	movl	%edx, -64752
	movl	%eax, -64768
	ret
	.cfi_endproc
.LFE272:
	.size	apic_send_startup_ipi, .-apic_send_startup_ipi
	.p2align 4,,15
	.globl	create_unmapped_it_frame_cap
	.type	create_unmapped_it_frame_cap, @function
create_unmapped_it_frame_cap:
.LFB276:
	.cfi_startproc
	movl	8(%esp), %edx
	movl	4(%esp), %eax
	movl	12(%esp), %ecx
	andl	$-4096, %edx
	shrl	$8, %edx
	orl	$50331649, %edx
	movl	%edx, (%eax)
	xorl	%edx, %edx
	testl	%ecx, %ecx
	setne	%dl
	sall	$31, %edx
	movl	%edx, 4(%eax)
	ret	$4
	.cfi_endproc
.LFE276:
	.size	create_unmapped_it_frame_cap, .-create_unmapped_it_frame_cap
	.p2align 4,,15
	.globl	insert_dev_p_reg
	.type	insert_dev_p_reg, @function
insert_dev_p_reg:
.LFB284:
	.cfi_startproc
	movl	glks+188, %ecx
	cmpl	$199, %ecx
	ja	.L150
	movl	4(%esp), %eax
	movl	8(%esp), %edx
	movl	%eax, glks+192(,%ecx,8)
	movl	%edx, glks+196(,%ecx,8)
	addl	$1, %ecx
	movl	%ecx, glks+188
.L150:
	rep ret
	.cfi_endproc
.LFE284:
	.size	insert_dev_p_reg, .-insert_dev_p_reg
	.p2align 4,,15
	.globl	cur_cpu_id
	.type	cur_cpu_id, @function
cur_cpu_id:
.LFB285:
	.cfi_startproc
	subl	$12, %esp
	.cfi_def_cfa_offset 16
	call	get_current_esp
	addl	$536870912, %eax
	cmpl	$_boot_stack_top, %eax
	ja	.L153
	cmpl	$_boot_stack_bottom, %eax
	ja	.L156
.L153:
	shrl	$11, %eax
	addl	$12, %esp
	.cfi_remember_state
	.cfi_def_cfa_offset 4
	ret
	.p2align 4,,7
	.p2align 3
.L156:
	.cfi_restore_state
	movl	glks+28, %eax
	addl	$12, %esp
	.cfi_def_cfa_offset 4
	ret
	.cfi_endproc
.LFE285:
	.size	cur_cpu_id, .-cur_cpu_id
	.p2align 4,,15
	.globl	node_of_cpu
	.type	node_of_cpu, @function
node_of_cpu:
.LFB286:
	.cfi_startproc
	subl	$12, %esp
	.cfi_def_cfa_offset 16
	movl	glks+24, %edx
	movl	16(%esp), %ecx
	testl	%edx, %edx
	je	.L158
	xorl	%eax, %eax
	cmpl	%ecx, glks+28
	je	.L170
	.p2align 4,,7
	.p2align 3
.L161:
	addl	$1, %eax
	cmpl	%edx, %eax
	je	.L158
	cmpl	%ecx, glks+28(,%eax,4)
	jne	.L161
.L165:
	addl	$12, %esp
	.cfi_remember_state
	.cfi_def_cfa_offset 4
	ret
.L170:
	.cfi_restore_state
	xorl	%eax, %eax
	jmp	.L165
.L158:
	.p2align 4,,7
	call	halt
	.cfi_endproc
.LFE286:
	.size	node_of_cpu, .-node_of_cpu
	.p2align 4,,15
	.globl	elf32_checkFile
	.type	elf32_checkFile, @function
elf32_checkFile:
.LFB298:
	.cfi_startproc
	movl	4(%esp), %edx
	xorl	%eax, %eax
	cmpl	$1179403647, (%edx)
	je	.L174
	rep ret
	.p2align 4,,7
	.p2align 3
.L174:
	xorl	%eax, %eax
	cmpb	$1, 4(%edx)
	sete	%al
	ret
	.cfi_endproc
.LFE298:
	.size	elf32_checkFile, .-elf32_checkFile
	.p2align 4,,15
	.globl	elf32_getMemoryBounds
	.type	elf32_getMemoryBounds, @function
elf32_getMemoryBounds:
.LFB299:
	.cfi_startproc
	pushl	%ebp
	.cfi_def_cfa_offset 8
	.cfi_offset 5, -8
	pushl	%edi
	.cfi_def_cfa_offset 12
	.cfi_offset 7, -12
	pushl	%esi
	.cfi_def_cfa_offset 16
	.cfi_offset 6, -16
	pushl	%ebx
	.cfi_def_cfa_offset 20
	.cfi_offset 3, -20
	movl	24(%esp), %edx
	movl	20(%esp), %eax
	movl	28(%edx), %ebx
	movzwl	44(%edx), %ecx
	addl	%edx, %ebx
	testw	%cx, %cx
	je	.L179
	sall	$5, %ecx
	movl	$-1, %edi
	leal	20(%ebx), %edx
	xorl	%esi, %esi
	leal	20(%ebx,%ecx), %ebp
	.p2align 4,,7
	.p2align 3
.L178:
	movl	(%edx), %ecx
	testl	%ecx, %ecx
	je	.L177
	movl	-12(%edx), %ebx
	addl	%ebx, %ecx
	cmpl	%ebx, %edi
	cmova	%ebx, %edi
	cmpl	%ecx, %esi
	cmovb	%ecx, %esi
.L177:
	addl	$32, %edx
	cmpl	%ebp, %edx
	jne	.L178
.L176:
	movl	%edi, (%eax)
	movl	%esi, 4(%eax)
	popl	%ebx
	.cfi_remember_state
	.cfi_restore 3
	.cfi_def_cfa_offset 16
	popl	%esi
	.cfi_restore 6
	.cfi_def_cfa_offset 12
	popl	%edi
	.cfi_restore 7
	.cfi_def_cfa_offset 8
	popl	%ebp
	.cfi_restore 5
	.cfi_def_cfa_offset 4
	ret	$4
.L179:
	.cfi_restore_state
	movl	$-1, %edi
	xorl	%esi, %esi
	jmp	.L176
	.cfi_endproc
.LFE299:
	.size	elf32_getMemoryBounds, .-elf32_getMemoryBounds
	.p2align 4,,15
	.globl	Arch_configureIdleThread
	.type	Arch_configureIdleThread, @function
Arch_configureIdleThread:
.LFB302:
	.cfi_startproc
	movl	4(%esp), %eax
	movl	$514, 64(%eax)
	movl	$idle_thread, 56(%eax)
	movl	$8, 60(%eax)
	movl	$16, 28(%eax)
	movl	$16, 32(%eax)
	movl	$16, 36(%eax)
	movl	$16, 40(%eax)
	movl	$16, 72(%eax)
	ret
	.cfi_endproc
.LFE302:
	.size	Arch_configureIdleThread, .-Arch_configureIdleThread
	.text
	.p2align 4,,15
	.globl	Arch_switchToIdleThread
	.type	Arch_switchToIdleThread, @function
Arch_switchToIdleThread:
.LFB303:
	.cfi_startproc
	rep ret
	.cfi_endproc
.LFE303:
	.size	Arch_switchToIdleThread, .-Arch_switchToIdleThread
	.p2align 4,,15
	.globl	Arch_activateIdleThread
	.type	Arch_activateIdleThread, @function
Arch_activateIdleThread:
.LFB304:
	.cfi_startproc
	rep ret
	.cfi_endproc
.LFE304:
	.size	Arch_activateIdleThread, .-Arch_activateIdleThread
	.section	.phys.text,"ax",@progbits
	.p2align 4,,15
	.globl	init_boot_pd
	.type	init_boot_pd, @function
init_boot_pd:
.LFB306:
	.cfi_startproc
	xorl	%eax, %eax
	.p2align 4,,7
	.p2align 3
.L189:
	movl	%eax, %edx
	sall	$22, %edx
	orl	$387, %edx
	movl	%edx, _boot_pd(,%eax,4)
	addl	$1, %eax
	cmpl	$896, %eax
	jne	.L189
	xorw	%ax, %ax
	.p2align 4,,7
	.p2align 3
.L191:
	movl	%eax, %edx
	sall	$22, %edx
	orl	$387, %edx
	movl	%edx, _boot_pd+3584(,%eax,4)
	addl	$1, %eax
	cmpl	$128, %eax
	jne	.L191
	rep ret
	.cfi_endproc
.LFE306:
	.size	init_boot_pd, .-init_boot_pd
	.section	.boot.text
	.p2align 4,,15
	.globl	map_kernel_window
	.type	map_kernel_window, @function
map_kernel_window:
.LFB311:
	.cfi_startproc
	pushl	%ebp
	.cfi_def_cfa_offset 8
	.cfi_offset 5, -8
	pushl	%edi
	.cfi_def_cfa_offset 12
	.cfi_offset 7, -12
	pushl	%esi
	.cfi_def_cfa_offset 16
	.cfi_offset 6, -16
	pushl	%ebx
	.cfi_def_cfa_offset 20
	.cfi_offset 3, -20
	subl	$28, %esp
	.cfi_def_cfa_offset 48
	movl	48(%esp), %eax
	movl	56(%esp), %edi
	movl	52(%esp), %esi
	movl	60(%esp), %ebp
	leal	3584(%eax), %ecx
	xorl	%eax, %eax
	movl	%edi, %ebx
	.p2align 4,,7
	.p2align 3
.L194:
	movl	%eax, %edx
	addl	$4194304, %eax
	andl	$-4194304, %edx
	addl	$4, %ecx
	orl	$387, %edx
	movl	%edx, -4(%ecx)
	cmpl	$532676608, %eax
	jne	.L194
	movl	48(%esp), %ecx
	subl	%edi, %ebp
	leal	536870912(%esi), %eax
	andl	$-4096, %eax
	shrl	$12, %ebp
	orl	$7, %eax
	testl	%ebp, %ebp
	movl	%eax, 4092(%ecx)
	leal	4(%esi), %eax
	movl	$0, (%esi)
	leal	4(%esi,%ebp,4), %ecx
	je	.L214
	.p2align 4,,7
	.p2align 3
.L198:
	movl	%ebx, %edx
	addl	$4, %eax
	andl	$-4096, %edx
	addl	$4096, %ebx
	orl	$259, %edx
	movl	%edx, -4(%eax)
	cmpl	%ecx, %eax
	jne	.L198
	leal	1(%ebp), %ebx
	cmpl	$1007, %ebx
	ja	.L200
	.p2align 4,,7
	.p2align 3
.L196:
	movl	$0, (%esi,%ebx,4)
	addl	$1, %ebx
	cmpl	$1007, %ebx
	jbe	.L196
.L200:
	movl	$27, (%esp)
	call	ia32_rdmsr_low
	movl	%eax, %edx
	xorl	%eax, %eax
	andl	$-4096, %edx
	je	.L201
	orl	$283, %edx
	movl	%edx, (%esi,%ebx,4)
	addl	$1, %ebx
	cmpl	$1023, %ebx
	ja	.L203
	.p2align 4,,7
	.p2align 3
.L208:
	movl	$0, (%esi,%ebx,4)
	addl	$1, %ebx
	cmpl	$1024, %ebx
	jne	.L208
.L203:
	call	invalidatePageStructureCache
	movl	$1, %eax
.L201:
	addl	$28, %esp
	.cfi_remember_state
	.cfi_def_cfa_offset 20
	popl	%ebx
	.cfi_restore 3
	.cfi_def_cfa_offset 16
	popl	%esi
	.cfi_restore 6
	.cfi_def_cfa_offset 12
	popl	%edi
	.cfi_restore 7
	.cfi_def_cfa_offset 8
	popl	%ebp
	.cfi_restore 5
	.cfi_def_cfa_offset 4
	ret
.L214:
	.cfi_restore_state
	movl	$1, %ebx
	jmp	.L196
	.cfi_endproc
.LFE311:
	.size	map_kernel_window, .-map_kernel_window
	.p2align 4,,15
	.globl	map_temp_boot_page
	.type	map_temp_boot_page, @function
map_temp_boot_page:
.LFB312:
	.cfi_startproc
	pushl	%ebp
	.cfi_def_cfa_offset 8
	.cfi_offset 5, -8
	pushl	%edi
	.cfi_def_cfa_offset 12
	.cfi_offset 7, -12
	movl	$896, %edi
	pushl	%esi
	.cfi_def_cfa_offset 16
	.cfi_offset 6, -16
	movl	$-536870912, %esi
	pushl	%ebx
	.cfi_def_cfa_offset 20
	.cfi_offset 3, -20
	xorl	%ebx, %ebx
	subl	$28, %esp
	.cfi_def_cfa_offset 48
	movl	52(%esp), %eax
	movl	48(%esp), %ebp
	subl	52(%esp), %edi
	sall	$22, %eax
	subl	%eax, %esi
	movl	52(%esp), %eax
	andl	$-4194304, %ebp
	testl	%eax, %eax
	je	.L217
	.p2align 4,,7
	.p2align 3
.L219:
	movl	%ebx, %edx
	sall	$22, %edx
	leal	(%edx,%ebp), %eax
	addl	%esi, %edx
	leal	(%ebx,%edi), %ecx
	orl	$387, %eax
	movl	%edx, (%esp)
	addl	$1, %ebx
	movl	%eax, _boot_pd(,%ecx,4)
	call	invalidateTLBentry
	cmpl	52(%esp), %ebx
	jne	.L219
.L217:
	call	invalidatePageStructureCache
	movl	48(%esp), %eax
	addl	$28, %esp
	.cfi_def_cfa_offset 20
	popl	%ebx
	.cfi_restore 3
	.cfi_def_cfa_offset 16
	andl	$4194303, %eax
	addl	%esi, %eax
	popl	%esi
	.cfi_restore 6
	.cfi_def_cfa_offset 12
	popl	%edi
	.cfi_restore 7
	.cfi_def_cfa_offset 8
	popl	%ebp
	.cfi_restore 5
	.cfi_def_cfa_offset 4
	ret
	.cfi_endproc
.LFE312:
	.size	map_temp_boot_page, .-map_temp_boot_page
	.p2align 4,,15
	.globl	init_dtrs
	.type	init_dtrs, @function
init_dtrs:
.LFB314:
	.cfi_startproc
	movl	$63, %eax
	subl	$28, %esp
	.cfi_def_cfa_offset 32
	movw	%ax, gdt_idt_ptr
	movl	$ia32KSgdt, %eax
	movw	%ax, gdt_idt_ptr+2
	shrl	$16, %eax
	movl	$gdt_idt_ptr, (%esp)
	movw	%ax, gdt_idt_ptr+4
	call	ia32_install_gdt
	movl	$ia32KSidt, %eax
	movl	$2047, %edx
	movw	%ax, gdt_idt_ptr+2
	shrl	$16, %eax
	movl	$gdt_idt_ptr, (%esp)
	movw	%dx, gdt_idt_ptr
	movw	%ax, gdt_idt_ptr+4
	call	ia32_install_idt
	movl	$0, (%esp)
	call	ia32_install_ldt
	movl	$40, (%esp)
	call	ia32_install_tss
	addl	$28, %esp
	.cfi_def_cfa_offset 4
	ret
	.cfi_endproc
.LFE314:
	.size	init_dtrs, .-init_dtrs
	.p2align 4,,15
	.globl	map_it_pt_cap
	.type	map_it_pt_cap, @function
map_it_pt_cap:
.LFB315:
	.cfi_startproc
	pushl	%ebp
	.cfi_def_cfa_offset 8
	.cfi_offset 5, -8
	pushl	%edi
	.cfi_def_cfa_offset 12
	.cfi_offset 7, -12
	pushl	%esi
	.cfi_def_cfa_offset 16
	.cfi_offset 6, -16
	pushl	%ebx
	.cfi_def_cfa_offset 20
	.cfi_offset 3, -20
	subl	$12, %esp
	.cfi_def_cfa_offset 32
	movl	32(%esp), %ecx
	movl	36(%esp), %edi
	movl	40(%esp), %ebx
	movl	44(%esp), %esi
	movl	%ecx, %ebp
	movl	%ecx, %eax
	andl	$14, %ebp
	andl	$15, %eax
	movzbl	%cl, %edx
	cmpl	$14, %ebp
	cmove	%edx, %eax
	cmpl	$62, %eax
	ja	.L228
	jmp	*.L230(,%eax,4)
	.section	.rodata
	.align 4
	.align 4
.L230:
	.long	.L242
	.long	.L237
	.long	.L236
	.long	.L237
	.long	.L236
	.long	.L237
	.long	.L236
	.long	.L242
	.long	.L242
	.long	.L237
	.long	.L238
	.long	.L242
	.long	.L239
	.long	.L228
	.long	.L242
	.long	.L228
	.long	.L228
	.long	.L228
	.long	.L228
	.long	.L228
	.long	.L228
	.long	.L228
	.long	.L228
	.long	.L228
	.long	.L228
	.long	.L228
	.long	.L228
	.long	.L228
	.long	.L228
	.long	.L228
	.long	.L242
	.long	.L228
	.long	.L228
	.long	.L228
	.long	.L228
	.long	.L228
	.long	.L228
	.long	.L228
	.long	.L228
	.long	.L228
	.long	.L228
	.long	.L228
	.long	.L228
	.long	.L228
	.long	.L228
	.long	.L228
	.long	.L240
	.long	.L228
	.long	.L228
	.long	.L228
	.long	.L228
	.long	.L228
	.long	.L228
	.long	.L228
	.long	.L228
	.long	.L228
	.long	.L228
	.long	.L228
	.long	.L228
	.long	.L228
	.long	.L228
	.long	.L228
	.long	.L242
	.section	.boot.text
	.p2align 4,,7
	.p2align 3
.L237:
	andl	$16777200, %ecx
	sall	$8, %ecx
.L229:
	movl	%ebx, %eax
	andl	$1023, %esi
	andl	$16777200, %eax
	sall	$8, %eax
	addl	$536870912, %eax
	orl	$7, %eax
	movl	%eax, (%ecx,%esi,4)
	addl	$12, %esp
	.cfi_remember_state
	.cfi_def_cfa_offset 20
	popl	%ebx
	.cfi_restore 3
	.cfi_def_cfa_offset 16
	popl	%esi
	.cfi_restore 6
	.cfi_def_cfa_offset 12
	popl	%edi
	.cfi_restore 7
	.cfi_def_cfa_offset 8
	popl	%ebp
	.cfi_restore 5
	.cfi_def_cfa_offset 4
	jmp	invalidatePageStructureCache
	.p2align 4,,7
	.p2align 3
.L236:
	.cfi_restore_state
	andl	$-16, %ecx
	jmp	.L229
	.p2align 4,,7
	.p2align 3
.L242:
	xorl	%ecx, %ecx
	jmp	.L229
	.p2align 4,,7
	.p2align 3
.L240:
	andl	$16128, %ecx
	shrl	$8, %ecx
	cmpl	$32, %ecx
	je	.L243
	addl	$1, %ecx
	movl	$-1, %eax
	sall	%cl, %eax
.L241:
	andl	%edi, %eax
	movl	%eax, %ecx
	jmp	.L229
	.p2align 4,,7
	.p2align 3
.L239:
	andl	$-1024, %ecx
	jmp	.L229
	.p2align 4,,7
	.p2align 3
.L238:
	andl	$2147483632, %ecx
	addl	%ecx, %ecx
	jmp	.L229
	.p2align 4,,7
	.p2align 3
.L228:
	call	halt
	.p2align 4,,7
	.p2align 3
.L243:
	movl	$-16, %eax
	jmp	.L241
	.cfi_endproc
.LFE315:
	.size	map_it_pt_cap, .-map_it_pt_cap
	.p2align 4,,15
	.globl	map_it_frame_cap
	.type	map_it_frame_cap, @function
map_it_frame_cap:
.LFB316:
	.cfi_startproc
	pushl	%ebp
	.cfi_def_cfa_offset 8
	.cfi_offset 5, -8
	pushl	%edi
	.cfi_def_cfa_offset 12
	.cfi_offset 7, -12
	pushl	%esi
	.cfi_def_cfa_offset 16
	.cfi_offset 6, -16
	pushl	%ebx
	.cfi_def_cfa_offset 20
	.cfi_offset 3, -20
	subl	$12, %esp
	.cfi_def_cfa_offset 32
	movl	32(%esp), %ecx
	movl	36(%esp), %edi
	movl	40(%esp), %ebx
	movl	44(%esp), %edx
	movl	%ecx, %ebp
	movl	%ecx, %eax
	andl	$14, %ebp
	andl	$15, %eax
	movzbl	%cl, %esi
	cmpl	$14, %ebp
	cmove	%esi, %eax
	cmpl	$62, %eax
	ja	.L248
	jmp	*.L250(,%eax,4)
	.section	.rodata
	.align 4
	.align 4
.L250:
	.long	.L262
	.long	.L257
	.long	.L256
	.long	.L257
	.long	.L256
	.long	.L257
	.long	.L256
	.long	.L262
	.long	.L262
	.long	.L257
	.long	.L258
	.long	.L262
	.long	.L259
	.long	.L248
	.long	.L262
	.long	.L248
	.long	.L248
	.long	.L248
	.long	.L248
	.long	.L248
	.long	.L248
	.long	.L248
	.long	.L248
	.long	.L248
	.long	.L248
	.long	.L248
	.long	.L248
	.long	.L248
	.long	.L248
	.long	.L248
	.long	.L262
	.long	.L248
	.long	.L248
	.long	.L248
	.long	.L248
	.long	.L248
	.long	.L248
	.long	.L248
	.long	.L248
	.long	.L248
	.long	.L248
	.long	.L248
	.long	.L248
	.long	.L248
	.long	.L248
	.long	.L248
	.long	.L260
	.long	.L248
	.long	.L248
	.long	.L248
	.long	.L248
	.long	.L248
	.long	.L248
	.long	.L248
	.long	.L248
	.long	.L248
	.long	.L248
	.long	.L248
	.long	.L248
	.long	.L248
	.long	.L248
	.long	.L248
	.long	.L262
	.section	.boot.text
	.p2align 4,,7
	.p2align 3
.L257:
	andl	$16777200, %ecx
	sall	$8, %ecx
.L249:
	sall	$12, %edx
	andl	$16777200, %ebx
	movl	%edx, %eax
	andl	$4194303, %edx
	shrl	$22, %eax
	movl	(%ecx,%eax,4), %eax
	movl	%ebx, %ecx
	sall	$8, %ecx
	addl	$536870912, %ecx
	shrl	$12, %edx
	orl	$7, %ecx
	andl	$-4096, %eax
	movl	%ecx, -536870912(%eax,%edx,4)
	addl	$12, %esp
	.cfi_remember_state
	.cfi_def_cfa_offset 20
	popl	%ebx
	.cfi_restore 3
	.cfi_def_cfa_offset 16
	popl	%esi
	.cfi_restore 6
	.cfi_def_cfa_offset 12
	popl	%edi
	.cfi_restore 7
	.cfi_def_cfa_offset 8
	popl	%ebp
	.cfi_restore 5
	.cfi_def_cfa_offset 4
	jmp	invalidatePageStructureCache
	.p2align 4,,7
	.p2align 3
.L256:
	.cfi_restore_state
	andl	$-16, %ecx
	jmp	.L249
	.p2align 4,,7
	.p2align 3
.L262:
	xorl	%ecx, %ecx
	jmp	.L249
	.p2align 4,,7
	.p2align 3
.L260:
	andl	$16128, %ecx
	shrl	$8, %ecx
	cmpl	$32, %ecx
	je	.L263
	addl	$1, %ecx
	movl	$-1, %eax
	sall	%cl, %eax
.L261:
	andl	%edi, %eax
	movl	%eax, %ecx
	jmp	.L249
	.p2align 4,,7
	.p2align 3
.L259:
	andl	$-1024, %ecx
	jmp	.L249
	.p2align 4,,7
	.p2align 3
.L258:
	andl	$2147483632, %ecx
	addl	%ecx, %ecx
	jmp	.L249
	.p2align 4,,7
	.p2align 3
.L248:
	call	halt
	.p2align 4,,7
	.p2align 3
.L263:
	movl	$-16, %eax
	jmp	.L261
	.cfi_endproc
.LFE316:
	.size	map_it_frame_cap, .-map_it_frame_cap
	.p2align 4,,15
	.globl	create_mapped_it_frame_cap
	.type	create_mapped_it_frame_cap, @function
create_mapped_it_frame_cap:
.LFB277:
	.cfi_startproc
	pushl	%edi
	.cfi_def_cfa_offset 8
	.cfi_offset 7, -8
	xorl	%ecx, %ecx
	pushl	%esi
	.cfi_def_cfa_offset 12
	.cfi_offset 6, -12
	pushl	%ebx
	.cfi_def_cfa_offset 16
	.cfi_offset 3, -16
	subl	$16, %esp
	.cfi_def_cfa_offset 32
	movl	52(%esp), %esi
	movl	44(%esp), %eax
	movl	48(%esp), %edx
	movl	32(%esp), %edi
	movl	%esi, %ebx
	andl	$1023, %ebx
	sall	$20, %ebx
	cmpl	$0, 56(%esp)
	setne	%cl
	andl	$-4096, %eax
	shrl	$10, %esi
	sall	$31, %ecx
	sall	$26, %esi
	orl	%ecx, %ebx
	shrl	$12, %edx
	orl	$50331649, %esi
	shrl	$8, %eax
	orl	%edx, %ebx
	movl	40(%esp), %edx
	orl	%eax, %esi
	movl	36(%esp), %eax
	movl	%esi, 8(%esp)
	movl	%ebx, 12(%esp)
	movl	%edx, 4(%esp)
	movl	%eax, (%esp)
	call	map_it_frame_cap
	movl	%edi, %eax
	movl	%esi, (%edi)
	movl	%ebx, 4(%edi)
	addl	$16, %esp
	.cfi_def_cfa_offset 16
	popl	%ebx
	.cfi_restore 3
	.cfi_def_cfa_offset 12
	popl	%esi
	.cfi_restore 6
	.cfi_def_cfa_offset 8
	popl	%edi
	.cfi_restore 7
	.cfi_def_cfa_offset 4
	ret	$4
	.cfi_endproc
.LFE277:
	.size	create_mapped_it_frame_cap, .-create_mapped_it_frame_cap
	.p2align 4,,15
	.globl	write_it_asid_pool
	.type	write_it_asid_pool, @function
write_it_asid_pool:
.LFB317:
	.cfi_startproc
	pushl	%ebp
	.cfi_def_cfa_offset 8
	.cfi_offset 5, -8
	pushl	%edi
	.cfi_def_cfa_offset 12
	.cfi_offset 7, -12
	pushl	%esi
	.cfi_def_cfa_offset 16
	.cfi_offset 6, -16
	pushl	%ebx
	.cfi_def_cfa_offset 20
	.cfi_offset 3, -20
	subl	$12, %esp
	.cfi_def_cfa_offset 32
	movl	32(%esp), %ecx
	movl	36(%esp), %ebx
	movl	40(%esp), %edx
	movl	44(%esp), %esi
	movl	%ecx, %ebp
	movl	%ecx, %eax
	andl	$14, %ebp
	andl	$15, %eax
	movzbl	%cl, %edi
	cmpl	$14, %ebp
	cmove	%edi, %eax
	cmpl	$62, %eax
	ja	.L286
	jmp	*.L272(,%eax,4)
	.section	.rodata
	.align 4
	.align 4
.L272:
	.long	.L300
	.long	.L279
	.long	.L278
	.long	.L279
	.long	.L278
	.long	.L279
	.long	.L278
	.long	.L300
	.long	.L300
	.long	.L279
	.long	.L280
	.long	.L300
	.long	.L281
	.long	.L286
	.long	.L300
	.long	.L286
	.long	.L286
	.long	.L286
	.long	.L286
	.long	.L286
	.long	.L286
	.long	.L286
	.long	.L286
	.long	.L286
	.long	.L286
	.long	.L286
	.long	.L286
	.long	.L286
	.long	.L286
	.long	.L286
	.long	.L300
	.long	.L286
	.long	.L286
	.long	.L286
	.long	.L286
	.long	.L286
	.long	.L286
	.long	.L286
	.long	.L286
	.long	.L286
	.long	.L286
	.long	.L286
	.long	.L286
	.long	.L286
	.long	.L286
	.long	.L286
	.long	.L282
	.long	.L286
	.long	.L286
	.long	.L286
	.long	.L286
	.long	.L286
	.long	.L286
	.long	.L286
	.long	.L286
	.long	.L286
	.long	.L286
	.long	.L286
	.long	.L286
	.long	.L286
	.long	.L286
	.long	.L286
	.long	.L300
	.section	.boot.text
	.p2align 4,,7
	.p2align 3
.L279:
	movl	%ecx, %ebx
	andl	$16777200, %ebx
	sall	$8, %ebx
.L271:
	movl	%edx, %edi
	movl	%edx, %eax
	andl	$14, %edi
	andl	$15, %eax
	movzbl	%dl, %ecx
	cmpl	$14, %edi
	cmove	%ecx, %eax
	cmpl	$62, %eax
	ja	.L286
	jmp	*.L288(,%eax,4)
	.section	.rodata
	.align 4
	.align 4
.L288:
	.long	.L302
	.long	.L295
	.long	.L294
	.long	.L295
	.long	.L294
	.long	.L295
	.long	.L294
	.long	.L302
	.long	.L302
	.long	.L295
	.long	.L296
	.long	.L302
	.long	.L297
	.long	.L286
	.long	.L302
	.long	.L286
	.long	.L286
	.long	.L286
	.long	.L286
	.long	.L286
	.long	.L286
	.long	.L286
	.long	.L286
	.long	.L286
	.long	.L286
	.long	.L286
	.long	.L286
	.long	.L286
	.long	.L286
	.long	.L286
	.long	.L302
	.long	.L286
	.long	.L286
	.long	.L286
	.long	.L286
	.long	.L286
	.long	.L286
	.long	.L286
	.long	.L286
	.long	.L286
	.long	.L286
	.long	.L286
	.long	.L286
	.long	.L286
	.long	.L286
	.long	.L286
	.long	.L298
	.long	.L286
	.long	.L286
	.long	.L286
	.long	.L286
	.long	.L286
	.long	.L286
	.long	.L286
	.long	.L286
	.long	.L286
	.long	.L286
	.long	.L286
	.long	.L286
	.long	.L286
	.long	.L286
	.long	.L286
	.long	.L302
	.section	.boot.text
	.p2align 4,,7
	.p2align 3
.L295:
	andl	$16777200, %edx
	sall	$8, %edx
.L287:
	movl	%edx, 4(%ebx)
	movl	%ebx, ia32KSASIDTable
	addl	$12, %esp
	.cfi_remember_state
	.cfi_def_cfa_offset 20
	popl	%ebx
	.cfi_restore 3
	.cfi_def_cfa_offset 16
	popl	%esi
	.cfi_restore 6
	.cfi_def_cfa_offset 12
	popl	%edi
	.cfi_restore 7
	.cfi_def_cfa_offset 8
	popl	%ebp
	.cfi_restore 5
	.cfi_def_cfa_offset 4
	ret
	.p2align 4,,7
	.p2align 3
.L278:
	.cfi_restore_state
	movl	%ecx, %ebx
	andl	$-16, %ebx
	jmp	.L271
	.p2align 4,,7
	.p2align 3
.L294:
	andl	$-16, %edx
	jmp	.L287
	.p2align 4,,7
	.p2align 3
.L300:
	xorl	%ebx, %ebx
	jmp	.L271
	.p2align 4,,7
	.p2align 3
.L282:
	andl	$16128, %ecx
	shrl	$8, %ecx
	cmpl	$32, %ecx
	je	.L301
	addl	$1, %ecx
	movl	$-1, %eax
	sall	%cl, %eax
	andl	%eax, %ebx
	jmp	.L271
	.p2align 4,,7
	.p2align 3
.L281:
	movl	%ecx, %ebx
	andl	$-1024, %ebx
	jmp	.L271
	.p2align 4,,7
	.p2align 3
.L280:
	andl	$2147483632, %ecx
	leal	(%ecx,%ecx), %ebx
	jmp	.L271
	.p2align 4,,7
	.p2align 3
.L302:
	xorl	%edx, %edx
	jmp	.L287
	.p2align 4,,7
	.p2align 3
.L296:
	andl	$2147483632, %edx
	addl	%edx, %edx
	jmp	.L287
	.p2align 4,,7
	.p2align 3
.L297:
	andl	$-1024, %edx
	jmp	.L287
	.p2align 4,,7
	.p2align 3
.L298:
	andl	$16128, %edx
	shrl	$8, %edx
	cmpl	$32, %edx
	je	.L303
	leal	1(%edx), %ecx
	movl	$-1, %edx
	sall	%cl, %edx
	andl	%esi, %edx
	jmp	.L287
	.p2align 4,,7
	.p2align 3
.L286:
	call	halt
	.p2align 4,,7
	.p2align 3
.L301:
	movl	$-16, %eax
	andl	%eax, %ebx
	jmp	.L271
	.p2align 4,,7
	.p2align 3
.L303:
	movl	$-16, %edx
	andl	%esi, %edx
	jmp	.L287
	.cfi_endproc
.LFE317:
	.size	write_it_asid_pool, .-write_it_asid_pool
	.p2align 4,,15
	.globl	init_pat_msr
	.type	init_pat_msr, @function
init_pat_msr:
.LFB318:
	.cfi_startproc
	pushl	%ebx
	.cfi_def_cfa_offset 8
	.cfi_offset 3, -8
	subl	$24, %esp
	.cfi_def_cfa_offset 32
	movl	$0, 4(%esp)
	movl	$1, (%esp)
	call	ia32_cpuid_edx
	xorl	%edx, %edx
	testl	$65536, %eax
	je	.L306
	movl	$631, (%esp)
	call	ia32_rdmsr_low
	movl	$631, (%esp)
	movl	%eax, %ebx
	call	ia32_rdmsr_high
	movl	$631, (%esp)
	movl	%eax, %edx
	movl	%ebx, %eax
	andl	$-117901064, %eax
	andl	$-8, %edx
	orl	$1, %edx
	orl	$459782, %eax
	movl	%edx, 4(%esp)
	movl	%eax, 8(%esp)
	call	ia32_wrmsr
	movl	$1, %edx
.L306:
	addl	$24, %esp
	.cfi_def_cfa_offset 8
	movl	%edx, %eax
	popl	%ebx
	.cfi_restore 3
	.cfi_def_cfa_offset 4
	ret
	.cfi_endproc
.LFE318:
	.size	init_pat_msr, .-init_pat_msr
	.text
	.p2align 4,,15
	.globl	lookupIPCBuffer
	.type	lookupIPCBuffer, @function
lookupIPCBuffer:
.LFB323:
	.cfi_startproc
	pushl	%edi
	.cfi_def_cfa_offset 8
	.cfi_offset 7, -8
	pushl	%esi
	.cfi_def_cfa_offset 12
	.cfi_offset 6, -12
	pushl	%ebx
	.cfi_def_cfa_offset 16
	.cfi_offset 3, -16
	movl	20(%esp), %eax
	movl	636(%eax), %ebx
	andl	$-1024, %eax
	movl	64(%eax), %edx
	movl	68(%eax), %edi
	movl	%edx, %esi
	movl	%edx, %eax
	andl	$14, %esi
	andl	$15, %eax
	movzbl	%dl, %ecx
	cmpl	$14, %esi
	cmove	%ecx, %eax
	cmpl	$1, %eax
	jne	.L319
	movl	%edx, %eax
	andl	$50331648, %eax
	shrl	$24, %eax
	cmpl	$3, %eax
	je	.L314
	cmpl	$2, %eax
	jne	.L319
	movl	16(%esp), %eax
	testl	%eax, %eax
	jne	.L319
.L314:
	movl	%edi, %eax
	shrl	$31, %eax
	testl	%eax, %eax
	je	.L316
	cmpl	$1, %eax
	je	.L320
	call	halt
	.p2align 4,,7
	.p2align 3
.L316:
	movl	$4095, %eax
.L317:
	andl	$16777200, %edx
	andl	%eax, %ebx
	sall	$8, %edx
	leal	(%ebx,%edx), %eax
	popl	%ebx
	.cfi_remember_state
	.cfi_restore 3
	.cfi_def_cfa_offset 12
	popl	%esi
	.cfi_restore 6
	.cfi_def_cfa_offset 8
	popl	%edi
	.cfi_restore 7
	.cfi_def_cfa_offset 4
	ret
	.p2align 4,,7
	.p2align 3
.L319:
	.cfi_restore_state
	popl	%ebx
	.cfi_remember_state
	.cfi_restore 3
	.cfi_def_cfa_offset 12
	xorl	%eax, %eax
	popl	%esi
	.cfi_restore 6
	.cfi_def_cfa_offset 8
	popl	%edi
	.cfi_restore 7
	.cfi_def_cfa_offset 4
	ret
	.p2align 4,,7
	.p2align 3
.L320:
	.cfi_restore_state
	movl	$4194303, %eax
	jmp	.L317
	.cfi_endproc
.LFE323:
	.size	lookupIPCBuffer, .-lookupIPCBuffer
	.p2align 4,,15
	.globl	handleFaultReply
	.type	handleFaultReply, @function
handleFaultReply:
.LFB255:
	.cfi_startproc
	pushl	%ebp
	.cfi_def_cfa_offset 8
	.cfi_offset 5, -8
	pushl	%edi
	.cfi_def_cfa_offset 12
	.cfi_offset 7, -12
	pushl	%esi
	.cfi_def_cfa_offset 16
	.cfi_offset 6, -16
	pushl	%ebx
	.cfi_def_cfa_offset 20
	.cfi_offset 3, -20
	subl	$28, %esp
	.cfi_def_cfa_offset 48
	movl	52(%esp), %ebx
	movl	48(%esp), %edi
	movl	16(%ebx), %eax
	movl	%eax, %esi
	andl	$127, %esi
	cmpl	$120, %esi
	jbe	.L332
	andl	$-128, %eax
	movl	$120, %esi
	orl	$120, %eax
.L332:
	shrl	$12, %eax
	movl	%eax, 12(%esp)
	movl	604(%edi), %eax
	andl	$7, %eax
	cmpl	$3, %eax
	je	.L334
	ja	.L335
	cmpl	$1, %eax
	jb	.L333
	addl	$28, %esp
	.cfi_remember_state
	.cfi_def_cfa_offset 20
	movl	$1, %eax
	popl	%ebx
	.cfi_restore 3
	.cfi_def_cfa_offset 16
	popl	%esi
	.cfi_restore 6
	.cfi_def_cfa_offset 12
	popl	%edi
	.cfi_restore 7
	.cfi_def_cfa_offset 8
	popl	%ebp
	.cfi_restore 5
	.cfi_def_cfa_offset 4
	ret
	.p2align 4,,7
	.p2align 3
.L335:
	.cfi_restore_state
	cmpl	$4, %eax
	jne	.L333
	movl	%ebx, 4(%esp)
	movl	$0, (%esp)
	call	lookupIPCBuffer
	xorl	%edx, %edx
	testl	%esi, %esi
	je	.L345
	movl	20(%ebx), %edx
	cmpl	$1, %esi
	movl	%edx, 44(%edi)
	movl	$1, %edx
	jbe	.L345
	movl	24(%ebx), %edx
	movl	%edx, 68(%edi)
	movl	$2, %edx
.L345:
	testl	%eax, %eax
	je	.L348
.L347:
	cmpl	%esi, %edx
	jae	.L348
	movl	exceptionMessage(,%edx,4), %ebx
	addl	$1, %edx
	movl	(%eax,%edx,4), %ecx
	cmpl	$16, %ebx
	je	.L376
	leal	-9(%ebx), %ebp
	cmpl	$1, %ebp
	ja	.L350
	movl	%ecx, %ebp
	andl	$-9, %ebp
	cmpl	$51, %ebp
	movl	$0, %ebp
	cmovne	%ebp, %ecx
.L350:
	cmpl	$2, %edx
	movl	%ecx, (%edi,%ebx,4)
	jbe	.L347
.L348:
	movl	12(%esp), %edx
	xorl	%eax, %eax
	testl	%edx, %edx
	sete	%al
	addl	$28, %esp
	.cfi_remember_state
	.cfi_def_cfa_offset 20
	popl	%ebx
	.cfi_restore 3
	.cfi_def_cfa_offset 16
	popl	%esi
	.cfi_restore 6
	.cfi_def_cfa_offset 12
	popl	%edi
	.cfi_restore 7
	.cfi_def_cfa_offset 8
	popl	%ebp
	.cfi_restore 5
	.cfi_def_cfa_offset 4
	ret
	.p2align 4,,7
	.p2align 3
.L334:
	.cfi_restore_state
	movl	%ebx, 4(%esp)
	movl	$0, (%esp)
	call	lookupIPCBuffer
	xorl	%edx, %edx
	testl	%esi, %esi
	je	.L338
	movl	20(%ebx), %edx
	cmpl	$1, %esi
	movl	%edx, (%edi)
	movl	$1, %edx
	jbe	.L338
	movl	24(%ebx), %edx
	movl	%edx, 4(%edi)
	movl	$2, %edx
.L338:
	testl	%eax, %eax
	jne	.L340
	jmp	.L341
	.p2align 4,,7
	.p2align 3
.L342:
	leal	-9(%ebx), %ebp
	cmpl	$1, %ebp
	ja	.L343
	movl	%ecx, %ebp
	andl	$-9, %ebp
	cmpl	$51, %ebp
	movl	$0, %ebp
	cmovne	%ebp, %ecx
.L343:
	cmpl	$9, %edx
	movl	%ecx, (%edi,%ebx,4)
	ja	.L341
.L340:
	cmpl	%esi, %edx
	jae	.L341
	movl	syscallMessage(,%edx,4), %ebx
	addl	$1, %edx
	movl	(%eax,%edx,4), %ecx
	cmpl	$16, %ebx
	jne	.L342
	andl	$4055, %ecx
	orl	$514, %ecx
	cmpl	$9, %edx
	movl	%ecx, (%edi,%ebx,4)
	jbe	.L340
	.p2align 4,,7
	.p2align 3
.L341:
	movl	56(%edi), %eax
	movl	12(%esp), %ecx
	movl	%eax, 44(%edi)
	xorl	%eax, %eax
	testl	%ecx, %ecx
	sete	%al
	addl	$28, %esp
	.cfi_remember_state
	.cfi_def_cfa_offset 20
	popl	%ebx
	.cfi_restore 3
	.cfi_def_cfa_offset 16
	popl	%esi
	.cfi_restore 6
	.cfi_def_cfa_offset 12
	popl	%edi
	.cfi_restore 7
	.cfi_def_cfa_offset 8
	popl	%ebp
	.cfi_restore 5
	.cfi_def_cfa_offset 4
	ret
	.p2align 4,,7
	.p2align 3
.L333:
	.cfi_restore_state
	call	halt
	.p2align 4,,7
	.p2align 3
.L376:
	andl	$4055, %ecx
	orl	$514, %ecx
	cmpl	$2, %edx
	movl	%ecx, (%edi,%ebx,4)
	jbe	.L347
	jmp	.L348
	.cfi_endproc
.LFE255:
	.size	handleFaultReply, .-handleFaultReply
	.p2align 4,,15
	.globl	handleVMFault
	.type	handleVMFault, @function
handleVMFault:
.LFB326:
	.cfi_startproc
	pushl	%ebx
	.cfi_def_cfa_offset 8
	.cfi_offset 3, -8
	subl	$8, %esp
	.cfi_def_cfa_offset 16
	movl	20(%esp), %ebx
	call	getFaultAddr
	movl	16(%esp), %edx
	testl	%ebx, %ebx
	movl	52(%edx), %edx
	je	.L379
	cmpl	$1, %ebx
	jne	.L384
	sall	$27, %edx
	orl	$524290, %edx
	movl	%eax, current_fault+4
	movl	$1, %eax
	movl	%edx, current_fault
	addl	$8, %esp
	.cfi_remember_state
	.cfi_def_cfa_offset 8
	popl	%ebx
	.cfi_restore 3
	.cfi_def_cfa_offset 4
	ret
	.p2align 4,,7
	.p2align 3
.L384:
	.cfi_restore_state
	call	halt
	.p2align 4,,7
	.p2align 3
.L379:
	sall	$27, %edx
	orl	$2, %edx
	movl	%eax, current_fault+4
	movl	$1, %eax
	movl	%edx, current_fault
	addl	$8, %esp
	.cfi_def_cfa_offset 8
	popl	%ebx
	.cfi_restore 3
	.cfi_def_cfa_offset 4
	ret
	.cfi_endproc
.LFE326:
	.size	handleVMFault, .-handleVMFault
	.p2align 4,,15
	.globl	isValidVTableRoot
	.type	isValidVTableRoot, @function
isValidVTableRoot:
.LFB327:
	.cfi_startproc
	pushl	%ebx
	.cfi_def_cfa_offset 8
	.cfi_offset 3, -8
	movl	8(%esp), %eax
	movl	12(%esp), %ebx
	movl	%eax, %ecx
	movl	%eax, %edx
	andl	$14, %ecx
	andl	$15, %edx
	movzbl	%al, %eax
	cmpl	$14, %ecx
	cmove	%eax, %edx
	xorl	%eax, %eax
	cmpl	$5, %edx
	je	.L391
	popl	%ebx
	.cfi_remember_state
	.cfi_restore 3
	.cfi_def_cfa_offset 4
	ret
	.p2align 4,,7
	.p2align 3
.L391:
	.cfi_restore_state
	xorl	%eax, %eax
	andl	$65536, %ebx
	setne	%al
	popl	%ebx
	.cfi_restore 3
	.cfi_def_cfa_offset 4
	ret
	.cfi_endproc
.LFE327:
	.size	isValidVTableRoot, .-isValidVTableRoot
	.p2align 4,,15
	.globl	checkValidIPCBuffer
	.type	checkValidIPCBuffer, @function
checkValidIPCBuffer:
.LFB328:
	.cfi_startproc
	movl	8(%esp), %edx
	movl	%edx, %ecx
	movl	%edx, %eax
	andl	$14, %ecx
	andl	$15, %eax
	movzbl	%dl, %edx
	cmpl	$14, %ecx
	cmove	%edx, %eax
	cmpl	$1, %eax
	je	.L395
	movl	$3, current_syscall_error+24
	movl	$3, %eax
	ret
	.p2align 4,,7
	.p2align 3
.L395:
	xorl	%eax, %eax
	testl	$511, 4(%esp)
	je	.L396
	movl	$5, current_syscall_error+24
	movb	$3, %al
.L396:
	rep ret
	.cfi_endproc
.LFE328:
	.size	checkValidIPCBuffer, .-checkValidIPCBuffer
	.p2align 4,,15
	.globl	maskVMRights
	.type	maskVMRights, @function
maskVMRights:
.LFB329:
	.cfi_startproc
	movl	4(%esp), %edx
	cmpl	$2, %edx
	je	.L408
	cmpl	$3, %edx
	movl	$1, %eax
	je	.L409
.L402:
	rep ret
	.p2align 4,,7
	.p2align 3
.L409:
	testb	$2, 8(%esp)
	je	.L402
	movl	8(%esp), %eax
	andl	$1, %eax
	cmpl	$1, %eax
	sbbl	%eax, %eax
	addl	$3, %eax
	ret
	.p2align 4,,7
	.p2align 3
.L408:
	movl	8(%esp), %eax
	andl	$2, %eax
	shrl	%eax
	cmpl	$1, %eax
	sbbl	%eax, %eax
	addl	$2, %eax
	ret
	.cfi_endproc
.LFE329:
	.size	maskVMRights, .-maskVMRights
	.p2align 4,,15
	.globl	setVMRoot
	.type	setVMRoot, @function
setVMRoot:
.LFB332:
	.cfi_startproc
	pushl	%esi
	.cfi_def_cfa_offset 8
	.cfi_offset 6, -8
	pushl	%ebx
	.cfi_def_cfa_offset 12
	.cfi_offset 3, -12
	subl	$12, %esp
	.cfi_def_cfa_offset 24
	movl	24(%esp), %eax
	andl	$-1024, %eax
	movl	16(%eax), %ebx
	movl	20(%eax), %esi
	movl	%ebx, %edx
	movl	%ebx, %eax
	andl	$14, %edx
	andl	$15, %eax
	movzbl	%bl, %ecx
	cmpl	$14, %edx
	cmove	%ecx, %eax
	cmpl	$5, %eax
	je	.L421
.L416:
	movl	ia32KSkernelPD, %eax
	addl	$536870912, %eax
	movl	%eax, ia32KSCurrentPD
#APP
# 35 "./include/arch/ia32/arch/machine/cpu_registers.h" 1
	movl %eax, %cr3
# 0 "" 2
#NO_APP
.L410:
	addl	$12, %esp
	.cfi_remember_state
	.cfi_def_cfa_offset 12
	popl	%ebx
	.cfi_restore 3
	.cfi_def_cfa_offset 8
	popl	%esi
	.cfi_restore 6
	.cfi_def_cfa_offset 4
	ret
	.p2align 4,,7
	.p2align 3
.L421:
	.cfi_restore_state
	testl	$65536, %esi
	je	.L416
	movzwl	%si, %edx
	movl	%esp, %eax
	call	findPDForASID
	movl	(%esp), %edx
	movl	4(%esp), %eax
	testl	%edx, %edx
	jne	.L416
	andl	$16777200, %ebx
	sall	$8, %ebx
	cmpl	%eax, %ebx
	jne	.L416
	addl	$536870912, %ebx
	cmpl	%ebx, ia32KSCurrentPD
	je	.L410
	movl	%ebx, ia32KSCurrentPD
#APP
# 35 "./include/arch/ia32/arch/machine/cpu_registers.h" 1
	movl %ebx, %cr3
# 0 "" 2
#NO_APP
	jmp	.L410
	.cfi_endproc
.LFE332:
	.size	setVMRoot, .-setVMRoot
	.p2align 4,,15
	.globl	Arch_switchToThread
	.type	Arch_switchToThread, @function
Arch_switchToThread:
.LFB301:
	.cfi_startproc
	pushl	%ebx
	.cfi_def_cfa_offset 8
	.cfi_offset 3, -8
	subl	$8, %esp
	.cfi_def_cfa_offset 16
	movl	16(%esp), %ebx
	movl	%ebx, (%esp)
	call	setVMRoot
	movl	48(%ebx), %edx
	movl	ia32KSgdt+52, %eax
	movl	%edx, %ecx
	shrl	$16, %ecx
	andl	$16776960, %eax
	movzbl	%cl, %ecx
	movw	%dx, ia32KSgdt+50
	orl	%ecx, %eax
	andl	$-16777216, %edx
	orl	%edx, %eax
	movl	636(%ebx), %edx
	movl	%eax, ia32KSgdt+52
	movl	ia32KSgdt+60, %eax
	movl	%edx, %ecx
	shrl	$16, %ecx
	andl	$16776960, %eax
	movzbl	%cl, %ecx
	movw	%dx, ia32KSgdt+58
	orl	%ecx, %eax
	andl	$-16777216, %edx
	orl	%edx, %eax
	movl	%eax, ia32KSgdt+60
	addl	$8, %esp
	.cfi_def_cfa_offset 8
	popl	%ebx
	.cfi_restore 3
	.cfi_def_cfa_offset 4
	ret
	.cfi_endproc
.LFE301:
	.size	Arch_switchToThread, .-Arch_switchToThread
	.p2align 4,,15
	.globl	deleteASIDPool
	.type	deleteASIDPool, @function
deleteASIDPool:
.LFB333:
	.cfi_startproc
	movl	4(%esp), %eax
	movl	8(%esp), %edx
	shrl	$10, %eax
	cmpl	%edx, ia32KSASIDTable(,%eax,4)
	je	.L426
	rep ret
	.p2align 4,,7
	.p2align 3
.L426:
	movl	$0, ia32KSASIDTable(,%eax,4)
	movl	ksCurThread, %eax
	movl	%eax, 4(%esp)
	jmp	setVMRoot
	.cfi_endproc
.LFE333:
	.size	deleteASIDPool, .-deleteASIDPool
	.p2align 4,,15
	.globl	deleteASID
	.type	deleteASID, @function
deleteASID:
.LFB334:
	.cfi_startproc
	movl	4(%esp), %edx
	movl	8(%esp), %ecx
	movl	%edx, %eax
	shrl	$10, %eax
	movl	ia32KSASIDTable(,%eax,4), %eax
	testl	%eax, %eax
	je	.L427
	andl	$1023, %edx
	leal	(%eax,%edx,4), %eax
	cmpl	%ecx, (%eax)
	je	.L432
.L427:
	rep ret
	.p2align 4,,7
	.p2align 3
.L432:
	movl	$0, (%eax)
	movl	ksCurThread, %eax
	movl	%eax, 4(%esp)
	jmp	setVMRoot
	.cfi_endproc
.LFE334:
	.size	deleteASID, .-deleteASID
	.p2align 4,,15
	.globl	unmapPageTable
	.type	unmapPageTable, @function
unmapPageTable:
.LFB335:
	.cfi_startproc
	pushl	%ebp
	.cfi_def_cfa_offset 8
	.cfi_offset 5, -8
	pushl	%edi
	.cfi_def_cfa_offset 12
	.cfi_offset 7, -12
	pushl	%esi
	.cfi_def_cfa_offset 16
	.cfi_offset 6, -16
	pushl	%ebx
	.cfi_def_cfa_offset 20
	.cfi_offset 3, -20
	subl	$44, %esp
	.cfi_def_cfa_offset 64
	movl	64(%esp), %edx
	leal	24(%esp), %eax
	movl	68(%esp), %esi
	movl	72(%esp), %ebx
	call	findPDForASID
	movl	24(%esp), %edx
	movl	28(%esp), %eax
	testl	%edx, %edx
	je	.L451
	addl	$44, %esp
	.cfi_remember_state
	.cfi_def_cfa_offset 20
	popl	%ebx
	.cfi_restore 3
	.cfi_def_cfa_offset 16
	popl	%esi
	.cfi_restore 6
	.cfi_def_cfa_offset 12
	popl	%edi
	.cfi_restore 7
	.cfi_def_cfa_offset 8
	popl	%ebp
	.cfi_restore 5
	.cfi_def_cfa_offset 4
	ret
	.p2align 4,,7
	.p2align 3
.L451:
	.cfi_restore_state
	movl	ksCurThread, %ecx
	movl	%esi, %edx
	shrl	$22, %edx
	leal	(%eax,%edx,4), %ebp
	andl	$-1024, %ecx
	movl	16(%ecx), %edx
	movl	20(%ecx), %ecx
	movzbl	%dl, %edi
	movl	%ecx, 20(%esp)
	movl	%edx, %ecx
	andl	$14, %ecx
	movl	%ecx, 16(%esp)
	movl	%edx, %ecx
	andl	$15, %ecx
	cmpl	$14, 16(%esp)
	cmove	%edi, %ecx
	cmpl	$5, %ecx
	je	.L437
.L438:
	movl	$0, 0(%ebp)
	addl	$44, %esp
	.cfi_remember_state
	.cfi_def_cfa_offset 20
	popl	%ebx
	.cfi_restore 3
	.cfi_def_cfa_offset 16
	popl	%esi
	.cfi_restore 6
	.cfi_def_cfa_offset 12
	popl	%edi
	.cfi_restore 7
	.cfi_def_cfa_offset 8
	popl	%ebp
	.cfi_restore 5
	.cfi_def_cfa_offset 4
	jmp	invalidatePageStructureCache
	.p2align 4,,7
	.p2align 3
.L437:
	.cfi_restore_state
	testl	$65536, 20(%esp)
	je	.L438
	andl	$16777200, %edx
	sall	$8, %edx
	cmpl	%edx, %eax
	jne	.L438
	xorl	%edi, %edi
	jmp	.L440
	.p2align 4,,7
	.p2align 3
.L439:
	addl	$1, %edi
	cmpl	$1024, %edi
	je	.L438
.L440:
	testb	$1, (%ebx,%edi,4)
	je	.L439
	movl	%edi, %eax
	sall	$12, %eax
	addl	%esi, %eax
	movl	%eax, (%esp)
	call	invalidateTLBentry
	jmp	.L439
	.cfi_endproc
.LFE335:
	.size	unmapPageTable, .-unmapPageTable
	.p2align 4,,15
	.globl	unmapPage
	.type	unmapPage, @function
unmapPage:
.LFB336:
	.cfi_startproc
	pushl	%ebp
	.cfi_def_cfa_offset 8
	.cfi_offset 5, -8
	pushl	%edi
	.cfi_def_cfa_offset 12
	.cfi_offset 7, -12
	pushl	%esi
	.cfi_def_cfa_offset 16
	.cfi_offset 6, -16
	pushl	%ebx
	.cfi_def_cfa_offset 20
	.cfi_offset 3, -20
	subl	$44, %esp
	.cfi_def_cfa_offset 64
	movl	68(%esp), %edx
	leal	24(%esp), %eax
	movl	64(%esp), %esi
	movl	72(%esp), %edi
	movl	76(%esp), %ebp
	call	findPDForASID
	movl	24(%esp), %ecx
	movl	28(%esp), %edx
	testl	%ecx, %ecx
	jne	.L452
	movl	ksCurThread, %ecx
	andl	$-1024, %ecx
	movl	16(%ecx), %eax
	movl	20(%ecx), %ecx
	movl	%eax, %ebx
	andl	$14, %ebx
	movl	%ebx, 8(%esp)
	movl	%eax, %ebx
	andl	$15, %ebx
	cmpl	$14, 8(%esp)
	movl	%ecx, 12(%esp)
	movzbl	%al, %ecx
	cmove	%ecx, %ebx
	cmpl	$5, %ebx
	je	.L472
.L456:
	testl	%esi, %esi
	je	.L458
	cmpl	$1, %esi
	jne	.L473
	shrl	$22, %edi
	leal	(%edx,%edi,4), %edx
	movl	(%edx), %eax
	testb	$-128, %al
	jne	.L474
	.p2align 4,,7
	.p2align 3
.L452:
	addl	$44, %esp
	.cfi_remember_state
	.cfi_def_cfa_offset 20
	popl	%ebx
	.cfi_restore 3
	.cfi_def_cfa_offset 16
	popl	%esi
	.cfi_restore 6
	.cfi_def_cfa_offset 12
	popl	%edi
	.cfi_restore 7
	.cfi_def_cfa_offset 8
	popl	%ebp
	.cfi_restore 5
	.cfi_def_cfa_offset 4
	ret
	.p2align 4,,7
	.p2align 3
.L473:
	.cfi_restore_state
	call	halt
	.p2align 4,,7
	.p2align 3
.L458:
	leal	16(%esp), %eax
	movl	%edi, %ecx
	call	lookupPTSlot
	movl	16(%esp), %edx
	movl	20(%esp), %eax
	testl	%edx, %edx
	jne	.L452
	movl	(%eax), %edx
	testb	$1, %dl
	je	.L452
	andl	$-4096, %edx
	leal	536870912(%ebp), %ecx
	cmpl	%ecx, %edx
	jne	.L452
	movl	$0, (%eax)
	jmp	.L460
	.p2align 4,,7
	.p2align 3
.L472:
	testl	$65536, 12(%esp)
	je	.L456
	andl	$16777200, %eax
	sall	$8, %eax
	cmpl	%eax, %edx
	jne	.L456
	movl	%edi, (%esp)
	movl	%edx, 8(%esp)
	call	invalidateTLBentry
	movl	8(%esp), %edx
	jmp	.L456
	.p2align 4,,7
	.p2align 3
.L474:
	testb	$1, %al
	je	.L452
	andl	$-4194304, %eax
	leal	536870912(%ebp), %ecx
	cmpl	%ecx, %eax
	jne	.L452
	movl	$128, (%edx)
.L460:
	addl	$44, %esp
	.cfi_def_cfa_offset 20
	popl	%ebx
	.cfi_restore 3
	.cfi_def_cfa_offset 16
	popl	%esi
	.cfi_restore 6
	.cfi_def_cfa_offset 12
	popl	%edi
	.cfi_restore 7
	.cfi_def_cfa_offset 8
	popl	%ebp
	.cfi_restore 5
	.cfi_def_cfa_offset 4
	jmp	invalidatePageStructureCache
	.cfi_endproc
.LFE336:
	.size	unmapPage, .-unmapPage
	.p2align 4,,15
	.globl	copyGlobalMappings
	.type	copyGlobalMappings, @function
copyGlobalMappings:
.LFB337:
	.cfi_startproc
	pushl	%ebx
	.cfi_def_cfa_offset 8
	.cfi_offset 3, -8
	movl	ia32KSkernelPD, %ecx
	movl	$896, %eax
	movl	8(%esp), %ebx
	.p2align 4,,7
	.p2align 3
.L477:
	movl	(%ecx,%eax,4), %edx
	movl	%edx, (%ebx,%eax,4)
	addl	$1, %eax
	cmpl	$1024, %eax
	jne	.L477
	popl	%ebx
	.cfi_restore 3
	.cfi_def_cfa_offset 4
	ret
	.cfi_endproc
.LFE337:
	.size	copyGlobalMappings, .-copyGlobalMappings
	.p2align 4,,15
	.globl	Arch_initFpuContext
	.type	Arch_initFpuContext, @function
Arch_initFpuContext:
.LFB345:
	.cfi_startproc
	pushl	%edi
	.cfi_def_cfa_offset 8
	.cfi_offset 7, -8
	movl	$128, %ecx
	pushl	%esi
	.cfi_def_cfa_offset 12
	.cfi_offset 6, -12
	movl	12(%esp), %eax
	movl	$ia32KSnullFpuState, %esi
	leal	80(%eax), %edi
	rep movsl
	popl	%esi
	.cfi_restore 6
	.cfi_def_cfa_offset 8
	popl	%edi
	.cfi_restore 7
	.cfi_def_cfa_offset 4
	ret
	.cfi_endproc
.LFE345:
	.size	Arch_initFpuContext, .-Arch_initFpuContext
	.p2align 4,,15
	.globl	handleUnimplementedDevice
	.type	handleUnimplementedDevice, @function
handleUnimplementedDevice:
.LFB347:
	.cfi_startproc
	subl	$12, %esp
	.cfi_def_cfa_offset 16
	movl	ksCurThread, %eax
	call	switchFpuOwner
	xorl	%eax, %eax
	addl	$12, %esp
	.cfi_def_cfa_offset 4
	ret
	.cfi_endproc
.LFE347:
	.size	handleUnimplementedDevice, .-handleUnimplementedDevice
	.p2align 4,,15
	.globl	Arch_fpuThreadDelete
	.type	Arch_fpuThreadDelete, @function
Arch_fpuThreadDelete:
.LFB348:
	.cfi_startproc
	movl	4(%esp), %eax
	cmpl	%eax, ia32KSfpuOwner
	je	.L485
	rep ret
	.p2align 4,,7
	.p2align 3
.L485:
	xorl	%eax, %eax
	jmp	switchFpuOwner
	.cfi_endproc
.LFE348:
	.size	Arch_fpuThreadDelete, .-Arch_fpuThreadDelete
	.section	.boot.text
	.p2align 4,,15
	.globl	Arch_initFpu
	.type	Arch_initFpu, @function
Arch_initFpu:
.LFB349:
	.cfi_startproc
	subl	$28, %esp
	.cfi_def_cfa_offset 32
	call	read_cr4
	orb	$2, %ah
	movl	%eax, (%esp)
	call	write_cr4
#APP
# 41 "./include/arch/ia32/arch/machine/cpu_registers.h" 1
	movl %cr0, %eax
# 0 "" 2
#NO_APP
	andl	$-47, %eax
	orl	$42, %eax
#APP
# 47 "./include/arch/ia32/arch/machine/cpu_registers.h" 1
	movl %eax, %cr0
# 0 "" 2
#NO_APP
	addl	$28, %esp
	.cfi_def_cfa_offset 4
	ret
	.cfi_endproc
.LFE349:
	.size	Arch_initFpu, .-Arch_initFpu
	.p2align 4,,15
	.globl	init_sysenter_msrs
	.type	init_sysenter_msrs, @function
init_sysenter_msrs:
.LFB350:
	.cfi_startproc
	subl	$28, %esp
	.cfi_def_cfa_offset 32
	movl	$8, 8(%esp)
	movl	$0, 4(%esp)
	movl	$372, (%esp)
	call	ia32_wrmsr
	movl	$handle_syscall, 8(%esp)
	movl	$0, 4(%esp)
	movl	$374, (%esp)
	call	ia32_wrmsr
	movl	$ia32KStss+4, 8(%esp)
	movl	$0, 4(%esp)
	movl	$373, (%esp)
	call	ia32_wrmsr
	addl	$28, %esp
	.cfi_def_cfa_offset 4
	ret
	.cfi_endproc
.LFE350:
	.size	init_sysenter_msrs, .-init_sysenter_msrs
	.p2align 4,,15
	.globl	init_node_cpu
	.type	init_node_cpu, @function
init_node_cpu:
.LFB282:
	.cfi_startproc
	subl	$28, %esp
	.cfi_def_cfa_offset 32
	call	init_dtrs
	call	init_sysenter_msrs
	call	init_pat_msr
	xorl	%edx, %edx
	testl	%eax, %eax
	je	.L491
	call	Arch_initFpu
	movl	36(%esp), %eax
	movl	%eax, 4(%esp)
	movl	32(%esp), %eax
	movl	%eax, (%esp)
	call	apic_init
	xorl	%edx, %edx
	testl	%eax, %eax
	setne	%dl
.L491:
	movl	%edx, %eax
	addl	$28, %esp
	.cfi_def_cfa_offset 4
	ret
	.cfi_endproc
.LFE282:
	.size	init_node_cpu, .-init_node_cpu
	.text
	.p2align 4,,15
	.globl	getRestartPC
	.type	getRestartPC, @function
getRestartPC:
.LFB351:
	.cfi_startproc
	movl	4(%esp), %eax
	movl	44(%eax), %eax
	ret
	.cfi_endproc
.LFE351:
	.size	getRestartPC, .-getRestartPC
	.p2align 4,,15
	.globl	setNextPC
	.type	setNextPC, @function
setNextPC:
.LFB352:
	.cfi_startproc
	movl	8(%esp), %edx
	movl	4(%esp), %eax
	movl	%edx, 56(%eax)
	ret
	.cfi_endproc
.LFE352:
	.size	setNextPC, .-setNextPC
	.section	.boot.text
	.p2align 4,,15
	.globl	getCacheLineSizeBits
	.type	getCacheLineSizeBits, @function
getCacheLineSizeBits:
.LFB353:
	.cfi_startproc
	subl	$12, %esp
	.cfi_def_cfa_offset 16
	call	getCacheLineSize
	movl	%eax, %edx
	xorl	%eax, %eax
	testl	%edx, %edx
	je	.L498
	xorl	%ecx, %ecx
	testb	$1, %dl
	jne	.L499
	.p2align 4,,7
	.p2align 3
.L500:
	shrl	%edx
	addl	$1, %ecx
	testb	$1, %dl
	je	.L500
.L499:
	xorl	%eax, %eax
	cmpl	$1, %edx
	cmove	%ecx, %eax
.L498:
	addl	$12, %esp
	.cfi_def_cfa_offset 4
	ret
	.cfi_endproc
.LFE353:
	.size	getCacheLineSizeBits, .-getCacheLineSizeBits
	.p2align 4,,15
	.globl	init_vm_state
	.type	init_vm_state, @function
init_vm_state:
.LFB313:
	.cfi_startproc
	subl	$12, %esp
	.cfi_def_cfa_offset 16
	call	getCacheLineSizeBits
	movl	%eax, %edx
	movl	%eax, ia32KScacheLineSizeBits
	xorl	%eax, %eax
	testl	%edx, %edx
	je	.L507
	movl	16(%esp), %eax
	movl	$ia32KStss, %edx
	movl	$0, ia32KStss
	movl	$0, ia32KStss+4
	movl	$0, ia32KStss+12
	movl	%eax, ia32KSkernelPD
	movl	20(%esp), %eax
	movl	$0, ia32KStss+16
	movl	$0, ia32KStss+20
	movl	$0, ia32KStss+24
	movl	%eax, ia32KSkernelPT
	movl	%edx, %eax
	sall	$16, %eax
	orl	$103, %eax
	movl	$0, ia32KStss+28
	movl	$0, ia32KStss+32
	movl	$0, ia32KStss+36
	movl	$0, ia32KStss+40
	movl	$0, ia32KStss+44
	movl	$0, ia32KStss+48
	movl	$0, ia32KStss+52
	movl	$0, ia32KStss+56
	movl	$0, ia32KStss+60
	movl	$0, ia32KStss+64
	movl	$0, ia32KStss+68
	movl	$0, ia32KStss+72
	movl	$0, ia32KStss+76
	movl	$0, ia32KStss+80
	movl	$0, ia32KStss+84
	movl	$0, ia32KStss+88
	movl	$0, ia32KStss+92
	movl	$0, ia32KStss+96
	movl	$0, ia32KStss+100
	movl	$16, ia32KStss+8
	movl	$0, ia32KSgdt
	movl	$0, ia32KSgdt+4
	movl	$65535, ia32KSgdt+8
	movl	$13605632, ia32KSgdt+12
	movl	%eax, ia32KSgdt+40
	movl	%edx, %eax
	shrl	$16, %edx
	andl	$-16777216, %eax
	movzbl	%dl, %edx
	orl	%edx, %eax
	orb	$137, %ah
	movl	%eax, ia32KSgdt+44
	movl	$int_00, %eax
	movzwl	%ax, %edx
	xorw	%ax, %ax
	orb	$142, %ah
	orl	$524288, %edx
	movl	%eax, ia32KSidt+4
	movl	$int_01, %eax
	movl	%edx, ia32KSidt
	movzwl	%ax, %edx
	xorw	%ax, %ax
	orb	$142, %ah
	orl	$524288, %edx
	movl	%eax, ia32KSidt+12
	movl	$int_02, %eax
	movl	%edx, ia32KSidt+8
	movzwl	%ax, %edx
	xorw	%ax, %ax
	orb	$142, %ah
	orl	$524288, %edx
	movl	%eax, ia32KSidt+20
	movl	$int_03, %eax
	movl	%edx, ia32KSidt+16
	movzwl	%ax, %edx
	xorw	%ax, %ax
	orb	$142, %ah
	orl	$524288, %edx
	movl	%eax, ia32KSidt+28
	movl	$int_04, %eax
	movl	%edx, ia32KSidt+24
	movzwl	%ax, %edx
	xorw	%ax, %ax
	orb	$142, %ah
	orl	$524288, %edx
	movl	%eax, ia32KSidt+36
	movl	$int_05, %eax
	movl	%edx, ia32KSidt+32
	movzwl	%ax, %edx
	xorw	%ax, %ax
	orb	$142, %ah
	orl	$524288, %edx
	movl	%eax, ia32KSidt+44
	movl	$int_06, %eax
	movl	%edx, ia32KSidt+40
	movzwl	%ax, %edx
	xorw	%ax, %ax
	orb	$142, %ah
	orl	$524288, %edx
	movl	%eax, ia32KSidt+52
	movl	$int_07, %eax
	movl	%edx, ia32KSidt+48
	movzwl	%ax, %edx
	xorw	%ax, %ax
	orb	$142, %ah
	orl	$524288, %edx
	movl	%eax, ia32KSidt+60
	movl	$int_08, %eax
	movl	%edx, ia32KSidt+56
	movzwl	%ax, %edx
	xorw	%ax, %ax
	orb	$142, %ah
	orl	$524288, %edx
	movl	%eax, ia32KSidt+68
	movl	$int_09, %eax
	movl	%edx, ia32KSidt+64
	movzwl	%ax, %edx
	orl	$524288, %edx
	xorw	%ax, %ax
	orb	$142, %ah
	movl	%eax, ia32KSidt+76
	movl	$int_0a, %eax
	movl	%edx, ia32KSidt+72
	movzwl	%ax, %edx
	xorw	%ax, %ax
	orl	$524288, %edx
	orb	$142, %ah
	movl	%edx, ia32KSidt+80
	movl	$65535, ia32KSgdt+16
	movl	$13603584, ia32KSgdt+20
	movl	$65535, ia32KSgdt+24
	movl	$13630208, ia32KSgdt+28
	movl	$65535, ia32KSgdt+32
	movl	$13628160, ia32KSgdt+36
	movl	$65535, ia32KSgdt+48
	movl	$13628160, ia32KSgdt+52
	movl	$65535, ia32KSgdt+56
	movl	$13628160, ia32KSgdt+60
	movl	%eax, ia32KSidt+84
	movl	$int_0b, %eax
	movzwl	%ax, %edx
	xorw	%ax, %ax
	orb	$142, %ah
	orl	$524288, %edx
	movl	%eax, ia32KSidt+92
	movl	$int_0c, %eax
	movl	%edx, ia32KSidt+88
	movzwl	%ax, %edx
	xorw	%ax, %ax
	orb	$142, %ah
	orl	$524288, %edx
	movl	%eax, ia32KSidt+100
	movl	$int_0d, %eax
	movl	%edx, ia32KSidt+96
	movzwl	%ax, %edx
	xorw	%ax, %ax
	orb	$142, %ah
	orl	$524288, %edx
	movl	%eax, ia32KSidt+108
	movl	$int_0e, %eax
	movl	%edx, ia32KSidt+104
	movzwl	%ax, %edx
	xorw	%ax, %ax
	orb	$142, %ah
	orl	$524288, %edx
	movl	%eax, ia32KSidt+116
	movl	$int_0f, %eax
	movl	%edx, ia32KSidt+112
	movzwl	%ax, %edx
	xorw	%ax, %ax
	orb	$142, %ah
	orl	$524288, %edx
	movl	%eax, ia32KSidt+124
	movl	$int_10, %eax
	movl	%edx, ia32KSidt+120
	movzwl	%ax, %edx
	xorw	%ax, %ax
	orb	$142, %ah
	orl	$524288, %edx
	movl	%eax, ia32KSidt+132
	movl	$int_11, %eax
	movl	%edx, ia32KSidt+128
	movzwl	%ax, %edx
	xorw	%ax, %ax
	orb	$142, %ah
	orl	$524288, %edx
	movl	%eax, ia32KSidt+140
	movl	$int_12, %eax
	movl	%edx, ia32KSidt+136
	movzwl	%ax, %edx
	xorw	%ax, %ax
	orb	$142, %ah
	orl	$524288, %edx
	movl	%eax, ia32KSidt+148
	movl	$int_13, %eax
	movl	%edx, ia32KSidt+144
	movzwl	%ax, %edx
	xorw	%ax, %ax
	orb	$142, %ah
	orl	$524288, %edx
	movl	%eax, ia32KSidt+156
	movl	$int_14, %eax
	movl	%edx, ia32KSidt+152
	movzwl	%ax, %edx
	orl	$524288, %edx
	xorw	%ax, %ax
	orb	$142, %ah
	movl	%eax, ia32KSidt+164
	movl	$int_15, %eax
	movl	%edx, ia32KSidt+160
	movzwl	%ax, %edx
	xorw	%ax, %ax
	orb	$142, %ah
	orl	$524288, %edx
	movl	%eax, ia32KSidt+172
	movl	$int_16, %eax
	movl	%edx, ia32KSidt+168
	movzwl	%ax, %edx
	xorw	%ax, %ax
	orb	$142, %ah
	orl	$524288, %edx
	movl	%eax, ia32KSidt+180
	movl	$int_17, %eax
	movl	%edx, ia32KSidt+176
	movzwl	%ax, %edx
	xorw	%ax, %ax
	orb	$142, %ah
	orl	$524288, %edx
	movl	%eax, ia32KSidt+188
	movl	$int_18, %eax
	movl	%edx, ia32KSidt+184
	movzwl	%ax, %edx
	xorw	%ax, %ax
	orb	$142, %ah
	orl	$524288, %edx
	movl	%eax, ia32KSidt+196
	movl	$int_19, %eax
	movl	%edx, ia32KSidt+192
	movzwl	%ax, %edx
	xorw	%ax, %ax
	orb	$142, %ah
	orl	$524288, %edx
	movl	%eax, ia32KSidt+204
	movl	$int_1a, %eax
	movl	%edx, ia32KSidt+200
	movzwl	%ax, %edx
	xorw	%ax, %ax
	orb	$142, %ah
	orl	$524288, %edx
	movl	%eax, ia32KSidt+212
	movl	$int_1b, %eax
	movl	%edx, ia32KSidt+208
	movzwl	%ax, %edx
	xorw	%ax, %ax
	orl	$524288, %edx
	orb	$142, %ah
	movl	%edx, ia32KSidt+216
	movl	%eax, ia32KSidt+220
	movl	$int_1c, %eax
	movzwl	%ax, %edx
	xorw	%ax, %ax
	orb	$142, %ah
	orl	$524288, %edx
	movl	%eax, ia32KSidt+228
	movl	$int_1d, %eax
	movl	%edx, ia32KSidt+224
	movzwl	%ax, %edx
	xorw	%ax, %ax
	orb	$142, %ah
	orl	$524288, %edx
	movl	%eax, ia32KSidt+236
	movl	$int_1e, %eax
	movl	%edx, ia32KSidt+232
	movzwl	%ax, %edx
	xorw	%ax, %ax
	orb	$142, %ah
	orl	$524288, %edx
	movl	%eax, ia32KSidt+244
	movl	$int_1f, %eax
	movl	%edx, ia32KSidt+240
	movzwl	%ax, %edx
	orl	$524288, %edx
	xorw	%ax, %ax
	orb	$142, %ah
	movl	%eax, ia32KSidt+252
	movl	$int_20, %eax
	movl	%edx, ia32KSidt+248
	movzwl	%ax, %edx
	xorw	%ax, %ax
	orb	$142, %ah
	orl	$524288, %edx
	movl	%eax, ia32KSidt+260
	movl	$int_21, %eax
	movl	%edx, ia32KSidt+256
	movzwl	%ax, %edx
	xorw	%ax, %ax
	orb	$142, %ah
	orl	$524288, %edx
	movl	%eax, ia32KSidt+268
	movl	$int_22, %eax
	movl	%edx, ia32KSidt+264
	movzwl	%ax, %edx
	xorw	%ax, %ax
	orb	$142, %ah
	orl	$524288, %edx
	movl	%eax, ia32KSidt+276
	movl	$int_23, %eax
	movl	%edx, ia32KSidt+272
	movzwl	%ax, %edx
	xorw	%ax, %ax
	orb	$142, %ah
	orl	$524288, %edx
	movl	%eax, ia32KSidt+284
	movl	$int_24, %eax
	movl	%edx, ia32KSidt+280
	movzwl	%ax, %edx
	xorw	%ax, %ax
	orb	$142, %ah
	orl	$524288, %edx
	movl	%eax, ia32KSidt+292
	movl	$int_25, %eax
	movl	%edx, ia32KSidt+288
	movzwl	%ax, %edx
	xorw	%ax, %ax
	orb	$142, %ah
	orl	$524288, %edx
	movl	%eax, ia32KSidt+300
	movl	$int_26, %eax
	movl	%edx, ia32KSidt+296
	movzwl	%ax, %edx
	xorw	%ax, %ax
	orb	$142, %ah
	orl	$524288, %edx
	movl	%eax, ia32KSidt+308
	movl	$int_27, %eax
	movl	%edx, ia32KSidt+304
	movzwl	%ax, %edx
	xorw	%ax, %ax
	orb	$142, %ah
	orl	$524288, %edx
	movl	%eax, ia32KSidt+316
	movl	$int_28, %eax
	movl	%edx, ia32KSidt+312
	movzwl	%ax, %edx
	xorw	%ax, %ax
	orb	$142, %ah
	orl	$524288, %edx
	movl	%eax, ia32KSidt+324
	movl	$int_29, %eax
	movl	%edx, ia32KSidt+320
	movzwl	%ax, %edx
	xorw	%ax, %ax
	orb	$142, %ah
	orl	$524288, %edx
	movl	%eax, ia32KSidt+332
	movl	$int_2a, %eax
	movl	%edx, ia32KSidt+328
	movzwl	%ax, %edx
	orl	$524288, %edx
	xorw	%ax, %ax
	orb	$142, %ah
	movl	%eax, ia32KSidt+340
	movl	$int_2b, %eax
	movl	%edx, ia32KSidt+336
	movzwl	%ax, %edx
	xorw	%ax, %ax
	orb	$142, %ah
	orl	$524288, %edx
	movl	%eax, ia32KSidt+348
	movl	$int_2c, %eax
	movl	%edx, ia32KSidt+344
	movzwl	%ax, %edx
	xorw	%ax, %ax
	orl	$524288, %edx
	orb	$142, %ah
	movl	%edx, ia32KSidt+352
	movl	%eax, ia32KSidt+356
	movl	$int_2d, %eax
	movzwl	%ax, %edx
	xorw	%ax, %ax
	orb	$142, %ah
	orl	$524288, %edx
	movl	%eax, ia32KSidt+364
	movl	$int_2e, %eax
	movl	%edx, ia32KSidt+360
	movzwl	%ax, %edx
	xorw	%ax, %ax
	orb	$142, %ah
	orl	$524288, %edx
	movl	%eax, ia32KSidt+372
	movl	$int_2f, %eax
	movl	%edx, ia32KSidt+368
	movzwl	%ax, %edx
	xorw	%ax, %ax
	orb	$142, %ah
	orl	$524288, %edx
	movl	%eax, ia32KSidt+380
	movl	$int_30, %eax
	movl	%edx, ia32KSidt+376
	movzwl	%ax, %edx
	xorw	%ax, %ax
	orb	$142, %ah
	orl	$524288, %edx
	movl	%eax, ia32KSidt+388
	movl	$int_31, %eax
	movl	%edx, ia32KSidt+384
	movzwl	%ax, %edx
	xorw	%ax, %ax
	orb	$142, %ah
	orl	$524288, %edx
	movl	%eax, ia32KSidt+396
	movl	$int_32, %eax
	movl	%edx, ia32KSidt+392
	movzwl	%ax, %edx
	xorw	%ax, %ax
	orb	$142, %ah
	orl	$524288, %edx
	movl	%eax, ia32KSidt+404
	movl	$int_33, %eax
	movl	%edx, ia32KSidt+400
	movzwl	%ax, %edx
	xorw	%ax, %ax
	orb	$142, %ah
	orl	$524288, %edx
	movl	%eax, ia32KSidt+412
	movl	$int_34, %eax
	movl	%edx, ia32KSidt+408
	movzwl	%ax, %edx
	xorw	%ax, %ax
	orb	$142, %ah
	orl	$524288, %edx
	movl	%eax, ia32KSidt+420
	movl	$int_35, %eax
	movl	%edx, ia32KSidt+416
	movzwl	%ax, %edx
	orl	$524288, %edx
	xorw	%ax, %ax
	orb	$142, %ah
	movl	%eax, ia32KSidt+428
	movl	$int_36, %eax
	movl	%edx, ia32KSidt+424
	movzwl	%ax, %edx
	xorw	%ax, %ax
	orb	$142, %ah
	orl	$524288, %edx
	movl	%eax, ia32KSidt+436
	movl	$int_37, %eax
	movl	%edx, ia32KSidt+432
	movzwl	%ax, %edx
	xorw	%ax, %ax
	orb	$142, %ah
	orl	$524288, %edx
	movl	%eax, ia32KSidt+444
	movl	$int_38, %eax
	movl	%edx, ia32KSidt+440
	movzwl	%ax, %edx
	xorw	%ax, %ax
	orb	$142, %ah
	orl	$524288, %edx
	movl	%eax, ia32KSidt+452
	movl	$int_39, %eax
	movl	%edx, ia32KSidt+448
	movzwl	%ax, %edx
	xorw	%ax, %ax
	orb	$142, %ah
	orl	$524288, %edx
	movl	%eax, ia32KSidt+460
	movl	$int_3a, %eax
	movl	%edx, ia32KSidt+456
	movzwl	%ax, %edx
	xorw	%ax, %ax
	orb	$142, %ah
	orl	$524288, %edx
	movl	%eax, ia32KSidt+468
	movl	$int_3b, %eax
	movl	%edx, ia32KSidt+464
	movzwl	%ax, %edx
	xorw	%ax, %ax
	orb	$142, %ah
	orl	$524288, %edx
	movl	%eax, ia32KSidt+476
	movl	$int_3c, %eax
	movl	%edx, ia32KSidt+472
	movzwl	%ax, %edx
	xorw	%ax, %ax
	orb	$142, %ah
	orl	$524288, %edx
	movl	%eax, ia32KSidt+484
	movl	$int_3d, %eax
	movl	%edx, ia32KSidt+480
	movzwl	%ax, %edx
	xorw	%ax, %ax
	orl	$524288, %edx
	orb	$142, %ah
	movl	%edx, ia32KSidt+488
	movl	%eax, ia32KSidt+492
	movl	$int_3e, %eax
	movzwl	%ax, %edx
	xorw	%ax, %ax
	orb	$142, %ah
	orl	$524288, %edx
	movl	%eax, ia32KSidt+500
	movl	$int_3f, %eax
	movl	%edx, ia32KSidt+496
	movzwl	%ax, %edx
	xorw	%ax, %ax
	orb	$142, %ah
	orl	$524288, %edx
	movl	%eax, ia32KSidt+508
	movl	$int_40, %eax
	movl	%edx, ia32KSidt+504
	movzwl	%ax, %edx
	orl	$524288, %edx
	xorw	%ax, %ax
	orb	$238, %ah
	movl	%eax, ia32KSidt+516
	movl	$int_41, %eax
	movl	%edx, ia32KSidt+512
	movzwl	%ax, %edx
	xorw	%ax, %ax
	orb	$238, %ah
	orl	$524288, %edx
	movl	%eax, ia32KSidt+524
	movl	$int_42, %eax
	movl	%edx, ia32KSidt+520
	movzwl	%ax, %edx
	xorw	%ax, %ax
	orb	$238, %ah
	orl	$524288, %edx
	movl	%eax, ia32KSidt+532
	movl	$int_43, %eax
	movl	%edx, ia32KSidt+528
	movzwl	%ax, %edx
	xorw	%ax, %ax
	orb	$238, %ah
	orl	$524288, %edx
	movl	%eax, ia32KSidt+540
	movl	$int_44, %eax
	movl	%edx, ia32KSidt+536
	movzwl	%ax, %edx
	xorw	%ax, %ax
	orb	$238, %ah
	orl	$524288, %edx
	movl	%eax, ia32KSidt+548
	movl	$int_45, %eax
	movl	%edx, ia32KSidt+544
	movzwl	%ax, %edx
	xorw	%ax, %ax
	orb	$238, %ah
	orl	$524288, %edx
	movl	%eax, ia32KSidt+556
	movl	$int_46, %eax
	movl	%edx, ia32KSidt+552
	movzwl	%ax, %edx
	xorw	%ax, %ax
	orb	$238, %ah
	orl	$524288, %edx
	movl	%eax, ia32KSidt+564
	movl	$int_47, %eax
	movl	%edx, ia32KSidt+560
	movzwl	%ax, %edx
	xorw	%ax, %ax
	orb	$238, %ah
	orl	$524288, %edx
	movl	%eax, ia32KSidt+572
	movl	$int_48, %eax
	movl	%edx, ia32KSidt+568
	movzwl	%ax, %edx
	xorw	%ax, %ax
	orb	$238, %ah
	orl	$524288, %edx
	movl	%eax, ia32KSidt+580
	movl	$int_49, %eax
	movl	%edx, ia32KSidt+576
	movzwl	%ax, %edx
	xorw	%ax, %ax
	orb	$238, %ah
	orl	$524288, %edx
	movl	%eax, ia32KSidt+588
	movl	$int_4a, %eax
	movl	%edx, ia32KSidt+584
	movzwl	%ax, %edx
	xorw	%ax, %ax
	orb	$238, %ah
	orl	$524288, %edx
	movl	%eax, ia32KSidt+596
	movl	$int_4b, %eax
	movl	%edx, ia32KSidt+592
	movzwl	%ax, %edx
	orl	$524288, %edx
	xorw	%ax, %ax
	orb	$238, %ah
	movl	%eax, ia32KSidt+604
	movl	$int_4c, %eax
	movl	%edx, ia32KSidt+600
	movzwl	%ax, %edx
	xorw	%ax, %ax
	orb	$238, %ah
	orl	$524288, %edx
	movl	%eax, ia32KSidt+612
	movl	$int_4d, %eax
	movl	%edx, ia32KSidt+608
	movzwl	%ax, %edx
	xorw	%ax, %ax
	orb	$238, %ah
	orl	$524288, %edx
	movl	%eax, ia32KSidt+620
	movl	$int_4e, %eax
	movl	%edx, ia32KSidt+616
	movzwl	%ax, %edx
	xorw	%ax, %ax
	orl	$524288, %edx
	orb	$238, %ah
	movl	%edx, ia32KSidt+624
	movl	%eax, ia32KSidt+628
	movl	$int_4f, %eax
	movzwl	%ax, %edx
	xorw	%ax, %ax
	orb	$238, %ah
	orl	$524288, %edx
	movl	%eax, ia32KSidt+636
	movl	$int_50, %eax
	movl	%edx, ia32KSidt+632
	movzwl	%ax, %edx
	xorw	%ax, %ax
	orb	$238, %ah
	orl	$524288, %edx
	movl	%eax, ia32KSidt+644
	movl	$int_51, %eax
	movl	%edx, ia32KSidt+640
	movzwl	%ax, %edx
	xorw	%ax, %ax
	orb	$238, %ah
	orl	$524288, %edx
	movl	%eax, ia32KSidt+652
	movl	$int_52, %eax
	movl	%edx, ia32KSidt+648
	movzwl	%ax, %edx
	xorw	%ax, %ax
	orb	$238, %ah
	orl	$524288, %edx
	movl	%eax, ia32KSidt+660
	movl	$int_53, %eax
	movl	%edx, ia32KSidt+656
	movzwl	%ax, %edx
	xorw	%ax, %ax
	orb	$238, %ah
	orl	$524288, %edx
	movl	%eax, ia32KSidt+668
	movl	$int_54, %eax
	movl	%edx, ia32KSidt+664
	movzwl	%ax, %edx
	xorw	%ax, %ax
	orb	$238, %ah
	orl	$524288, %edx
	movl	%eax, ia32KSidt+676
	movl	$int_55, %eax
	movl	%edx, ia32KSidt+672
	movzwl	%ax, %edx
	xorw	%ax, %ax
	orb	$238, %ah
	orl	$524288, %edx
	movl	%eax, ia32KSidt+684
	movl	$int_56, %eax
	movl	%edx, ia32KSidt+680
	movzwl	%ax, %edx
	orl	$524288, %edx
	xorw	%ax, %ax
	orb	$238, %ah
	movl	%eax, ia32KSidt+692
	movl	$int_57, %eax
	movl	%edx, ia32KSidt+688
	movzwl	%ax, %edx
	xorw	%ax, %ax
	orb	$238, %ah
	orl	$524288, %edx
	movl	%eax, ia32KSidt+700
	movl	$int_58, %eax
	movl	%edx, ia32KSidt+696
	movzwl	%ax, %edx
	xorw	%ax, %ax
	orb	$238, %ah
	orl	$524288, %edx
	movl	%eax, ia32KSidt+708
	movl	$int_59, %eax
	movl	%edx, ia32KSidt+704
	movzwl	%ax, %edx
	xorw	%ax, %ax
	orb	$238, %ah
	orl	$524288, %edx
	movl	%eax, ia32KSidt+716
	movl	$int_5a, %eax
	movl	%edx, ia32KSidt+712
	movzwl	%ax, %edx
	xorw	%ax, %ax
	orb	$238, %ah
	orl	$524288, %edx
	movl	%eax, ia32KSidt+724
	movl	$int_5b, %eax
	movl	%edx, ia32KSidt+720
	movzwl	%ax, %edx
	xorw	%ax, %ax
	orb	$238, %ah
	orl	$524288, %edx
	movl	%eax, ia32KSidt+732
	movl	$int_5c, %eax
	movl	%edx, ia32KSidt+728
	movzwl	%ax, %edx
	xorw	%ax, %ax
	orb	$238, %ah
	orl	$524288, %edx
	movl	%eax, ia32KSidt+740
	movl	$int_5d, %eax
	movl	%edx, ia32KSidt+736
	movzwl	%ax, %edx
	xorw	%ax, %ax
	orb	$238, %ah
	orl	$524288, %edx
	movl	%eax, ia32KSidt+748
	movl	$int_5e, %eax
	movl	%edx, ia32KSidt+744
	movzwl	%ax, %edx
	xorw	%ax, %ax
	orb	$238, %ah
	orl	$524288, %edx
	movl	%eax, ia32KSidt+756
	movl	$int_5f, %eax
	movl	%edx, ia32KSidt+752
	movzwl	%ax, %edx
	xorw	%ax, %ax
	orl	$524288, %edx
	orb	$238, %ah
	movl	%edx, ia32KSidt+760
	movl	%eax, ia32KSidt+764
	movl	$int_60, %eax
	movzwl	%ax, %edx
	xorw	%ax, %ax
	orb	$238, %ah
	orl	$524288, %edx
	movl	%eax, ia32KSidt+772
	movl	$int_61, %eax
	movl	%edx, ia32KSidt+768
	movzwl	%ax, %edx
	orl	$524288, %edx
	xorw	%ax, %ax
	orb	$238, %ah
	movl	%eax, ia32KSidt+780
	movl	$int_62, %eax
	movl	%edx, ia32KSidt+776
	movzwl	%ax, %edx
	xorw	%ax, %ax
	orb	$238, %ah
	orl	$524288, %edx
	movl	%eax, ia32KSidt+788
	movl	$int_63, %eax
	movl	%edx, ia32KSidt+784
	movzwl	%ax, %edx
	xorw	%ax, %ax
	orb	$238, %ah
	orl	$524288, %edx
	movl	%eax, ia32KSidt+796
	movl	$int_64, %eax
	movl	%edx, ia32KSidt+792
	movzwl	%ax, %edx
	xorw	%ax, %ax
	orb	$238, %ah
	orl	$524288, %edx
	movl	%eax, ia32KSidt+804
	movl	$int_65, %eax
	movl	%edx, ia32KSidt+800
	movzwl	%ax, %edx
	xorw	%ax, %ax
	orb	$238, %ah
	orl	$524288, %edx
	movl	%eax, ia32KSidt+812
	movl	$int_66, %eax
	movl	%edx, ia32KSidt+808
	movzwl	%ax, %edx
	xorw	%ax, %ax
	orb	$238, %ah
	orl	$524288, %edx
	movl	%eax, ia32KSidt+820
	movl	$int_67, %eax
	movl	%edx, ia32KSidt+816
	movzwl	%ax, %edx
	xorw	%ax, %ax
	orb	$238, %ah
	orl	$524288, %edx
	movl	%eax, ia32KSidt+828
	movl	$int_68, %eax
	movl	%edx, ia32KSidt+824
	movzwl	%ax, %edx
	xorw	%ax, %ax
	orb	$238, %ah
	orl	$524288, %edx
	movl	%eax, ia32KSidt+836
	movl	$int_69, %eax
	movl	%edx, ia32KSidt+832
	movzwl	%ax, %edx
	xorw	%ax, %ax
	orb	$238, %ah
	orl	$524288, %edx
	movl	%eax, ia32KSidt+844
	movl	$int_6a, %eax
	movl	%edx, ia32KSidt+840
	movzwl	%ax, %edx
	xorw	%ax, %ax
	orb	$238, %ah
	orl	$524288, %edx
	movl	%eax, ia32KSidt+852
	movl	$int_6b, %eax
	movl	%edx, ia32KSidt+848
	movzwl	%ax, %edx
	xorw	%ax, %ax
	orb	$238, %ah
	orl	$524288, %edx
	movl	%eax, ia32KSidt+860
	movl	$int_6c, %eax
	movl	%edx, ia32KSidt+856
	movzwl	%ax, %edx
	orl	$524288, %edx
	xorw	%ax, %ax
	orb	$238, %ah
	movl	%eax, ia32KSidt+868
	movl	$int_6d, %eax
	movl	%edx, ia32KSidt+864
	movzwl	%ax, %edx
	xorw	%ax, %ax
	orb	$238, %ah
	orl	$524288, %edx
	movl	%eax, ia32KSidt+876
	movl	$int_6e, %eax
	movl	%edx, ia32KSidt+872
	movzwl	%ax, %edx
	xorw	%ax, %ax
	orb	$238, %ah
	orl	$524288, %edx
	movl	%eax, ia32KSidt+884
	movl	$int_6f, %eax
	movl	%edx, ia32KSidt+880
	movzwl	%ax, %edx
	xorw	%ax, %ax
	orb	$238, %ah
	orl	$524288, %edx
	movl	%eax, ia32KSidt+892
	movl	$int_70, %eax
	movl	%edx, ia32KSidt+888
	movzwl	%ax, %edx
	xorw	%ax, %ax
	orl	$524288, %edx
	orb	$238, %ah
	movl	%edx, ia32KSidt+896
	movl	%eax, ia32KSidt+900
	movl	$int_71, %eax
	movzwl	%ax, %edx
	xorw	%ax, %ax
	orb	$238, %ah
	orl	$524288, %edx
	movl	%eax, ia32KSidt+908
	movl	$int_72, %eax
	movl	%edx, ia32KSidt+904
	movzwl	%ax, %edx
	xorw	%ax, %ax
	orb	$238, %ah
	orl	$524288, %edx
	movl	%eax, ia32KSidt+916
	movl	$int_73, %eax
	movl	%edx, ia32KSidt+912
	movzwl	%ax, %edx
	xorw	%ax, %ax
	orb	$238, %ah
	orl	$524288, %edx
	movl	%eax, ia32KSidt+924
	movl	$int_74, %eax
	movl	%edx, ia32KSidt+920
	movzwl	%ax, %edx
	xorw	%ax, %ax
	orb	$238, %ah
	orl	$524288, %edx
	movl	%eax, ia32KSidt+932
	movl	$int_75, %eax
	movl	%edx, ia32KSidt+928
	movzwl	%ax, %edx
	xorw	%ax, %ax
	orb	$238, %ah
	orl	$524288, %edx
	movl	%eax, ia32KSidt+940
	movl	$int_76, %eax
	movl	%edx, ia32KSidt+936
	movzwl	%ax, %edx
	xorw	%ax, %ax
	orb	$238, %ah
	orl	$524288, %edx
	movl	%eax, ia32KSidt+948
	movl	$int_77, %eax
	movl	%edx, ia32KSidt+944
	movzwl	%ax, %edx
	orl	$524288, %edx
	xorw	%ax, %ax
	orb	$238, %ah
	movl	%eax, ia32KSidt+956
	movl	$int_78, %eax
	movl	%edx, ia32KSidt+952
	movzwl	%ax, %edx
	xorw	%ax, %ax
	orb	$238, %ah
	orl	$524288, %edx
	movl	%eax, ia32KSidt+964
	movl	$int_79, %eax
	movl	%edx, ia32KSidt+960
	movzwl	%ax, %edx
	xorw	%ax, %ax
	orb	$238, %ah
	orl	$524288, %edx
	movl	%eax, ia32KSidt+972
	movl	$int_7a, %eax
	movl	%edx, ia32KSidt+968
	movzwl	%ax, %edx
	xorw	%ax, %ax
	orb	$238, %ah
	orl	$524288, %edx
	movl	%eax, ia32KSidt+980
	movl	$int_7b, %eax
	movl	%edx, ia32KSidt+976
	movzwl	%ax, %edx
	xorw	%ax, %ax
	orb	$238, %ah
	orl	$524288, %edx
	movl	%eax, ia32KSidt+988
	movl	$int_7c, %eax
	movl	%edx, ia32KSidt+984
	movzwl	%ax, %edx
	xorw	%ax, %ax
	orb	$238, %ah
	orl	$524288, %edx
	movl	%eax, ia32KSidt+996
	movl	$int_7d, %eax
	movl	%edx, ia32KSidt+992
	movzwl	%ax, %edx
	xorw	%ax, %ax
	orb	$238, %ah
	orl	$524288, %edx
	movl	%eax, ia32KSidt+1004
	movl	$int_7e, %eax
	movl	%edx, ia32KSidt+1000
	movzwl	%ax, %edx
	xorw	%ax, %ax
	orb	$238, %ah
	orl	$524288, %edx
	movl	%eax, ia32KSidt+1012
	movl	$int_7f, %eax
	movl	%edx, ia32KSidt+1008
	movzwl	%ax, %edx
	xorw	%ax, %ax
	orb	$238, %ah
	orl	$524288, %edx
	movl	%eax, ia32KSidt+1020
	movl	$int_80, %eax
	movl	%edx, ia32KSidt+1016
	movzwl	%ax, %edx
	xorw	%ax, %ax
	orb	$238, %ah
	orl	$524288, %edx
	movl	%eax, ia32KSidt+1028
	movl	$int_81, %eax
	movl	%edx, ia32KSidt+1024
	movzwl	%ax, %edx
	xorw	%ax, %ax
	orl	$524288, %edx
	orb	$238, %ah
	movl	%edx, ia32KSidt+1032
	movl	%eax, ia32KSidt+1036
	movl	$int_82, %eax
	movzwl	%ax, %edx
	orl	$524288, %edx
	xorw	%ax, %ax
	orb	$238, %ah
	movl	%eax, ia32KSidt+1044
	movl	$int_83, %eax
	movl	%edx, ia32KSidt+1040
	movzwl	%ax, %edx
	xorw	%ax, %ax
	orb	$238, %ah
	orl	$524288, %edx
	movl	%eax, ia32KSidt+1052
	movl	$int_84, %eax
	movl	%edx, ia32KSidt+1048
	movzwl	%ax, %edx
	xorw	%ax, %ax
	orb	$238, %ah
	orl	$524288, %edx
	movl	%eax, ia32KSidt+1060
	movl	$int_85, %eax
	movl	%edx, ia32KSidt+1056
	movzwl	%ax, %edx
	xorw	%ax, %ax
	orb	$238, %ah
	orl	$524288, %edx
	movl	%eax, ia32KSidt+1068
	movl	$int_86, %eax
	movl	%edx, ia32KSidt+1064
	movzwl	%ax, %edx
	xorw	%ax, %ax
	orb	$238, %ah
	orl	$524288, %edx
	movl	%eax, ia32KSidt+1076
	movl	$int_87, %eax
	movl	%edx, ia32KSidt+1072
	movzwl	%ax, %edx
	xorw	%ax, %ax
	orb	$238, %ah
	orl	$524288, %edx
	movl	%eax, ia32KSidt+1084
	movl	$int_88, %eax
	movl	%edx, ia32KSidt+1080
	movzwl	%ax, %edx
	xorw	%ax, %ax
	orb	$238, %ah
	orl	$524288, %edx
	movl	%eax, ia32KSidt+1092
	movl	$int_89, %eax
	movl	%edx, ia32KSidt+1088
	movzwl	%ax, %edx
	xorw	%ax, %ax
	orb	$238, %ah
	orl	$524288, %edx
	movl	%eax, ia32KSidt+1100
	movl	$int_8a, %eax
	movl	%edx, ia32KSidt+1096
	movzwl	%ax, %edx
	xorw	%ax, %ax
	orb	$238, %ah
	orl	$524288, %edx
	movl	%eax, ia32KSidt+1108
	movl	$int_8b, %eax
	movl	%edx, ia32KSidt+1104
	movzwl	%ax, %edx
	xorw	%ax, %ax
	orb	$238, %ah
	orl	$524288, %edx
	movl	%eax, ia32KSidt+1116
	movl	$int_8c, %eax
	movl	%edx, ia32KSidt+1112
	movzwl	%ax, %edx
	xorw	%ax, %ax
	orb	$238, %ah
	orl	$524288, %edx
	movl	%eax, ia32KSidt+1124
	movl	$int_8d, %eax
	movl	%edx, ia32KSidt+1120
	movzwl	%ax, %edx
	orl	$524288, %edx
	xorw	%ax, %ax
	orb	$238, %ah
	movl	%eax, ia32KSidt+1132
	movl	$int_8e, %eax
	movl	%edx, ia32KSidt+1128
	movzwl	%ax, %edx
	xorw	%ax, %ax
	orb	$238, %ah
	orl	$524288, %edx
	movl	%eax, ia32KSidt+1140
	movl	$int_8f, %eax
	movl	%edx, ia32KSidt+1136
	movzwl	%ax, %edx
	xorw	%ax, %ax
	orb	$238, %ah
	orl	$524288, %edx
	movl	%eax, ia32KSidt+1148
	movl	$int_90, %eax
	movl	%edx, ia32KSidt+1144
	movzwl	%ax, %edx
	xorw	%ax, %ax
	orb	$238, %ah
	orl	$524288, %edx
	movl	%eax, ia32KSidt+1156
	movl	$int_91, %eax
	movl	%edx, ia32KSidt+1152
	movzwl	%ax, %edx
	xorw	%ax, %ax
	orb	$238, %ah
	orl	$524288, %edx
	movl	%eax, ia32KSidt+1164
	movl	$int_92, %eax
	movl	%edx, ia32KSidt+1160
	movzwl	%ax, %edx
	xorw	%ax, %ax
	orl	$524288, %edx
	orb	$238, %ah
	movl	%edx, ia32KSidt+1168
	movl	%eax, ia32KSidt+1172
	movl	$int_93, %eax
	movzwl	%ax, %edx
	xorw	%ax, %ax
	orb	$238, %ah
	orl	$524288, %edx
	movl	%eax, ia32KSidt+1180
	movl	$int_94, %eax
	movl	%edx, ia32KSidt+1176
	movzwl	%ax, %edx
	xorw	%ax, %ax
	orb	$238, %ah
	orl	$524288, %edx
	movl	%eax, ia32KSidt+1188
	movl	$int_95, %eax
	movl	%edx, ia32KSidt+1184
	movzwl	%ax, %edx
	xorw	%ax, %ax
	orb	$238, %ah
	orl	$524288, %edx
	movl	%eax, ia32KSidt+1196
	movl	$int_96, %eax
	movl	%edx, ia32KSidt+1192
	movzwl	%ax, %edx
	xorw	%ax, %ax
	orb	$238, %ah
	orl	$524288, %edx
	movl	%eax, ia32KSidt+1204
	movl	$int_97, %eax
	movl	%edx, ia32KSidt+1200
	movzwl	%ax, %edx
	xorw	%ax, %ax
	orb	$238, %ah
	orl	$524288, %edx
	movl	%eax, ia32KSidt+1212
	movl	$int_98, %eax
	movl	%edx, ia32KSidt+1208
	movzwl	%ax, %edx
	orl	$524288, %edx
	xorw	%ax, %ax
	orb	$238, %ah
	movl	%eax, ia32KSidt+1220
	movl	$int_99, %eax
	movl	%edx, ia32KSidt+1216
	movzwl	%ax, %edx
	xorw	%ax, %ax
	orb	$238, %ah
	orl	$524288, %edx
	movl	%eax, ia32KSidt+1228
	movl	$int_9a, %eax
	movl	%edx, ia32KSidt+1224
	movzwl	%ax, %edx
	xorw	%ax, %ax
	orb	$238, %ah
	orl	$524288, %edx
	movl	%eax, ia32KSidt+1236
	movl	$int_9b, %eax
	movl	%edx, ia32KSidt+1232
	movzwl	%ax, %edx
	xorw	%ax, %ax
	orb	$238, %ah
	orl	$524288, %edx
	movl	%eax, ia32KSidt+1244
	movl	$int_9c, %eax
	movl	%edx, ia32KSidt+1240
	movzwl	%ax, %edx
	xorw	%ax, %ax
	orb	$238, %ah
	orl	$524288, %edx
	movl	%eax, ia32KSidt+1252
	movl	$int_9d, %eax
	movl	%edx, ia32KSidt+1248
	movzwl	%ax, %edx
	xorw	%ax, %ax
	orb	$238, %ah
	orl	$524288, %edx
	movl	%eax, ia32KSidt+1260
	movl	$int_9e, %eax
	movl	%edx, ia32KSidt+1256
	movzwl	%ax, %edx
	xorw	%ax, %ax
	orb	$238, %ah
	orl	$524288, %edx
	movl	%eax, ia32KSidt+1268
	movl	$int_9f, %eax
	movl	%edx, ia32KSidt+1264
	movzwl	%ax, %edx
	xorw	%ax, %ax
	orb	$238, %ah
	orl	$524288, %edx
	movl	%eax, ia32KSidt+1276
	movl	$int_a0, %eax
	movl	%edx, ia32KSidt+1272
	movzwl	%ax, %edx
	xorw	%ax, %ax
	orb	$238, %ah
	orl	$524288, %edx
	movl	%eax, ia32KSidt+1284
	movl	$int_a1, %eax
	movl	%edx, ia32KSidt+1280
	movzwl	%ax, %edx
	xorw	%ax, %ax
	orb	$238, %ah
	orl	$524288, %edx
	movl	%eax, ia32KSidt+1292
	movl	$int_a2, %eax
	movl	%edx, ia32KSidt+1288
	movzwl	%ax, %edx
	xorw	%ax, %ax
	orb	$238, %ah
	orl	$524288, %edx
	movl	%eax, ia32KSidt+1300
	movl	$int_a3, %eax
	movl	%edx, ia32KSidt+1296
	movzwl	%ax, %edx
	orl	$524288, %edx
	xorw	%ax, %ax
	orb	$238, %ah
	movl	%edx, ia32KSidt+1304
	movl	%eax, ia32KSidt+1308
	movl	$int_a4, %eax
	movzwl	%ax, %edx
	xorw	%ax, %ax
	orb	$238, %ah
	orl	$524288, %edx
	movl	%eax, ia32KSidt+1316
	movl	$int_a5, %eax
	movl	%edx, ia32KSidt+1312
	movzwl	%ax, %edx
	xorw	%ax, %ax
	orb	$238, %ah
	orl	$524288, %edx
	movl	%eax, ia32KSidt+1324
	movl	$int_a6, %eax
	movl	%edx, ia32KSidt+1320
	movzwl	%ax, %edx
	xorw	%ax, %ax
	orb	$238, %ah
	orl	$524288, %edx
	movl	%eax, ia32KSidt+1332
	movl	$int_a7, %eax
	movl	%edx, ia32KSidt+1328
	movzwl	%ax, %edx
	xorw	%ax, %ax
	orb	$238, %ah
	orl	$524288, %edx
	movl	%eax, ia32KSidt+1340
	movl	$int_a8, %eax
	movl	%edx, ia32KSidt+1336
	movzwl	%ax, %edx
	xorw	%ax, %ax
	orb	$238, %ah
	orl	$524288, %edx
	movl	%eax, ia32KSidt+1348
	movl	$int_a9, %eax
	movl	%edx, ia32KSidt+1344
	movzwl	%ax, %edx
	xorw	%ax, %ax
	orb	$238, %ah
	orl	$524288, %edx
	movl	%eax, ia32KSidt+1356
	movl	$int_aa, %eax
	movl	%edx, ia32KSidt+1352
	movzwl	%ax, %edx
	xorw	%ax, %ax
	orb	$238, %ah
	orl	$524288, %edx
	movl	%eax, ia32KSidt+1364
	movl	$int_ab, %eax
	movl	%edx, ia32KSidt+1360
	movzwl	%ax, %edx
	xorw	%ax, %ax
	orb	$238, %ah
	orl	$524288, %edx
	movl	%eax, ia32KSidt+1372
	movl	$int_ac, %eax
	movl	%edx, ia32KSidt+1368
	movzwl	%ax, %edx
	xorw	%ax, %ax
	orb	$238, %ah
	orl	$524288, %edx
	movl	%eax, ia32KSidt+1380
	movl	$int_ad, %eax
	movl	%edx, ia32KSidt+1376
	movzwl	%ax, %edx
	xorw	%ax, %ax
	orb	$238, %ah
	orl	$524288, %edx
	movl	%eax, ia32KSidt+1388
	movl	$int_ae, %eax
	movl	%edx, ia32KSidt+1384
	movzwl	%ax, %edx
	orl	$524288, %edx
	xorw	%ax, %ax
	orb	$238, %ah
	movl	%eax, ia32KSidt+1396
	movl	$int_af, %eax
	movl	%edx, ia32KSidt+1392
	movzwl	%ax, %edx
	xorw	%ax, %ax
	orb	$238, %ah
	orl	$524288, %edx
	movl	%eax, ia32KSidt+1404
	movl	$int_b0, %eax
	movl	%edx, ia32KSidt+1400
	movzwl	%ax, %edx
	xorw	%ax, %ax
	orb	$238, %ah
	orl	$524288, %edx
	movl	%eax, ia32KSidt+1412
	movl	$int_b1, %eax
	movl	%edx, ia32KSidt+1408
	movzwl	%ax, %edx
	xorw	%ax, %ax
	orb	$238, %ah
	orl	$524288, %edx
	movl	%eax, ia32KSidt+1420
	movl	$int_b2, %eax
	movl	%edx, ia32KSidt+1416
	movzwl	%ax, %edx
	xorw	%ax, %ax
	orb	$238, %ah
	orl	$524288, %edx
	movl	%eax, ia32KSidt+1428
	movl	$int_b3, %eax
	movl	%edx, ia32KSidt+1424
	movzwl	%ax, %edx
	xorw	%ax, %ax
	orb	$238, %ah
	orl	$524288, %edx
	movl	%eax, ia32KSidt+1436
	movl	$int_b4, %eax
	movl	%edx, ia32KSidt+1432
	movzwl	%ax, %edx
	xorw	%ax, %ax
	orl	$524288, %edx
	orb	$238, %ah
	movl	%edx, ia32KSidt+1440
	movl	%eax, ia32KSidt+1444
	movl	$int_b5, %eax
	movzwl	%ax, %edx
	xorw	%ax, %ax
	orb	$238, %ah
	orl	$524288, %edx
	movl	%eax, ia32KSidt+1452
	movl	$int_b6, %eax
	movl	%edx, ia32KSidt+1448
	movzwl	%ax, %edx
	xorw	%ax, %ax
	orb	$238, %ah
	orl	$524288, %edx
	movl	%eax, ia32KSidt+1460
	movl	$int_b7, %eax
	movl	%edx, ia32KSidt+1456
	movzwl	%ax, %edx
	xorw	%ax, %ax
	orb	$238, %ah
	orl	$524288, %edx
	movl	%eax, ia32KSidt+1468
	movl	$int_b8, %eax
	movl	%edx, ia32KSidt+1464
	movzwl	%ax, %edx
	xorw	%ax, %ax
	orb	$238, %ah
	orl	$524288, %edx
	movl	%eax, ia32KSidt+1476
	movl	$int_b9, %eax
	movl	%edx, ia32KSidt+1472
	movzwl	%ax, %edx
	orl	$524288, %edx
	xorw	%ax, %ax
	orb	$238, %ah
	movl	%eax, ia32KSidt+1484
	movl	$int_ba, %eax
	movl	%edx, ia32KSidt+1480
	movzwl	%ax, %edx
	xorw	%ax, %ax
	orb	$238, %ah
	orl	$524288, %edx
	movl	%eax, ia32KSidt+1492
	movl	$int_bb, %eax
	movl	%edx, ia32KSidt+1488
	movzwl	%ax, %edx
	xorw	%ax, %ax
	orb	$238, %ah
	orl	$524288, %edx
	movl	%eax, ia32KSidt+1500
	movl	$int_bc, %eax
	movl	%edx, ia32KSidt+1496
	movzwl	%ax, %edx
	xorw	%ax, %ax
	orb	$238, %ah
	orl	$524288, %edx
	movl	%eax, ia32KSidt+1508
	movl	$int_bd, %eax
	movl	%edx, ia32KSidt+1504
	movzwl	%ax, %edx
	xorw	%ax, %ax
	orb	$238, %ah
	orl	$524288, %edx
	movl	%eax, ia32KSidt+1516
	movl	$int_be, %eax
	movl	%edx, ia32KSidt+1512
	movzwl	%ax, %edx
	xorw	%ax, %ax
	orb	$238, %ah
	orl	$524288, %edx
	movl	%eax, ia32KSidt+1524
	movl	$int_bf, %eax
	movl	%edx, ia32KSidt+1520
	movzwl	%ax, %edx
	xorw	%ax, %ax
	orb	$238, %ah
	orl	$524288, %edx
	movl	%eax, ia32KSidt+1532
	movl	$int_c0, %eax
	movl	%edx, ia32KSidt+1528
	movzwl	%ax, %edx
	xorw	%ax, %ax
	orb	$238, %ah
	orl	$524288, %edx
	movl	%eax, ia32KSidt+1540
	movl	$int_c1, %eax
	movl	%edx, ia32KSidt+1536
	movzwl	%ax, %edx
	xorw	%ax, %ax
	orb	$238, %ah
	orl	$524288, %edx
	movl	%eax, ia32KSidt+1548
	movl	$int_c2, %eax
	movl	%edx, ia32KSidt+1544
	movzwl	%ax, %edx
	xorw	%ax, %ax
	orb	$238, %ah
	orl	$524288, %edx
	movl	%eax, ia32KSidt+1556
	movl	$int_c3, %eax
	movl	%edx, ia32KSidt+1552
	movzwl	%ax, %edx
	xorw	%ax, %ax
	orb	$238, %ah
	orl	$524288, %edx
	movl	%eax, ia32KSidt+1564
	movl	$int_c4, %eax
	movl	%edx, ia32KSidt+1560
	movzwl	%ax, %edx
	orl	$524288, %edx
	xorw	%ax, %ax
	orb	$238, %ah
	movl	%eax, ia32KSidt+1572
	movl	$int_c5, %eax
	movl	%edx, ia32KSidt+1568
	movzwl	%ax, %edx
	xorw	%ax, %ax
	orl	$524288, %edx
	orb	$238, %ah
	movl	%edx, ia32KSidt+1576
	movl	%eax, ia32KSidt+1580
	movl	$int_c6, %eax
	movzwl	%ax, %edx
	xorw	%ax, %ax
	orb	$238, %ah
	orl	$524288, %edx
	movl	%eax, ia32KSidt+1588
	movl	$int_c7, %eax
	movl	%edx, ia32KSidt+1584
	movzwl	%ax, %edx
	xorw	%ax, %ax
	orb	$238, %ah
	orl	$524288, %edx
	movl	%eax, ia32KSidt+1596
	movl	$int_c8, %eax
	movl	%edx, ia32KSidt+1592
	movzwl	%ax, %edx
	xorw	%ax, %ax
	orb	$238, %ah
	orl	$524288, %edx
	movl	%eax, ia32KSidt+1604
	movl	$int_c9, %eax
	movl	%edx, ia32KSidt+1600
	movzwl	%ax, %edx
	xorw	%ax, %ax
	orb	$238, %ah
	orl	$524288, %edx
	movl	%eax, ia32KSidt+1612
	movl	$int_ca, %eax
	movl	%edx, ia32KSidt+1608
	movzwl	%ax, %edx
	xorw	%ax, %ax
	orb	$238, %ah
	orl	$524288, %edx
	movl	%eax, ia32KSidt+1620
	movl	$int_cb, %eax
	movl	%edx, ia32KSidt+1616
	movzwl	%ax, %edx
	xorw	%ax, %ax
	orb	$238, %ah
	orl	$524288, %edx
	movl	%eax, ia32KSidt+1628
	movl	$int_cc, %eax
	movl	%edx, ia32KSidt+1624
	movzwl	%ax, %edx
	xorw	%ax, %ax
	orb	$238, %ah
	orl	$524288, %edx
	movl	%eax, ia32KSidt+1636
	movl	$int_cd, %eax
	movl	%edx, ia32KSidt+1632
	movzwl	%ax, %edx
	xorw	%ax, %ax
	orb	$238, %ah
	orl	$524288, %edx
	movl	%eax, ia32KSidt+1644
	movl	$int_ce, %eax
	movl	%edx, ia32KSidt+1640
	movzwl	%ax, %edx
	xorw	%ax, %ax
	orb	$238, %ah
	orl	$524288, %edx
	movl	%eax, ia32KSidt+1652
	movl	$int_cf, %eax
	movl	%edx, ia32KSidt+1648
	movzwl	%ax, %edx
	orl	$524288, %edx
	xorw	%ax, %ax
	orb	$238, %ah
	movl	%eax, ia32KSidt+1660
	movl	$int_d0, %eax
	movl	%edx, ia32KSidt+1656
	movzwl	%ax, %edx
	xorw	%ax, %ax
	orb	$238, %ah
	orl	$524288, %edx
	movl	%eax, ia32KSidt+1668
	movl	$int_d1, %eax
	movl	%edx, ia32KSidt+1664
	movzwl	%ax, %edx
	xorw	%ax, %ax
	orb	$238, %ah
	orl	$524288, %edx
	movl	%eax, ia32KSidt+1676
	movl	$int_d2, %eax
	movl	%edx, ia32KSidt+1672
	movzwl	%ax, %edx
	xorw	%ax, %ax
	orb	$238, %ah
	orl	$524288, %edx
	movl	%eax, ia32KSidt+1684
	movl	$int_d3, %eax
	movl	%edx, ia32KSidt+1680
	movzwl	%ax, %edx
	xorw	%ax, %ax
	orb	$238, %ah
	orl	$524288, %edx
	movl	%eax, ia32KSidt+1692
	movl	$int_d4, %eax
	movl	%edx, ia32KSidt+1688
	movzwl	%ax, %edx
	xorw	%ax, %ax
	orb	$238, %ah
	orl	$524288, %edx
	movl	%eax, ia32KSidt+1700
	movl	$int_d5, %eax
	movl	%edx, ia32KSidt+1696
	movzwl	%ax, %edx
	xorw	%ax, %ax
	orb	$238, %ah
	orl	$524288, %edx
	movl	%eax, ia32KSidt+1708
	movl	$int_d6, %eax
	movl	%edx, ia32KSidt+1704
	movzwl	%ax, %edx
	xorw	%ax, %ax
	orl	$524288, %edx
	orb	$238, %ah
	movl	%edx, ia32KSidt+1712
	movl	%eax, ia32KSidt+1716
	movl	$int_d7, %eax
	movzwl	%ax, %edx
	xorw	%ax, %ax
	orb	$238, %ah
	orl	$524288, %edx
	movl	%eax, ia32KSidt+1724
	movl	$int_d8, %eax
	movl	%edx, ia32KSidt+1720
	movzwl	%ax, %edx
	xorw	%ax, %ax
	orb	$238, %ah
	orl	$524288, %edx
	movl	%eax, ia32KSidt+1732
	movl	$int_d9, %eax
	movl	%edx, ia32KSidt+1728
	movzwl	%ax, %edx
	xorw	%ax, %ax
	orb	$238, %ah
	orl	$524288, %edx
	movl	%eax, ia32KSidt+1740
	movl	$int_da, %eax
	movl	%edx, ia32KSidt+1736
	movzwl	%ax, %edx
	orl	$524288, %edx
	xorw	%ax, %ax
	orb	$238, %ah
	movl	%eax, ia32KSidt+1748
	movl	$int_db, %eax
	movl	%edx, ia32KSidt+1744
	movzwl	%ax, %edx
	xorw	%ax, %ax
	orb	$238, %ah
	orl	$524288, %edx
	movl	%eax, ia32KSidt+1756
	movl	$int_dc, %eax
	movl	%edx, ia32KSidt+1752
	movzwl	%ax, %edx
	xorw	%ax, %ax
	orb	$238, %ah
	orl	$524288, %edx
	movl	%eax, ia32KSidt+1764
	movl	$int_dd, %eax
	movl	%edx, ia32KSidt+1760
	movzwl	%ax, %edx
	xorw	%ax, %ax
	orb	$238, %ah
	orl	$524288, %edx
	movl	%eax, ia32KSidt+1772
	movl	$int_de, %eax
	movl	%edx, ia32KSidt+1768
	movzwl	%ax, %edx
	xorw	%ax, %ax
	orb	$238, %ah
	orl	$524288, %edx
	movl	%eax, ia32KSidt+1780
	movl	$int_df, %eax
	movl	%edx, ia32KSidt+1776
	movzwl	%ax, %edx
	xorw	%ax, %ax
	orb	$238, %ah
	orl	$524288, %edx
	movl	%eax, ia32KSidt+1788
	movl	$int_e0, %eax
	movl	%edx, ia32KSidt+1784
	movzwl	%ax, %edx
	xorw	%ax, %ax
	orb	$238, %ah
	orl	$524288, %edx
	movl	%eax, ia32KSidt+1796
	movl	$int_e1, %eax
	movl	%edx, ia32KSidt+1792
	movzwl	%ax, %edx
	xorw	%ax, %ax
	orb	$238, %ah
	orl	$524288, %edx
	movl	%eax, ia32KSidt+1804
	movl	$int_e2, %eax
	movl	%edx, ia32KSidt+1800
	movzwl	%ax, %edx
	xorw	%ax, %ax
	orb	$238, %ah
	orl	$524288, %edx
	movl	%eax, ia32KSidt+1812
	movl	$int_e3, %eax
	movl	%edx, ia32KSidt+1808
	movzwl	%ax, %edx
	xorw	%ax, %ax
	orb	$238, %ah
	orl	$524288, %edx
	movl	%eax, ia32KSidt+1820
	movl	$int_e4, %eax
	movl	%edx, ia32KSidt+1816
	movzwl	%ax, %edx
	xorw	%ax, %ax
	orb	$238, %ah
	orl	$524288, %edx
	movl	%eax, ia32KSidt+1828
	movl	$int_e5, %eax
	movl	%edx, ia32KSidt+1824
	movzwl	%ax, %edx
	orl	$524288, %edx
	xorw	%ax, %ax
	orb	$238, %ah
	movl	%eax, ia32KSidt+1836
	movl	$int_e6, %eax
	movl	%edx, ia32KSidt+1832
	movzwl	%ax, %edx
	xorw	%ax, %ax
	orb	$238, %ah
	orl	$524288, %edx
	movl	%eax, ia32KSidt+1844
	movl	$int_e7, %eax
	movl	%edx, ia32KSidt+1840
	movzwl	%ax, %edx
	xorw	%ax, %ax
	orl	$524288, %edx
	orb	$238, %ah
	movl	%edx, ia32KSidt+1848
	movl	%eax, ia32KSidt+1852
	movl	$int_e8, %eax
	movzwl	%ax, %edx
	xorw	%ax, %ax
	orb	$238, %ah
	orl	$524288, %edx
	movl	%eax, ia32KSidt+1860
	movl	$int_e9, %eax
	movl	%edx, ia32KSidt+1856
	movzwl	%ax, %edx
	xorw	%ax, %ax
	orb	$238, %ah
	orl	$524288, %edx
	movl	%eax, ia32KSidt+1868
	movl	$int_ea, %eax
	movl	%edx, ia32KSidt+1864
	movzwl	%ax, %edx
	xorw	%ax, %ax
	orb	$238, %ah
	orl	$524288, %edx
	movl	%eax, ia32KSidt+1876
	movl	$int_eb, %eax
	movl	%edx, ia32KSidt+1872
	movzwl	%ax, %edx
	xorw	%ax, %ax
	orb	$238, %ah
	orl	$524288, %edx
	movl	%eax, ia32KSidt+1884
	movl	$int_ec, %eax
	movl	%edx, ia32KSidt+1880
	movzwl	%ax, %edx
	xorw	%ax, %ax
	orb	$238, %ah
	orl	$524288, %edx
	movl	%eax, ia32KSidt+1892
	movl	$int_ed, %eax
	movl	%edx, ia32KSidt+1888
	movzwl	%ax, %edx
	xorw	%ax, %ax
	orb	$238, %ah
	orl	$524288, %edx
	movl	%eax, ia32KSidt+1900
	movl	$int_ee, %eax
	movl	%edx, ia32KSidt+1896
	movzwl	%ax, %edx
	xorw	%ax, %ax
	orb	$238, %ah
	orl	$524288, %edx
	movl	%eax, ia32KSidt+1908
	movl	$int_ef, %eax
	movl	%edx, ia32KSidt+1904
	movzwl	%ax, %edx
	xorw	%ax, %ax
	orb	$238, %ah
	orl	$524288, %edx
	movl	%eax, ia32KSidt+1916
	movl	$int_f0, %eax
	movl	%edx, ia32KSidt+1912
	movzwl	%ax, %edx
	orl	$524288, %edx
	xorw	%ax, %ax
	orb	$238, %ah
	movl	%eax, ia32KSidt+1924
	movl	$int_f1, %eax
	movl	%edx, ia32KSidt+1920
	movzwl	%ax, %edx
	xorw	%ax, %ax
	orb	$238, %ah
	orl	$524288, %edx
	movl	%eax, ia32KSidt+1932
	movl	$int_f2, %eax
	movl	%edx, ia32KSidt+1928
	movzwl	%ax, %edx
	xorw	%ax, %ax
	orb	$238, %ah
	orl	$524288, %edx
	movl	%eax, ia32KSidt+1940
	movl	$int_f3, %eax
	movl	%edx, ia32KSidt+1936
	movzwl	%ax, %edx
	xorw	%ax, %ax
	orb	$238, %ah
	orl	$524288, %edx
	movl	%eax, ia32KSidt+1948
	movl	$int_f4, %eax
	movl	%edx, ia32KSidt+1944
	movzwl	%ax, %edx
	xorw	%ax, %ax
	orb	$238, %ah
	orl	$524288, %edx
	movl	%eax, ia32KSidt+1956
	movl	$int_f5, %eax
	movl	%edx, ia32KSidt+1952
	movzwl	%ax, %edx
	xorw	%ax, %ax
	orb	$238, %ah
	orl	$524288, %edx
	movl	%eax, ia32KSidt+1964
	movl	$int_f6, %eax
	movl	%edx, ia32KSidt+1960
	movzwl	%ax, %edx
	xorw	%ax, %ax
	orb	$238, %ah
	orl	$524288, %edx
	movl	%eax, ia32KSidt+1972
	movl	$int_f7, %eax
	movl	%edx, ia32KSidt+1968
	movzwl	%ax, %edx
	xorw	%ax, %ax
	orb	$238, %ah
	orl	$524288, %edx
	movl	%eax, ia32KSidt+1980
	movl	$int_f8, %eax
	movl	%edx, ia32KSidt+1976
	movzwl	%ax, %edx
	xorw	%ax, %ax
	orl	$524288, %edx
	orb	$238, %ah
	movl	%edx, ia32KSidt+1984
	movl	%eax, ia32KSidt+1988
	movl	$int_f9, %eax
	movzwl	%ax, %edx
	xorw	%ax, %ax
	orb	$238, %ah
	orl	$524288, %edx
	movl	%eax, ia32KSidt+1996
	movl	$int_fa, %eax
	movl	%edx, ia32KSidt+1992
	movzwl	%ax, %edx
	xorw	%ax, %ax
	orb	$238, %ah
	orl	$524288, %edx
	movl	%eax, ia32KSidt+2004
	movl	$int_fb, %eax
	movl	%edx, ia32KSidt+2000
	movzwl	%ax, %edx
	orl	$524288, %edx
	xorw	%ax, %ax
	orb	$238, %ah
	movl	%eax, ia32KSidt+2012
	movl	$int_fc, %eax
	movl	%edx, ia32KSidt+2008
	movzwl	%ax, %edx
	xorw	%ax, %ax
	orb	$238, %ah
	orl	$524288, %edx
	movl	%eax, ia32KSidt+2020
	movl	$int_fd, %eax
	movl	%edx, ia32KSidt+2016
	movzwl	%ax, %edx
	xorw	%ax, %ax
	orb	$238, %ah
	orl	$524288, %edx
	movl	%eax, ia32KSidt+2028
	movl	$int_fe, %eax
	movl	%edx, ia32KSidt+2024
	movzwl	%ax, %edx
	xorw	%ax, %ax
	orb	$238, %ah
	orl	$524288, %edx
	movl	%eax, ia32KSidt+2036
	movl	$int_ff, %eax
	movl	%edx, ia32KSidt+2032
	movzwl	%ax, %edx
	xorw	%ax, %ax
	orb	$238, %ah
	orl	$524288, %edx
	movl	%eax, ia32KSidt+2044
	movl	$1, %eax
	movl	%edx, ia32KSidt+2040
.L507:
	addl	$12, %esp
	.cfi_def_cfa_offset 4
	ret
	.cfi_endproc
.LFE313:
	.size	init_vm_state, .-init_vm_state
	.text
	.p2align 4,,15
	.globl	flushCacheRange
	.type	flushCacheRange, @function
flushCacheRange:
.LFB354:
	.cfi_startproc
	pushl	%edi
	.cfi_def_cfa_offset 8
	.cfi_offset 7, -8
	pushl	%esi
	.cfi_def_cfa_offset 12
	.cfi_offset 6, -12
	pushl	%ebx
	.cfi_def_cfa_offset 16
	.cfi_offset 3, -16
	subl	$16, %esp
	.cfi_def_cfa_offset 32
	movl	32(%esp), %esi
	movl	36(%esp), %edi
	call	ia32_mfence
	movl	ia32KScacheLineSizeBits, %ecx
	movl	$1, %eax
	movl	%esi, %ebx
	shrl	%cl, %ebx
	sall	%cl, %ebx
	movl	%edi, %ecx
	sall	%cl, %eax
	movl	$1, %edi
	addl	%eax, %esi
	cmpl	%esi, %ebx
	jae	.L513
	.p2align 4,,7
	.p2align 3
.L515:
	movl	%ebx, (%esp)
	call	flushCacheLine
	movl	ia32KScacheLineSizeBits, %ecx
	movl	%edi, %eax
	sall	%cl, %eax
	addl	%eax, %ebx
	cmpl	%esi, %ebx
	jb	.L515
.L513:
	addl	$16, %esp
	.cfi_def_cfa_offset 16
	popl	%ebx
	.cfi_restore 3
	.cfi_def_cfa_offset 12
	popl	%esi
	.cfi_restore 6
	.cfi_def_cfa_offset 8
	popl	%edi
	.cfi_restore 7
	.cfi_def_cfa_offset 4
	jmp	ia32_mfence
	.cfi_endproc
.LFE354:
	.size	flushCacheRange, .-flushCacheRange
	.p2align 4,,15
	.globl	Arch_initContext
	.type	Arch_initContext, @function
Arch_initContext:
.LFB355:
	.cfi_startproc
	pushl	%edi
	.cfi_def_cfa_offset 8
	.cfi_offset 7, -8
	movl	$128, %ecx
	pushl	%esi
	.cfi_def_cfa_offset 12
	.cfi_offset 6, -12
	movl	12(%esp), %edi
	movl	$ia32KSnullFpuState, %esi
	movl	$0, (%edi)
	addl	$80, %edi
	movl	$0, -76(%edi)
	movl	$0, -72(%edi)
	movl	$0, -68(%edi)
	movl	$0, -64(%edi)
	movl	$0, -60(%edi)
	movl	$0, -56(%edi)
	movl	$35, -52(%edi)
	movl	$35, -48(%edi)
	movl	$0, -44(%edi)
	movl	$0, -40(%edi)
	movl	$0, -32(%edi)
	movl	$0, -28(%edi)
	movl	$0, -36(%edi)
	movl	$0, -24(%edi)
	movl	$27, -20(%edi)
	movl	$514, -16(%edi)
	movl	$0, -12(%edi)
	movl	$35, -8(%edi)
	rep movsl
	popl	%esi
	.cfi_restore 6
	.cfi_def_cfa_offset 8
	popl	%edi
	.cfi_restore 7
	.cfi_def_cfa_offset 4
	ret
	.cfi_endproc
.LFE355:
	.size	Arch_initContext, .-Arch_initContext
	.p2align 4,,15
	.globl	sanitiseRegister
	.type	sanitiseRegister, @function
sanitiseRegister:
.LFB356:
	.cfi_startproc
	movl	4(%esp), %edx
	movl	8(%esp), %eax
	cmpl	$16, %edx
	je	.L523
	subl	$9, %edx
	cmpl	$1, %edx
	ja	.L521
	movl	%eax, %edx
	andl	$-9, %edx
	cmpl	$51, %edx
	movl	$0, %edx
	cmovne	%edx, %eax
.L521:
	rep ret
	.p2align 4,,7
	.p2align 3
.L523:
	andl	$4055, %eax
	orl	$514, %eax
	ret
	.cfi_endproc
.LFE356:
	.size	sanitiseRegister, .-sanitiseRegister
	.p2align 4,,15
	.globl	Arch_decodeInterruptControl
	.type	Arch_decodeInterruptControl, @function
Arch_decodeInterruptControl:
.LFB357:
	.cfi_startproc
	movl	$3, current_syscall_error+24
	movl	$3, %eax
	ret
	.cfi_endproc
.LFE357:
	.size	Arch_decodeInterruptControl, .-Arch_decodeInterruptControl
	.p2align 4,,15
	.globl	Arch_deriveCap
	.type	Arch_deriveCap, @function
Arch_deriveCap:
.LFB360:
	.cfi_startproc
	pushl	%ebp
	.cfi_def_cfa_offset 8
	.cfi_offset 5, -8
	pushl	%edi
	.cfi_def_cfa_offset 12
	.cfi_offset 7, -12
	pushl	%esi
	.cfi_def_cfa_offset 16
	.cfi_offset 6, -16
	pushl	%ebx
	.cfi_def_cfa_offset 20
	.cfi_offset 3, -20
	subl	$28, %esp
	.cfi_def_cfa_offset 48
	movl	56(%esp), %edx
	movl	48(%esp), %eax
	movl	60(%esp), %ebx
	movl	%edx, %esi
	movl	%edx, %ecx
	andl	$14, %esi
	andl	$15, %ecx
	movl	%esi, 12(%esp)
	movzbl	%dl, %esi
	cmpl	$14, 12(%esp)
	cmove	%esi, %ecx
	cmpl	$11, %ecx
	ja	.L528
	movl	%edx, %ebp
	movl	%ebx, %edi
	jmp	*.L530(,%ecx,4)
	.section	.rodata
	.align 4
	.align 4
.L530:
	.long	.L528
	.long	.L529
	.long	.L528
	.long	.L531
	.long	.L528
	.long	.L532
	.long	.L528
	.long	.L534
	.long	.L528
	.long	.L534
	.long	.L528
	.long	.L534
	.text
	.p2align 4,,7
	.p2align 3
.L534:
	movl	$0, (%eax)
	movl	%edx, 4(%eax)
	movl	%ebx, 8(%eax)
	addl	$28, %esp
	.cfi_remember_state
	.cfi_def_cfa_offset 20
	popl	%ebx
	.cfi_restore 3
	.cfi_def_cfa_offset 16
	popl	%esi
	.cfi_restore 6
	.cfi_def_cfa_offset 12
	popl	%edi
	.cfi_restore 7
	.cfi_def_cfa_offset 8
	popl	%ebp
	.cfi_restore 5
	.cfi_def_cfa_offset 4
	ret	$4
	.p2align 4,,7
	.p2align 3
.L532:
	.cfi_restore_state
	xorl	%edx, %edx
	andl	$65536, %ebx
	jne	.L537
.L541:
	movl	$3, current_syscall_error+24
	xorl	%edi, %edi
	xorl	%ebp, %ebp
	movb	$3, %dl
.L537:
	movl	%edx, (%eax)
	movl	%ebp, 4(%eax)
	movl	%edi, 8(%eax)
	addl	$28, %esp
	.cfi_remember_state
	.cfi_def_cfa_offset 20
	popl	%ebx
	.cfi_restore 3
	.cfi_def_cfa_offset 16
	popl	%esi
	.cfi_restore 6
	.cfi_def_cfa_offset 12
	popl	%edi
	.cfi_restore 7
	.cfi_def_cfa_offset 8
	popl	%ebp
	.cfi_restore 5
	.cfi_def_cfa_offset 4
	ret	$4
	.p2align 4,,7
	.p2align 3
.L529:
	.cfi_restore_state
	andl	$-1072693249, %ebx
	andl	$67108863, %edx
	movl	$0, (%eax)
	movl	%edx, 4(%eax)
	movl	%ebx, 8(%eax)
	addl	$28, %esp
	.cfi_remember_state
	.cfi_def_cfa_offset 20
	popl	%ebx
	.cfi_restore 3
	.cfi_def_cfa_offset 16
	popl	%esi
	.cfi_restore 6
	.cfi_def_cfa_offset 12
	popl	%edi
	.cfi_restore 7
	.cfi_def_cfa_offset 8
	popl	%ebp
	.cfi_restore 5
	.cfi_def_cfa_offset 4
	ret	$4
	.p2align 4,,7
	.p2align 3
.L531:
	.cfi_restore_state
	xorl	%edx, %edx
	andl	$67108864, %ebx
	je	.L541
	jmp	.L537
	.p2align 4,,7
	.p2align 3
.L528:
	call	halt
	.cfi_endproc
.LFE360:
	.size	Arch_deriveCap, .-Arch_deriveCap
	.p2align 4,,15
	.globl	Arch_updateCapData
	.type	Arch_updateCapData, @function
Arch_updateCapData:
.LFB361:
	.cfi_startproc
	pushl	%edi
	.cfi_def_cfa_offset 8
	.cfi_offset 7, -8
	pushl	%esi
	.cfi_def_cfa_offset 12
	.cfi_offset 6, -12
	pushl	%ebx
	.cfi_def_cfa_offset 16
	.cfi_offset 3, -16
	movl	28(%esp), %edx
	movl	16(%esp), %eax
	movl	32(%esp), %edi
	movl	%edx, %esi
	movl	%edx, %ecx
	andl	$14, %esi
	andl	$15, %ecx
	movzbl	%dl, %ebx
	cmpl	$14, %esi
	cmove	%ebx, %ecx
	cmpl	$11, %ecx
	jne	.L556
	movl	24(%esp), %ecx
	movzwl	24(%esp), %edx
	shrl	$16, %ecx
	cmpw	%dx, %cx
	ja	.L549
	cmpw	%dx, %di
	jb	.L549
	shrl	$16, %edi
	cmpw	%di, %cx
	jb	.L549
	sall	$16, %ecx
	orl	%edx, %ecx
	movl	$11, (%eax)
	movl	%ecx, 4(%eax)
	popl	%ebx
	.cfi_remember_state
	.cfi_restore 3
	.cfi_def_cfa_offset 12
	popl	%esi
	.cfi_restore 6
	.cfi_def_cfa_offset 8
	popl	%edi
	.cfi_restore 7
	.cfi_def_cfa_offset 4
	ret	$4
	.p2align 4,,7
	.p2align 3
.L556:
	.cfi_restore_state
	movl	%edx, (%eax)
	movl	%edi, 4(%eax)
	popl	%ebx
	.cfi_remember_state
	.cfi_restore 3
	.cfi_def_cfa_offset 12
	popl	%esi
	.cfi_restore 6
	.cfi_def_cfa_offset 8
	popl	%edi
	.cfi_restore 7
	.cfi_def_cfa_offset 4
	ret	$4
	.p2align 4,,7
	.p2align 3
.L549:
	.cfi_restore_state
	movl	$0, (%eax)
	movl	$0, 4(%eax)
	popl	%ebx
	.cfi_restore 3
	.cfi_def_cfa_offset 12
	popl	%esi
	.cfi_restore 6
	.cfi_def_cfa_offset 8
	popl	%edi
	.cfi_restore 7
	.cfi_def_cfa_offset 4
	ret	$4
	.cfi_endproc
.LFE361:
	.size	Arch_updateCapData, .-Arch_updateCapData
	.p2align 4,,15
	.globl	Arch_maskCapRights
	.type	Arch_maskCapRights, @function
Arch_maskCapRights:
.LFB362:
	.cfi_startproc
	pushl	%edi
	.cfi_def_cfa_offset 8
	.cfi_offset 7, -8
	pushl	%esi
	.cfi_def_cfa_offset 12
	.cfi_offset 6, -12
	pushl	%ebx
	.cfi_def_cfa_offset 16
	.cfi_offset 3, -16
	movl	24(%esp), %edx
	movl	16(%esp), %eax
	movl	28(%esp), %ebx
	movl	%edx, %edi
	movl	%edx, %ecx
	andl	$14, %edi
	andl	$15, %ecx
	movzbl	%dl, %esi
	cmpl	$14, %edi
	cmove	%esi, %ecx
	cmpl	$1, %ecx
	je	.L571
	movl	%edx, (%eax)
	movl	%ebx, 4(%eax)
	popl	%ebx
	.cfi_remember_state
	.cfi_restore 3
	.cfi_def_cfa_offset 12
	popl	%esi
	.cfi_restore 6
	.cfi_def_cfa_offset 8
	popl	%edi
	.cfi_restore 7
	.cfi_def_cfa_offset 4
	ret	$4
	.p2align 4,,7
	.p2align 3
.L571:
	.cfi_restore_state
	movl	%edx, %ecx
	andl	$50331648, %ecx
	shrl	$24, %ecx
	cmpl	$2, %ecx
	je	.L572
	cmpl	$3, %ecx
	movl	$16777216, %esi
	je	.L573
.L563:
	andl	$-50331649, %edx
	orl	%esi, %edx
	movl	%edx, (%eax)
	movl	%ebx, 4(%eax)
	popl	%ebx
	.cfi_remember_state
	.cfi_restore 3
	.cfi_def_cfa_offset 12
	popl	%esi
	.cfi_restore 6
	.cfi_def_cfa_offset 8
	popl	%edi
	.cfi_restore 7
	.cfi_def_cfa_offset 4
	ret	$4
	.p2align 4,,7
	.p2align 3
.L573:
	.cfi_restore_state
	testb	$2, 20(%esp)
	je	.L563
	movl	20(%esp), %ecx
	andl	$1, %ecx
	cmpl	$1, %ecx
	sbbl	%esi, %esi
	andl	$-16777216, %esi
	addl	$50331648, %esi
	jmp	.L563
	.p2align 4,,7
	.p2align 3
.L572:
	movl	20(%esp), %ecx
	andl	$2, %ecx
	shrl	%ecx
	cmpl	$1, %ecx
	sbbl	%esi, %esi
	andl	$-16777216, %esi
	addl	$33554432, %esi
	jmp	.L563
	.cfi_endproc
.LFE362:
	.size	Arch_maskCapRights, .-Arch_maskCapRights
	.p2align 4,,15
	.globl	Arch_finaliseCap
	.type	Arch_finaliseCap, @function
Arch_finaliseCap:
.LFB363:
	.cfi_startproc
	pushl	%edi
	.cfi_def_cfa_offset 8
	.cfi_offset 7, -8
	pushl	%esi
	.cfi_def_cfa_offset 12
	.cfi_offset 6, -12
	pushl	%ebx
	.cfi_def_cfa_offset 16
	.cfi_offset 3, -16
	subl	$32, %esp
	.cfi_def_cfa_offset 48
	movl	52(%esp), %ecx
	movl	48(%esp), %eax
	movl	56(%esp), %edi
	movl	%ecx, %esi
	movl	%ecx, %edx
	andl	$14, %esi
	andl	$15, %edx
	movzbl	%cl, %ebx
	cmpl	$14, %esi
	cmove	%ebx, %edx
	cmpl	$11, %edx
	ja	.L577
	jmp	*.L579(,%edx,4)
	.section	.rodata
	.align 4
	.align 4
.L579:
	.long	.L577
	.long	.L578
	.long	.L577
	.long	.L580
	.long	.L577
	.long	.L581
	.long	.L577
	.long	.L582
	.long	.L577
	.long	.L583
	.long	.L577
	.long	.L582
	.text
	.p2align 4,,7
	.p2align 3
.L581:
	movl	60(%esp), %esi
	testl	%esi, %esi
	je	.L582
	testl	$65536, %edi
	je	.L582
	andl	$16777200, %ecx
	movzwl	%di, %edi
	sall	$8, %ecx
	movl	%ecx, 4(%esp)
	movl	%edi, (%esp)
	movl	%eax, 28(%esp)
	call	deleteASID
	movl	28(%esp), %eax
	.p2align 4,,7
	.p2align 3
.L582:
	movl	$0, (%eax)
	movl	$0, 4(%eax)
	addl	$32, %esp
	.cfi_remember_state
	.cfi_def_cfa_offset 16
	popl	%ebx
	.cfi_restore 3
	.cfi_def_cfa_offset 12
	popl	%esi
	.cfi_restore 6
	.cfi_def_cfa_offset 8
	popl	%edi
	.cfi_restore 7
	.cfi_def_cfa_offset 4
	ret	$4
	.p2align 4,,7
	.p2align 3
.L583:
	.cfi_restore_state
	movl	60(%esp), %edx
	testl	%edx, %edx
	je	.L582
	movzwl	%di, %edi
	andl	$16777200, %ecx
	shrl	$10, %edi
	sall	$8, %ecx
	cmpl	%ecx, ia32KSASIDTable(,%edi,4)
	jne	.L582
	movl	ksCurThread, %edx
	movl	%eax, 28(%esp)
	movl	$0, ia32KSASIDTable(,%edi,4)
	movl	%edx, (%esp)
	call	setVMRoot
	movl	28(%esp), %eax
	jmp	.L582
	.p2align 4,,7
	.p2align 3
.L578:
	movl	%edi, %ebx
	movl	%ecx, %edx
	andl	$1072693248, %ebx
	shrl	$26, %edx
	shrl	$20, %ebx
	sall	$10, %edx
	addl	%ebx, %edx
	je	.L582
	andl	$16777200, %ecx
	sall	$8, %ecx
	movl	%ecx, 12(%esp)
	movl	%edi, %ecx
	sall	$12, %ecx
	shrl	$31, %edi
	movl	%ecx, 8(%esp)
	movl	%edx, 4(%esp)
	movl	%edi, (%esp)
	movl	%eax, 28(%esp)
	call	unmapPage
	movl	28(%esp), %eax
	jmp	.L582
	.p2align 4,,7
	.p2align 3
.L580:
	movl	60(%esp), %ebx
	testl	%ebx, %ebx
	je	.L582
	testl	$67108864, %edi
	je	.L582
	movl	%edi, %edx
	andl	$16777200, %ecx
	andl	$67107840, %edi
	sall	$8, %ecx
	sall	$22, %edx
	shrl	$10, %edi
	movl	%ecx, 8(%esp)
	movl	%edx, 4(%esp)
	movl	%edi, (%esp)
	movl	%eax, 28(%esp)
	call	unmapPageTable
	movl	28(%esp), %eax
	jmp	.L582
	.p2align 4,,7
	.p2align 3
.L577:
	call	halt
	.cfi_endproc
.LFE363:
	.size	Arch_finaliseCap, .-Arch_finaliseCap
	.p2align 4,,15
	.globl	Arch_recycleCap
	.type	Arch_recycleCap, @function
Arch_recycleCap:
.LFB365:
	.cfi_startproc
	pushl	%ebp
	.cfi_def_cfa_offset 8
	.cfi_offset 5, -8
	movl	%esp, %ebp
	.cfi_def_cfa_register 5
	pushl	%edi
	pushl	%esi
	pushl	%ebx
	subl	$44, %esp
	.cfi_offset 7, -12
	.cfi_offset 6, -16
	.cfi_offset 3, -20
	movl	16(%ebp), %ebx
	movl	8(%ebp), %esi
	movl	20(%ebp), %edi
	movl	%ebx, %eax
	movl	%ebx, %edx
	andl	$14, %eax
	andl	$15, %edx
	movzbl	%bl, %ecx
	cmpl	$14, %eax
	cmove	%ecx, %edx
	cmpl	$11, %edx
	ja	.L606
	jmp	*.L608(,%edx,4)
	.section	.rodata
	.align 4
	.align 4
.L608:
	.long	.L606
	.long	.L607
	.long	.L606
	.long	.L609
	.long	.L606
	.long	.L610
	.long	.L606
	.long	.L613
	.long	.L606
	.long	.L612
	.long	.L606
	.long	.L613
	.text
	.p2align 4,,7
	.p2align 3
.L612:
	movzwl	%di, %ecx
	shrl	$10, %ecx
	movl	ia32KSASIDTable(,%ecx,4), %eax
	movl	%eax, %edx
	movl	%eax, -36(%ebp)
	movl	%ebx, %eax
	andl	$16777200, %eax
	sall	$8, %eax
	cmpl	%eax, %edx
	jne	.L613
	movl	ksCurThread, %eax
	movl	$0, ia32KSASIDTable(,%ecx,4)
	movl	%ecx, -40(%ebp)
	movl	%eax, (%esp)
	call	setVMRoot
	movl	-36(%ebp), %eax
	movl	-40(%ebp), %ecx
	leal	4096(%eax), %edx
	.p2align 4,,7
	.p2align 3
.L705:
	movl	$0, (%eax)
	addl	$4, %eax
	cmpl	%edx, %eax
	jne	.L705
	movl	-36(%ebp), %eax
	movl	%eax, ia32KSASIDTable(,%ecx,4)
	.p2align 4,,7
	.p2align 3
.L613:
	movl	%ebx, (%esi)
	movl	%esi, %eax
	movl	%edi, 4(%esi)
	leal	-12(%ebp), %esp
	popl	%ebx
	.cfi_remember_state
	.cfi_restore 3
	popl	%esi
	.cfi_restore 6
	popl	%edi
	.cfi_restore 7
	popl	%ebp
	.cfi_restore 5
	.cfi_def_cfa 4, 4
	ret	$4
	.p2align 4,,7
	.p2align 3
.L607:
	.cfi_restore_state
	movl	%ebx, %edx
	movzbl	%bl, %ecx
	andl	$15, %edx
	cmpl	$14, %eax
	cmove	%ecx, %edx
	cmpl	$62, %edx
	ja	.L606
	jmp	*.L618(,%edx,4)
	.section	.rodata
	.align 4
	.align 4
.L618:
	.long	.L624
	.long	.L619
	.long	.L620
	.long	.L707
	.long	.L622
	.long	.L707
	.long	.L622
	.long	.L624
	.long	.L624
	.long	.L707
	.long	.L627
	.long	.L624
	.long	.L706
	.long	.L606
	.long	.L624
	.long	.L606
	.long	.L606
	.long	.L606
	.long	.L606
	.long	.L606
	.long	.L606
	.long	.L606
	.long	.L606
	.long	.L606
	.long	.L606
	.long	.L606
	.long	.L606
	.long	.L606
	.long	.L606
	.long	.L606
	.long	.L624
	.long	.L606
	.long	.L606
	.long	.L606
	.long	.L606
	.long	.L606
	.long	.L606
	.long	.L606
	.long	.L606
	.long	.L606
	.long	.L606
	.long	.L606
	.long	.L606
	.long	.L606
	.long	.L606
	.long	.L606
	.long	.L632
	.long	.L606
	.long	.L606
	.long	.L606
	.long	.L606
	.long	.L606
	.long	.L606
	.long	.L606
	.long	.L606
	.long	.L606
	.long	.L606
	.long	.L606
	.long	.L606
	.long	.L606
	.long	.L606
	.long	.L606
	.long	.L624
	.text
	.p2align 4,,7
	.p2align 3
.L609:
	movl	%ebx, %edx
	movzbl	%bl, %ecx
	andl	$15, %edx
	cmpl	$14, %eax
	cmove	%ecx, %edx
	cmpl	$62, %edx
	ja	.L606
	jmp	*.L660(,%edx,4)
	.section	.rodata
	.align 4
	.align 4
.L660:
	.long	.L666
	.long	.L661
	.long	.L662
	.long	.L712
	.long	.L664
	.long	.L712
	.long	.L664
	.long	.L666
	.long	.L666
	.long	.L712
	.long	.L669
	.long	.L666
	.long	.L711
	.long	.L606
	.long	.L666
	.long	.L606
	.long	.L606
	.long	.L606
	.long	.L606
	.long	.L606
	.long	.L606
	.long	.L606
	.long	.L606
	.long	.L606
	.long	.L606
	.long	.L606
	.long	.L606
	.long	.L606
	.long	.L606
	.long	.L606
	.long	.L666
	.long	.L606
	.long	.L606
	.long	.L606
	.long	.L606
	.long	.L606
	.long	.L606
	.long	.L606
	.long	.L606
	.long	.L606
	.long	.L606
	.long	.L606
	.long	.L606
	.long	.L606
	.long	.L606
	.long	.L606
	.long	.L674
	.long	.L606
	.long	.L606
	.long	.L606
	.long	.L606
	.long	.L606
	.long	.L606
	.long	.L606
	.long	.L606
	.long	.L606
	.long	.L606
	.long	.L606
	.long	.L606
	.long	.L606
	.long	.L606
	.long	.L606
	.long	.L666
	.text
	.p2align 4,,7
	.p2align 3
.L610:
	movl	%ebx, %eax
	andl	$16777200, %eax
	sall	$8, %eax
	leal	3584(%eax), %edx
	.p2align 4,,7
	.p2align 3
.L701:
	movl	$0, (%eax)
	addl	$4, %eax
	cmpl	%edx, %eax
	jne	.L701
.L696:
	movl	12(%ebp), %ecx
	leal	-32(%ebp), %eax
	movl	%eax, (%esp)
	movl	%ebx, 4(%esp)
	movl	%edi, 8(%esp)
	movl	%ecx, 12(%esp)
	call	Arch_finaliseCap
	movl	12(%ebp), %eax
	subl	$4, %esp
	testl	%eax, %eax
	je	.L613
	movl	%esi, %eax
	movl	%ebx, %edx
	movl	%edi, %ecx
	call	resetMemMapping
	leal	-12(%ebp), %esp
	movl	%esi, %eax
	popl	%ebx
	.cfi_remember_state
	.cfi_restore 3
	popl	%esi
	.cfi_restore 6
	popl	%edi
	.cfi_restore 7
	popl	%ebp
	.cfi_restore 5
	.cfi_def_cfa 4, 4
	ret	$4
	.p2align 4,,7
	.p2align 3
.L606:
	.cfi_restore_state
	call	halt
.L624:
	movl	$0, -36(%ebp)
.L629:
	movl	%ebx, %edx
	movzbl	%bl, %ecx
	andl	$15, %edx
	cmpl	$14, %eax
	cmove	%ecx, %edx
	cmpl	$62, %edx
	ja	.L606
	jmp	*.L640(,%edx,4)
	.section	.rodata
	.align 4
	.align 4
.L640:
	.long	.L709
	.long	.L647
	.long	.L646
	.long	.L647
	.long	.L646
	.long	.L647
	.long	.L646
	.long	.L709
	.long	.L709
	.long	.L647
	.long	.L648
	.long	.L709
	.long	.L649
	.long	.L606
	.long	.L709
	.long	.L606
	.long	.L606
	.long	.L606
	.long	.L606
	.long	.L606
	.long	.L606
	.long	.L606
	.long	.L606
	.long	.L606
	.long	.L606
	.long	.L606
	.long	.L606
	.long	.L606
	.long	.L606
	.long	.L606
	.long	.L709
	.long	.L606
	.long	.L606
	.long	.L606
	.long	.L606
	.long	.L606
	.long	.L606
	.long	.L606
	.long	.L606
	.long	.L606
	.long	.L606
	.long	.L606
	.long	.L606
	.long	.L606
	.long	.L606
	.long	.L606
	.long	.L650
	.long	.L606
	.long	.L606
	.long	.L606
	.long	.L606
	.long	.L606
	.long	.L606
	.long	.L606
	.long	.L606
	.long	.L606
	.long	.L606
	.long	.L606
	.long	.L606
	.long	.L606
	.long	.L606
	.long	.L606
	.long	.L709
	.text
.L666:
	movl	$0, -36(%ebp)
.L671:
	movl	%ebx, %edx
	movzbl	%bl, %ecx
	andl	$15, %edx
	cmpl	$14, %eax
	cmove	%ecx, %edx
	cmpl	$62, %edx
	ja	.L606
	jmp	*.L682(,%edx,4)
	.section	.rodata
	.align 4
	.align 4
.L682:
	.long	.L714
	.long	.L689
	.long	.L688
	.long	.L689
	.long	.L688
	.long	.L689
	.long	.L688
	.long	.L714
	.long	.L714
	.long	.L689
	.long	.L690
	.long	.L714
	.long	.L691
	.long	.L606
	.long	.L714
	.long	.L606
	.long	.L606
	.long	.L606
	.long	.L606
	.long	.L606
	.long	.L606
	.long	.L606
	.long	.L606
	.long	.L606
	.long	.L606
	.long	.L606
	.long	.L606
	.long	.L606
	.long	.L606
	.long	.L606
	.long	.L714
	.long	.L606
	.long	.L606
	.long	.L606
	.long	.L606
	.long	.L606
	.long	.L606
	.long	.L606
	.long	.L606
	.long	.L606
	.long	.L606
	.long	.L606
	.long	.L606
	.long	.L606
	.long	.L606
	.long	.L606
	.long	.L692
	.long	.L606
	.long	.L606
	.long	.L606
	.long	.L606
	.long	.L606
	.long	.L606
	.long	.L606
	.long	.L606
	.long	.L606
	.long	.L606
	.long	.L606
	.long	.L606
	.long	.L606
	.long	.L606
	.long	.L606
	.long	.L714
	.text
.L689:
	movl	%ebx, %edx
	andl	$16777200, %edx
	sall	$8, %edx
.L681:
	movzbl	-36(%ebp), %ecx
	movl	$1, %eax
	sall	%cl, %eax
	testl	%eax, %eax
	je	.L697
	.p2align 4,,7
	.p2align 3
.L721:
	movl	$0, (%edx)
	addl	$4, %edx
	subl	$4, %eax
	jne	.L721
.L697:
	testl	$67108864, %edi
	je	.L696
	movl	%ebx, %eax
	andl	$16777200, %eax
	sall	$8, %eax
	movl	%eax, 8(%esp)
	movl	%edi, %eax
	sall	$22, %eax
	movl	%eax, 4(%esp)
	movl	%edi, %eax
	andl	$67107840, %eax
	shrl	$10, %eax
	movl	%eax, (%esp)
	call	unmapPageTable
	jmp	.L696
.L647:
	movl	%ebx, %edx
	andl	$16777200, %edx
	sall	$8, %edx
.L639:
	movzbl	-36(%ebp), %ecx
	movl	$1, %eax
	sall	%cl, %eax
	testl	%eax, %eax
	je	.L654
	.p2align 4,,7
	.p2align 3
.L720:
	movl	$0, (%edx)
	addl	$4, %edx
	subl	$4, %eax
	jne	.L720
.L654:
	movl	12(%ebp), %ecx
	leal	-32(%ebp), %eax
	movl	%ebx, 4(%esp)
	movl	%edi, 8(%esp)
	movl	%eax, (%esp)
	movl	%ecx, 12(%esp)
	call	Arch_finaliseCap
	movl	%esi, %eax
	movl	%ebx, %edx
	movl	%edi, %ecx
	subl	$4, %esp
	call	resetMemMapping
	leal	-12(%ebp), %esp
	movl	%esi, %eax
	popl	%ebx
	.cfi_remember_state
	.cfi_restore 3
	popl	%esi
	.cfi_restore 6
	popl	%edi
	.cfi_restore 7
	popl	%ebp
	.cfi_restore 5
	.cfi_def_cfa 4, 4
	ret	$4
.L646:
	.cfi_restore_state
	movl	%ebx, %edx
	andl	$-16, %edx
	jmp	.L639
.L688:
	movl	%ebx, %edx
	andl	$-16, %edx
	jmp	.L681
.L707:
	movl	$12, -36(%ebp)
	jmp	.L629
.L712:
	movl	$12, -36(%ebp)
	jmp	.L671
.L691:
	movl	%ebx, %edx
	andl	$-1024, %edx
	jmp	.L681
.L692:
	movl	%ebx, %eax
	andl	$16128, %eax
	shrl	$8, %eax
	cmpl	$32, %eax
	je	.L715
	leal	1(%eax), %ecx
	movl	$-1, %edx
	sall	%cl, %edx
	andl	%edi, %edx
	jmp	.L681
.L650:
	movl	%ebx, %eax
	andl	$16128, %eax
	shrl	$8, %eax
	cmpl	$32, %eax
	je	.L710
	leal	1(%eax), %ecx
	movl	$-1, %edx
	sall	%cl, %edx
	andl	%edi, %edx
	jmp	.L639
.L649:
	movl	%ebx, %edx
	andl	$-1024, %edx
	jmp	.L639
.L648:
	movl	%ebx, %edx
	andl	$2147483632, %edx
	addl	%edx, %edx
	jmp	.L639
.L709:
	xorl	%edx, %edx
	jmp	.L639
.L690:
	movl	%ebx, %edx
	andl	$2147483632, %edx
	addl	%edx, %edx
	jmp	.L681
.L714:
	xorl	%edx, %edx
	jmp	.L681
.L669:
	movl	%edi, %edx
	andl	$260046848, %edx
	shrl	$23, %edx
	leal	4(%edx), %ecx
	movl	%ecx, -36(%ebp)
	jmp	.L671
.L711:
	movl	$10, -36(%ebp)
	jmp	.L671
.L619:
	movl	%edi, %edx
	shrl	$31, %edx
	testl	%edx, %edx
	je	.L707
	cmpl	$1, %edx
	jne	.L606
	movl	$22, -36(%ebp)
	jmp	.L629
.L632:
	movl	%ebx, %edx
	andl	$16128, %edx
	shrl	$8, %edx
	cmpl	$32, %edx
	movl	$10, -36(%ebp)
	je	.L629
	andl	$31, %edx
	leal	4(%edx), %ecx
	movl	%ecx, -36(%ebp)
	jmp	.L629
.L620:
	movl	%edi, %ecx
	andl	$31, %ecx
	movl	%ecx, -36(%ebp)
	jmp	.L629
.L664:
	movl	$4, -36(%ebp)
	jmp	.L671
.L662:
	movl	%edi, %ecx
	andl	$31, %ecx
	movl	%ecx, -36(%ebp)
	jmp	.L671
.L661:
	movl	%edi, %edx
	shrl	$31, %edx
	testl	%edx, %edx
	je	.L712
	cmpl	$1, %edx
	jne	.L606
	movl	$22, -36(%ebp)
	jmp	.L671
.L674:
	movl	%ebx, %edx
	andl	$16128, %edx
	shrl	$8, %edx
	cmpl	$32, %edx
	movl	$10, -36(%ebp)
	je	.L671
	andl	$31, %edx
	leal	4(%edx), %ecx
	movl	%ecx, -36(%ebp)
	jmp	.L671
.L627:
	movl	%edi, %edx
	andl	$260046848, %edx
	shrl	$23, %edx
	leal	4(%edx), %ecx
	movl	%ecx, -36(%ebp)
	jmp	.L629
.L706:
	movl	$10, -36(%ebp)
	jmp	.L629
.L622:
	movl	$4, -36(%ebp)
	jmp	.L629
.L715:
	movl	$-16, %edx
	andl	%edi, %edx
	jmp	.L681
.L710:
	movl	$-16, %edx
	andl	%edi, %edx
	jmp	.L639
	.cfi_endproc
.LFE365:
	.size	Arch_recycleCap, .-Arch_recycleCap
	.p2align 4,,15
	.globl	Arch_hasRecycleRights
	.type	Arch_hasRecycleRights, @function
Arch_hasRecycleRights:
.LFB366:
	.cfi_startproc
	pushl	%ebx
	.cfi_def_cfa_offset 8
	.cfi_offset 3, -8
	movl	8(%esp), %eax
	movl	%eax, %ebx
	movl	%eax, %edx
	andl	$14, %ebx
	andl	$15, %edx
	movzbl	%al, %ecx
	cmpl	$14, %ebx
	cmove	%ecx, %edx
	cmpl	$1, %edx
	jne	.L735
	andl	$50331648, %eax
	cmpl	$50331648, %eax
	sete	%al
	movzbl	%al, %eax
	popl	%ebx
	.cfi_remember_state
	.cfi_restore 3
	.cfi_def_cfa_offset 4
	ret
	.p2align 4,,7
	.p2align 3
.L735:
	.cfi_restore_state
	movl	$1, %eax
	popl	%ebx
	.cfi_restore 3
	.cfi_def_cfa_offset 4
	ret
	.cfi_endproc
.LFE366:
	.size	Arch_hasRecycleRights, .-Arch_hasRecycleRights
	.p2align 4,,15
	.globl	Arch_sameRegionAs
	.type	Arch_sameRegionAs, @function
Arch_sameRegionAs:
.LFB367:
	.cfi_startproc
	pushl	%ebp
	.cfi_def_cfa_offset 8
	.cfi_offset 5, -8
	pushl	%edi
	.cfi_def_cfa_offset 12
	.cfi_offset 7, -12
	pushl	%esi
	.cfi_def_cfa_offset 16
	.cfi_offset 6, -16
	pushl	%ebx
	.cfi_def_cfa_offset 20
	.cfi_offset 3, -20
	subl	$12, %esp
	.cfi_def_cfa_offset 32
	movl	32(%esp), %edx
	movl	36(%esp), %esi
	movl	40(%esp), %ecx
	movl	44(%esp), %edi
	movl	%edx, %ebp
	movl	%edx, %eax
	andl	$14, %ebp
	andl	$15, %eax
	movzbl	%dl, %ebx
	cmpl	$14, %ebp
	cmove	%ebx, %eax
	cmpl	$11, %eax
	ja	.L767
	jmp	*.L742(,%eax,4)
	.section	.rodata
	.align 4
	.align 4
.L742:
	.long	.L767
	.long	.L741
	.long	.L767
	.long	.L743
	.long	.L767
	.long	.L744
	.long	.L767
	.long	.L745
	.long	.L767
	.long	.L746
	.long	.L767
	.long	.L747
	.text
	.p2align 4,,7
	.p2align 3
.L747:
	movl	%ecx, %edx
	movl	%ecx, %eax
	andl	$14, %edx
	andl	$15, %eax
	movzbl	%cl, %ecx
	cmpl	$14, %edx
	cmove	%ecx, %eax
	cmpl	$11, %eax
	sete	%al
	movzbl	%al, %eax
.L740:
	addl	$12, %esp
	.cfi_remember_state
	.cfi_def_cfa_offset 20
	popl	%ebx
	.cfi_restore 3
	.cfi_def_cfa_offset 16
	popl	%esi
	.cfi_restore 6
	.cfi_def_cfa_offset 12
	popl	%edi
	.cfi_restore 7
	.cfi_def_cfa_offset 8
	popl	%ebp
	.cfi_restore 5
	.cfi_def_cfa_offset 4
	ret
	.p2align 4,,7
	.p2align 3
.L741:
	.cfi_restore_state
	movl	%ecx, %ebp
	movl	%ecx, %ebx
	andl	$14, %ebp
	andl	$15, %ebx
	movzbl	%cl, %eax
	cmpl	$14, %ebp
	cmove	%eax, %ebx
	xorl	%eax, %eax
	cmpl	$1, %ebx
	jne	.L740
	shrl	$31, %esi
	testl	%esi, %esi
	je	.L751
	cmpl	$1, %esi
	jne	.L783
	movl	$4194304, %eax
.L752:
	shrl	$31, %edi
	testl	%edi, %edi
	je	.L754
	cmpl	$1, %edi
	jne	.L783
	movl	$4194304, %ebx
.L755:
	andl	$16777200, %edx
	andl	$16777200, %ecx
	sall	$8, %edx
	sall	$8, %ecx
	leal	-1(%ecx,%ebx), %ebx
	leal	-1(%edx,%eax), %eax
	cmpl	%ebx, %eax
	jb	.L767
	cmpl	%ecx, %edx
	ja	.L767
	xorl	%eax, %eax
	cmpl	%ecx, %ebx
	setae	%al
	jmp	.L740
	.p2align 4,,7
	.p2align 3
.L743:
	movl	%ecx, %esi
	movl	%ecx, %ebx
	andl	$14, %esi
	andl	$15, %ebx
	movzbl	%cl, %eax
	cmpl	$14, %esi
	cmove	%eax, %ebx
	xorl	%eax, %eax
	cmpl	$3, %ebx
	jne	.L740
.L782:
	andl	$16777200, %edx
	andl	$16777200, %ecx
	xorl	%eax, %eax
	cmpl	%edx, %ecx
	sete	%al
	jmp	.L740
	.p2align 4,,7
	.p2align 3
.L744:
	movl	%ecx, %esi
	movl	%ecx, %ebx
	andl	$14, %esi
	andl	$15, %ebx
	movzbl	%cl, %eax
	cmpl	$14, %esi
	cmove	%eax, %ebx
	xorl	%eax, %eax
	cmpl	$5, %ebx
	je	.L782
	addl	$12, %esp
	.cfi_remember_state
	.cfi_def_cfa_offset 20
	popl	%ebx
	.cfi_restore 3
	.cfi_def_cfa_offset 16
	popl	%esi
	.cfi_restore 6
	.cfi_def_cfa_offset 12
	popl	%edi
	.cfi_restore 7
	.cfi_def_cfa_offset 8
	popl	%ebp
	.cfi_restore 5
	.cfi_def_cfa_offset 4
	ret
	.p2align 4,,7
	.p2align 3
.L745:
	.cfi_restore_state
	movl	%ecx, %edx
	movl	%ecx, %eax
	andl	$14, %edx
	andl	$15, %eax
	movzbl	%cl, %ecx
	cmpl	$14, %edx
	cmove	%ecx, %eax
	cmpl	$7, %eax
	sete	%al
	addl	$12, %esp
	.cfi_remember_state
	.cfi_def_cfa_offset 20
	popl	%ebx
	.cfi_restore 3
	.cfi_def_cfa_offset 16
	movzbl	%al, %eax
	popl	%esi
	.cfi_restore 6
	.cfi_def_cfa_offset 12
	popl	%edi
	.cfi_restore 7
	.cfi_def_cfa_offset 8
	popl	%ebp
	.cfi_restore 5
	.cfi_def_cfa_offset 4
	ret
	.p2align 4,,7
	.p2align 3
.L746:
	.cfi_restore_state
	movl	%ecx, %esi
	movl	%ecx, %ebx
	andl	$14, %esi
	andl	$15, %ebx
	movzbl	%cl, %eax
	cmpl	$14, %esi
	cmove	%eax, %ebx
	xorl	%eax, %eax
	cmpl	$9, %ebx
	je	.L782
	addl	$12, %esp
	.cfi_remember_state
	.cfi_def_cfa_offset 20
	popl	%ebx
	.cfi_restore 3
	.cfi_def_cfa_offset 16
	popl	%esi
	.cfi_restore 6
	.cfi_def_cfa_offset 12
	popl	%edi
	.cfi_restore 7
	.cfi_def_cfa_offset 8
	popl	%ebp
	.cfi_restore 5
	.cfi_def_cfa_offset 4
	ret
	.p2align 4,,7
	.p2align 3
.L767:
	.cfi_restore_state
	xorl	%eax, %eax
	jmp	.L740
	.p2align 4,,7
	.p2align 3
.L783:
	call	halt
	.p2align 4,,7
	.p2align 3
.L751:
	movl	$4096, %eax
	jmp	.L752
.L754:
	movl	$4096, %ebx
	jmp	.L755
	.cfi_endproc
.LFE367:
	.size	Arch_sameRegionAs, .-Arch_sameRegionAs
	.p2align 4,,15
	.globl	Arch_sameObjectAs
	.type	Arch_sameObjectAs, @function
Arch_sameObjectAs:
.LFB368:
	.cfi_startproc
	pushl	%ebp
	.cfi_def_cfa_offset 8
	.cfi_offset 5, -8
	pushl	%edi
	.cfi_def_cfa_offset 12
	.cfi_offset 7, -12
	pushl	%esi
	.cfi_def_cfa_offset 16
	.cfi_offset 6, -16
	pushl	%ebx
	.cfi_def_cfa_offset 20
	.cfi_offset 3, -20
	movl	20(%esp), %eax
	movl	24(%esp), %edi
	movl	28(%esp), %ecx
	movl	32(%esp), %ebp
	movl	%eax, %esi
	movl	%eax, %edx
	andl	$14, %esi
	andl	$15, %edx
	movzbl	%al, %ebx
	cmpl	$14, %esi
	cmove	%ebx, %edx
	cmpl	$1, %edx
	je	.L796
.L789:
	movl	%ecx, 28(%esp)
	movl	%ebp, 32(%esp)
	movl	%eax, 20(%esp)
	movl	%edi, 24(%esp)
	popl	%ebx
	.cfi_remember_state
	.cfi_restore 3
	.cfi_def_cfa_offset 16
	popl	%esi
	.cfi_restore 6
	.cfi_def_cfa_offset 12
	popl	%edi
	.cfi_restore 7
	.cfi_def_cfa_offset 8
	popl	%ebp
	.cfi_restore 5
	.cfi_def_cfa_offset 4
	jmp	Arch_sameRegionAs
	.p2align 4,,7
	.p2align 3
.L796:
	.cfi_restore_state
	movl	%ecx, %esi
	movl	%ecx, %edx
	andl	$14, %esi
	andl	$15, %edx
	movzbl	%cl, %ebx
	cmpl	$14, %esi
	cmove	%ebx, %edx
	cmpl	$1, %edx
	jne	.L789
	andl	$16777200, %eax
	andl	$16777200, %ecx
	movl	%eax, %edx
	xorl	%eax, %eax
	cmpl	%edx, %ecx
	je	.L797
.L793:
	popl	%ebx
	.cfi_remember_state
	.cfi_restore 3
	.cfi_def_cfa_offset 16
	popl	%esi
	.cfi_restore 6
	.cfi_def_cfa_offset 12
	popl	%edi
	.cfi_restore 7
	.cfi_def_cfa_offset 8
	popl	%ebp
	.cfi_restore 5
	.cfi_def_cfa_offset 4
	ret
	.p2align 4,,7
	.p2align 3
.L797:
	.cfi_restore_state
	shrl	$31, %edi
	xorl	%eax, %eax
	shrl	$31, %ebp
	cmpl	%ebp, %edi
	sete	%al
	jmp	.L793
	.cfi_endproc
.LFE368:
	.size	Arch_sameObjectAs, .-Arch_sameObjectAs
	.p2align 4,,15
	.globl	Arch_getObjectSize
	.type	Arch_getObjectSize, @function
Arch_getObjectSize:
.LFB369:
	.cfi_startproc
	subl	$12, %esp
	.cfi_def_cfa_offset 16
	movl	16(%esp), %eax
	cmpl	$6, %eax
	je	.L803
	ja	.L801
	cmpl	$5, %eax
	jne	.L799
.L802:
	movl	$12, %eax
	addl	$12, %esp
	.cfi_remember_state
	.cfi_def_cfa_offset 4
	ret
	.p2align 4,,7
	.p2align 3
.L801:
	.cfi_restore_state
	cmpl	$8, %eax
	jbe	.L802
.L799:
	call	halt
	.p2align 4,,7
	.p2align 3
.L803:
	movl	$22, %eax
	addl	$12, %esp
	.cfi_def_cfa_offset 4
	ret
	.cfi_endproc
.LFE369:
	.size	Arch_getObjectSize, .-Arch_getObjectSize
	.p2align 4,,15
	.globl	Arch_createObject
	.type	Arch_createObject, @function
Arch_createObject:
.LFB370:
	.cfi_startproc
	pushl	%esi
	.cfi_def_cfa_offset 8
	.cfi_offset 6, -8
	pushl	%ebx
	.cfi_def_cfa_offset 12
	.cfi_offset 3, -12
	subl	$4, %esp
	.cfi_def_cfa_offset 16
	movl	20(%esp), %esi
	movl	16(%esp), %eax
	movl	24(%esp), %ecx
	cmpl	$6, %esi
	je	.L810
	leal	4096(%ecx), %ebx
	movl	%ecx, %edx
	jbe	.L831
	cmpl	$7, %esi
	je	.L821
	cmpl	$8, %esi
	jne	.L809
	.p2align 4,,7
	.p2align 3
.L827:
	movl	$0, (%edx)
	addl	$4, %edx
	cmpl	%ebx, %edx
	jne	.L827
	movl	ia32KSkernelPD, %ebx
	movl	$896, %edx
	.p2align 4,,7
	.p2align 3
.L825:
	movl	(%ebx,%edx,4), %esi
	movl	%esi, (%ecx,%edx,4)
	addl	$1, %edx
	cmpl	$1024, %edx
	jne	.L825
	andl	$-4096, %ecx
	shrl	$8, %ecx
	orl	$5, %ecx
	movl	%ecx, (%eax)
	movl	$0, 4(%eax)
	addl	$4, %esp
	.cfi_remember_state
	.cfi_def_cfa_offset 12
	popl	%ebx
	.cfi_restore 3
	.cfi_def_cfa_offset 8
	popl	%esi
	.cfi_restore 6
	.cfi_def_cfa_offset 4
	ret	$4
	.p2align 4,,7
	.p2align 3
.L821:
	.cfi_restore_state
	movl	$0, (%edx)
	addl	$4, %edx
	cmpl	%ebx, %edx
	jne	.L821
	andl	$-4096, %ecx
	shrl	$8, %ecx
	orl	$3, %ecx
	movl	%ecx, (%eax)
	movl	$0, 4(%eax)
	addl	$4, %esp
	.cfi_remember_state
	.cfi_def_cfa_offset 12
	popl	%ebx
	.cfi_restore 3
	.cfi_def_cfa_offset 8
	popl	%esi
	.cfi_restore 6
	.cfi_def_cfa_offset 4
	ret	$4
	.p2align 4,,7
	.p2align 3
.L831:
	.cfi_restore_state
	cmpl	$5, %esi
	jne	.L809
	.p2align 4,,7
	.p2align 3
.L826:
	movl	$0, (%edx)
	addl	$4, %edx
	cmpl	%ebx, %edx
	jne	.L826
	andl	$-4096, %ecx
	shrl	$8, %ecx
	orl	$50331649, %ecx
	movl	%ecx, (%eax)
	movl	$0, 4(%eax)
	addl	$4, %esp
	.cfi_remember_state
	.cfi_def_cfa_offset 12
	popl	%ebx
	.cfi_restore 3
	.cfi_def_cfa_offset 8
	popl	%esi
	.cfi_restore 6
	.cfi_def_cfa_offset 4
	ret	$4
	.p2align 4,,7
	.p2align 3
.L810:
	.cfi_restore_state
	leal	4194304(%ecx), %ebx
	movl	%ecx, %edx
	.p2align 4,,7
	.p2align 3
.L819:
	movl	$0, (%edx)
	addl	$4, %edx
	cmpl	%ebx, %edx
	jne	.L819
	andl	$-4096, %ecx
	shrl	$8, %ecx
	orl	$50331649, %ecx
	movl	%ecx, (%eax)
	movl	$-2147483648, 4(%eax)
	addl	$4, %esp
	.cfi_remember_state
	.cfi_def_cfa_offset 12
	popl	%ebx
	.cfi_restore 3
	.cfi_def_cfa_offset 8
	popl	%esi
	.cfi_restore 6
	.cfi_def_cfa_offset 4
	ret	$4
	.p2align 4,,7
	.p2align 3
.L809:
	.cfi_restore_state
	call	halt
	.cfi_endproc
.LFE370:
	.size	Arch_createObject, .-Arch_createObject
	.p2align 4,,15
	.globl	Arch_prepareThreadDelete
	.type	Arch_prepareThreadDelete, @function
Arch_prepareThreadDelete:
.LFB372:
	.cfi_startproc
	movl	ia32KSfpuOwner, %eax
	cmpl	%eax, 4(%esp)
	je	.L834
	rep ret
	.p2align 4,,7
	.p2align 3
.L834:
	xorl	%eax, %eax
	jmp	switchFpuOwner
	.cfi_endproc
.LFE372:
	.size	Arch_prepareThreadDelete, .-Arch_prepareThreadDelete
	.p2align 4,,15
	.globl	setMRs_fault
	.type	setMRs_fault, @function
setMRs_fault:
.LFB374:
	.cfi_startproc
	pushl	%esi
	.cfi_def_cfa_offset 8
	.cfi_offset 6, -8
	pushl	%ebx
	.cfi_def_cfa_offset 12
	.cfi_offset 3, -12
	subl	$4, %esp
	.cfi_def_cfa_offset 16
	movl	16(%esp), %edx
	movl	20(%esp), %ebx
	movl	24(%esp), %ecx
	movl	604(%edx), %eax
	andl	$7, %eax
	cmpl	$2, %eax
	je	.L837
	jbe	.L863
	cmpl	$3, %eax
	je	.L840
	cmpl	$4, %eax
	.p2align 4,,5
	jne	.L836
	movl	44(%edx), %eax
	testl	%ecx, %ecx
	movl	%eax, 20(%ebx)
	movl	68(%edx), %eax
	movl	%eax, 24(%ebx)
	je	.L843
	movl	64(%edx), %eax
	movl	%eax, 12(%ecx)
	movl	608(%edx), %eax
	movl	%eax, 16(%ecx)
	movl	604(%edx), %eax
	shrl	$3, %eax
	movl	%eax, 20(%ecx)
	movl	$5, %eax
	jmp	.L849
	.p2align 4,,7
	.p2align 3
.L840:
	movl	(%edx), %eax
	testl	%ecx, %ecx
	movl	%eax, 20(%ebx)
	movl	4(%edx), %eax
	movl	%eax, 24(%ebx)
	movl	$2, %eax
	je	.L843
	.p2align 4,,7
	.p2align 3
.L857:
	addl	$1, %eax
	movl	syscallMessage-4(,%eax,4), %ebx
	cmpl	$10, %eax
	movl	(%edx,%ebx,4), %esi
	movl	%esi, (%ecx,%eax,4)
	jne	.L857
	movl	608(%edx), %eax
	movl	%eax, 44(%ecx)
	addl	$4, %esp
	.cfi_remember_state
	.cfi_def_cfa_offset 12
	movl	$11, %eax
	popl	%ebx
	.cfi_restore 3
	.cfi_def_cfa_offset 8
	popl	%esi
	.cfi_restore 6
	.cfi_def_cfa_offset 4
	ret
	.p2align 4,,7
	.p2align 3
.L863:
	.cfi_restore_state
	cmpl	$1, %eax
	jne	.L836
	movl	44(%edx), %eax
	testl	%ecx, %ecx
	movl	%eax, 20(%ebx)
	movl	608(%edx), %eax
	movl	%eax, 24(%ebx)
	je	.L843
	movl	604(%edx), %eax
	shrl	$31, %eax
	movl	%eax, 12(%ecx)
	movl	612(%edx), %ebx
	movl	616(%edx), %esi
	movl	%ebx, %eax
	andl	$3, %eax
	leal	1(%eax), %edx
	cmpl	$2, %eax
	movl	%edx, 16(%ecx)
	je	.L846
	cmpl	$3, %eax
	je	.L847
	cmpl	$1, %eax
	jne	.L862
	andl	$252, %ebx
	movb	$5, %al
	shrl	$2, %ebx
	movl	%ebx, 20(%ecx)
	jmp	.L849
	.p2align 4,,7
	.p2align 3
.L836:
	call	halt
	.p2align 4,,7
	.p2align 3
.L837:
	movl	44(%edx), %eax
	testl	%ecx, %ecx
	movl	%eax, 20(%ebx)
	movl	608(%edx), %eax
	movl	%eax, 24(%ebx)
	je	.L843
	movl	604(%edx), %eax
	andl	$524288, %eax
	shrl	$19, %eax
	movl	%eax, 12(%ecx)
	movl	604(%edx), %eax
	shrl	$27, %eax
	movl	%eax, 16(%ecx)
.L862:
	movl	$4, %eax
.L849:
	addl	$4, %esp
	.cfi_remember_state
	.cfi_def_cfa_offset 12
	popl	%ebx
	.cfi_restore 3
	.cfi_def_cfa_offset 8
	popl	%esi
	.cfi_restore 6
	.cfi_def_cfa_offset 4
	ret
	.p2align 4,,7
	.p2align 3
.L843:
	.cfi_restore_state
	addl	$4, %esp
	.cfi_remember_state
	.cfi_def_cfa_offset 12
	movl	$2, %eax
	popl	%ebx
	.cfi_restore 3
	.cfi_def_cfa_offset 8
	popl	%esi
	.cfi_restore 6
	.cfi_def_cfa_offset 4
	ret
	.p2align 4,,7
	.p2align 3
.L847:
	.cfi_restore_state
	movl	%ebx, %eax
	andl	$252, %ebx
	andl	$16128, %eax
	shrl	$8, %eax
	shrl	$2, %ebx
	movl	%eax, 20(%ecx)
	movl	$7, %eax
	movl	%esi, 24(%ecx)
	movl	%ebx, 28(%ecx)
	jmp	.L849
	.p2align 4,,7
	.p2align 3
.L846:
	movl	%ebx, %eax
	andl	$16128, %ebx
	andl	$252, %eax
	shrl	$2, %eax
	shrl	$8, %ebx
	movl	%eax, 20(%ecx)
	movl	$6, %eax
	movl	%ebx, 24(%ecx)
	jmp	.L849
	.cfi_endproc
.LFE374:
	.size	setMRs_fault, .-setMRs_fault
	.p2align 4,,15
	.globl	setMRs_syscall_error
	.type	setMRs_syscall_error, @function
setMRs_syscall_error:
.LFB375:
	.cfi_startproc
	pushl	%esi
	.cfi_def_cfa_offset 8
	.cfi_offset 6, -8
	pushl	%ebx
	.cfi_def_cfa_offset 12
	.cfi_offset 3, -12
	subl	$4, %esp
	.cfi_def_cfa_offset 16
	movl	current_syscall_error+24, %eax
	cmpl	$10, %eax
	ja	.L865
	jmp	*.L867(,%eax,4)
	.section	.rodata
	.align 4
	.align 4
.L867:
	.long	.L865
	.long	.L866
	.long	.L868
	.long	.L877
	.long	.L870
	.long	.L877
	.long	.L871
	.long	.L877
	.long	.L877
	.long	.L877
	.long	.L872
	.text
	.p2align 4,,7
	.p2align 3
.L877:
	xorl	%eax, %eax
.L869:
	addl	$4, %esp
	.cfi_remember_state
	.cfi_def_cfa_offset 12
	popl	%ebx
	.cfi_restore 3
	.cfi_def_cfa_offset 8
	popl	%esi
	.cfi_restore 6
	.cfi_def_cfa_offset 4
	ret
	.p2align 4,,7
	.p2align 3
.L870:
	.cfi_restore_state
	movl	current_syscall_error+8, %eax
	movl	16(%esp), %ecx
	movl	%eax, 20(%ecx)
	movl	current_syscall_error+12, %eax
	movl	%eax, 24(%ecx)
	addl	$4, %esp
	.cfi_remember_state
	.cfi_def_cfa_offset 12
	movl	$2, %eax
	popl	%ebx
	.cfi_restore 3
	.cfi_def_cfa_offset 8
	popl	%esi
	.cfi_restore 6
	.cfi_def_cfa_offset 4
	ret
	.p2align 4,,7
	.p2align 3
.L872:
	.cfi_restore_state
	movl	current_syscall_error+16, %eax
	movl	16(%esp), %esi
	movl	%eax, 20(%esi)
	addl	$4, %esp
	.cfi_remember_state
	.cfi_def_cfa_offset 12
	xorl	%eax, %eax
	popl	%ebx
	.cfi_restore 3
	.cfi_def_cfa_offset 8
	popl	%esi
	.cfi_restore 6
	.cfi_def_cfa_offset 4
	ret
	.p2align 4,,7
	.p2align 3
.L871:
	.cfi_restore_state
	movl	current_syscall_error+20, %edx
	xorl	%eax, %eax
	movl	16(%esp), %ecx
	movl	16(%esp), %esi
	movl	current_lookup_fault+4, %ebx
	testl	%edx, %edx
	setne	%al
	movl	%eax, 20(%ecx)
	movl	current_lookup_fault, %ecx
	movl	%ecx, %edx
	andl	$3, %edx
	leal	1(%edx), %eax
	movl	%eax, 24(%esi)
	movl	20(%esp), %esi
	movl	$2, %eax
	testl	%esi, %esi
	je	.L869
	cmpl	$2, %edx
	je	.L874
	cmpl	$3, %edx
	je	.L875
	cmpl	$1, %edx
	.p2align 4,,2
	jne	.L869
	movl	20(%esp), %eax
	andl	$252, %ecx
	shrl	$2, %ecx
	movl	%ecx, 12(%eax)
	movl	$3, %eax
	jmp	.L869
	.p2align 4,,7
	.p2align 3
.L866:
	movl	16(%esp), %ebx
	movl	current_syscall_error, %edx
	movl	%edx, 20(%ebx)
	addl	$4, %esp
	.cfi_remember_state
	.cfi_def_cfa_offset 12
	popl	%ebx
	.cfi_restore 3
	.cfi_def_cfa_offset 8
	popl	%esi
	.cfi_restore 6
	.cfi_def_cfa_offset 4
	ret
	.p2align 4,,7
	.p2align 3
.L868:
	.cfi_restore_state
	movl	current_syscall_error+4, %eax
	movl	16(%esp), %ebx
	movl	%eax, 20(%ebx)
	addl	$4, %esp
	.cfi_remember_state
	.cfi_def_cfa_offset 12
	movl	$1, %eax
	popl	%ebx
	.cfi_restore 3
	.cfi_def_cfa_offset 8
	popl	%esi
	.cfi_restore 6
	.cfi_def_cfa_offset 4
	ret
	.p2align 4,,7
	.p2align 3
.L865:
	.cfi_restore_state
	call	halt
	.p2align 4,,7
	.p2align 3
.L875:
	movl	20(%esp), %esi
	movl	%ecx, %eax
	andl	$252, %ecx
	andl	$16128, %eax
	shrl	$8, %eax
	shrl	$2, %ecx
	movl	%eax, 12(%esi)
	movl	$5, %eax
	movl	%ebx, 16(%esi)
	movl	%ecx, 20(%esi)
	jmp	.L869
	.p2align 4,,7
	.p2align 3
.L874:
	movl	20(%esp), %esi
	movl	%ecx, %eax
	andl	$16128, %ecx
	andl	$252, %eax
	shrl	$2, %eax
	shrl	$8, %ecx
	movl	%eax, 12(%esi)
	movl	$4, %eax
	movl	%ecx, 16(%esi)
	jmp	.L869
	.cfi_endproc
.LFE375:
	.size	setMRs_syscall_error, .-setMRs_syscall_error
	.p2align 4,,15
	.globl	Arch_decodeTransfer
	.type	Arch_decodeTransfer, @function
Arch_decodeTransfer:
.LFB376:
	.cfi_startproc
	xorl	%eax, %eax
	ret
	.cfi_endproc
.LFE376:
	.size	Arch_decodeTransfer, .-Arch_decodeTransfer
	.p2align 4,,15
	.globl	Arch_performTransfer
	.type	Arch_performTransfer, @function
Arch_performTransfer:
.LFB377:
	.cfi_startproc
	xorl	%eax, %eax
	ret
	.cfi_endproc
.LFE377:
	.size	Arch_performTransfer, .-Arch_performTransfer
	.section	.boot.text
	.p2align 4,,15
	.globl	insert_region
	.type	insert_region, @function
insert_region:
.LFB378:
	.cfi_startproc
	pushl	%ebx
	.cfi_def_cfa_offset 8
	.cfi_offset 3, -8
	movl	8(%esp), %ecx
	movl	12(%esp), %edx
	cmpl	%ecx, %edx
	je	.L887
	movl	ndks_boot+4, %eax
	cmpl	%eax, ndks_boot
	movl	$0, %eax
	je	.L886
	movl	ndks_boot+12, %ebx
	cmpl	%ebx, ndks_boot+8
	je	.L891
	popl	%ebx
	.cfi_remember_state
	.cfi_restore 3
	.cfi_def_cfa_offset 4
	ret
	.p2align 4,,7
	.p2align 3
.L887:
	.cfi_restore_state
	movl	$1, %eax
	popl	%ebx
	.cfi_remember_state
	.cfi_restore 3
	.cfi_def_cfa_offset 4
	ret
	.p2align 4,,7
	.p2align 3
.L891:
	.cfi_restore_state
	movb	$1, %al
.L886:
	movl	%ecx, ndks_boot(,%eax,8)
	movl	%edx, ndks_boot+4(,%eax,8)
	movl	$1, %eax
	popl	%ebx
	.cfi_restore 3
	.cfi_def_cfa_offset 4
	ret
	.cfi_endproc
.LFE378:
	.size	insert_region, .-insert_region
	.p2align 4,,15
	.globl	alloc_region
	.type	alloc_region, @function
alloc_region:
.LFB380:
	.cfi_startproc
	pushl	%ebp
	.cfi_def_cfa_offset 8
	.cfi_offset 5, -8
	xorl	%ebp, %ebp
	pushl	%edi
	.cfi_def_cfa_offset 12
	.cfi_offset 7, -12
	movl	$1, %edi
	pushl	%esi
	.cfi_def_cfa_offset 16
	.cfi_offset 6, -16
	pushl	%ebx
	.cfi_def_cfa_offset 20
	.cfi_offset 3, -20
	subl	$44, %esp
	.cfi_def_cfa_offset 64
	movl	64(%esp), %ecx
	movl	$0, 28(%esp)
	movl	$0, 4(%esp)
	movl	$0, 12(%esp)
	sall	%cl, %edi
	movl	$0, 16(%esp)
	movl	$0, 20(%esp)
	movl	$0, 24(%esp)
	movl	$0, 32(%esp)
	movl	%edi, 8(%esp)
.L898:
	movl	ndks_boot(,%ebp,8), %ebx
	movl	ndks_boot+4(,%ebp,8), %edi
	leal	-1(%ebx), %eax
	shrl	%cl, %eax
	movl	%edi, %edx
	addl	$1, %eax
	sall	%cl, %eax
	movl	%eax, %esi
	subl	%ebx, %esi
	shrl	%cl, %edx
	sall	%cl, %edx
	movl	%esi, (%esp)
	movl	%edi, %esi
	subl	%edx, %esi
	cmpl	%esi, (%esp)
	jae	.L893
	movl	8(%esp), %esi
	leal	(%eax,%esi), %edx
.L894:
	cmpl	%eax, %edx
	jbe	.L895
	cmpl	%eax, %ebx
	ja	.L895
	cmpl	%edx, %edi
	jae	.L912
	.p2align 4,,7
	.p2align 3
.L895:
	addl	$1, %ebp
	cmpl	$2, %ebp
	jne	.L898
	movl	4(%esp), %eax
	cmpl	%eax, 12(%esp)
	je	.L906
	movl	32(%esp), %eax
	movl	$0, ndks_boot(,%eax,8)
	movl	$0, ndks_boot+4(,%eax,8)
	movl	28(%esp), %eax
	cmpl	%eax, 24(%esp)
	je	.L900
	movl	ndks_boot+4, %eax
	cmpl	%eax, ndks_boot
	je	.L907
	movl	ndks_boot+12, %eax
	cmpl	%eax, ndks_boot+8
	je	.L913
.L900:
	movl	4(%esp), %ebx
	movl	20(%esp), %edi
	cmpl	%edi, 16(%esp)
	movl	%ebx, %eax
	je	.L899
	movl	ndks_boot+4, %eax
	cmpl	%eax, ndks_boot
	je	.L909
	movl	%ebx, %eax
	movl	ndks_boot+12, %ebx
	cmpl	%ebx, ndks_boot+8
	je	.L914
.L899:
	addl	$44, %esp
	.cfi_remember_state
	.cfi_def_cfa_offset 20
	popl	%ebx
	.cfi_restore 3
	.cfi_def_cfa_offset 16
	popl	%esi
	.cfi_restore 6
	.cfi_def_cfa_offset 12
	popl	%edi
	.cfi_restore 7
	.cfi_def_cfa_offset 8
	popl	%ebp
	.cfi_restore 5
	.cfi_def_cfa_offset 4
	ret
	.p2align 4,,7
	.p2align 3
.L893:
	.cfi_restore_state
	movl	%edx, %eax
	subl	8(%esp), %eax
	jmp	.L894
	.p2align 4,,7
	.p2align 3
.L912:
	movl	%eax, %esi
	subl	%ebx, %esi
	movl	%esi, (%esp)
	movl	%edi, %esi
	subl	%edx, %esi
	cmpl	%esi, (%esp)
	jb	.L915
	movl	%eax, 36(%esp)
	movl	%edx, (%esp)
.L896:
	movl	4(%esp), %esi
	cmpl	%esi, 12(%esp)
	je	.L905
	movl	%edx, 40(%esp)
	movl	20(%esp), %edx
	movl	%eax, %esi
	subl	16(%esp), %edx
	movl	%edi, %eax
	subl	(%esp), %eax
	cmpl	%edx, %eax
	movl	%esi, %eax
	movl	40(%esp), %edx
	jb	.L905
	jne	.L895
	movl	36(%esp), %eax
	movl	28(%esp), %edx
	subl	24(%esp), %edx
	subl	%ebx, %eax
	cmpl	%edx, %eax
	movl	%esi, %eax
	movl	40(%esp), %edx
	jae	.L895
	.p2align 4,,7
	.p2align 3
.L905:
	movl	36(%esp), %esi
	movl	%ebx, 24(%esp)
	movl	(%esp), %ebx
	movl	%edi, 20(%esp)
	movl	%edx, 12(%esp)
	movl	%esi, 28(%esp)
	movl	%ebx, 16(%esp)
	movl	%eax, 4(%esp)
	movl	%ebp, 32(%esp)
	jmp	.L895
	.p2align 4,,7
	.p2align 3
.L915:
	movl	%edi, 36(%esp)
	movl	%eax, %edi
	movl	%ebx, (%esp)
	movl	%edx, %ebx
	jmp	.L896
	.p2align 4,,7
	.p2align 3
.L906:
	addl	$44, %esp
	.cfi_remember_state
	.cfi_def_cfa_offset 20
	xorl	%eax, %eax
	popl	%ebx
	.cfi_restore 3
	.cfi_def_cfa_offset 16
	popl	%esi
	.cfi_restore 6
	.cfi_def_cfa_offset 12
	popl	%edi
	.cfi_restore 7
	.cfi_def_cfa_offset 8
	popl	%ebp
	.cfi_restore 5
	.cfi_def_cfa_offset 4
	ret
	.p2align 4,,7
	.p2align 3
.L909:
	.cfi_restore_state
	movl	$ndks_boot, %eax
.L902:
	movl	16(%esp), %ebx
	movl	%ebx, (%eax)
	movl	20(%esp), %ebx
	movl	%ebx, 4(%eax)
	movl	4(%esp), %eax
	jmp	.L899
	.p2align 4,,7
	.p2align 3
.L907:
	movl	$ndks_boot, %eax
.L901:
	movl	24(%esp), %ebx
	movl	%ebx, (%eax)
	movl	28(%esp), %ebx
	movl	%ebx, 4(%eax)
	jmp	.L900
	.p2align 4,,7
	.p2align 3
.L914:
	movl	$ndks_boot+8, %eax
	jmp	.L902
	.p2align 4,,7
	.p2align 3
.L913:
	movl	$ndks_boot+8, %eax
	jmp	.L901
	.cfi_endproc
.LFE380:
	.size	alloc_region, .-alloc_region
	.p2align 4,,15
	.globl	write_slot
	.type	write_slot, @function
write_slot:
.LFB381:
	.cfi_startproc
	movl	4(%esp), %ecx
	movl	8(%esp), %eax
	movl	12(%esp), %edx
	movl	$0, 8(%ecx)
	movl	%eax, (%ecx)
	movl	%edx, 4(%ecx)
	movl	$3, 12(%ecx)
	ret
	.cfi_endproc
.LFE381:
	.size	write_slot, .-write_slot
	.p2align 4,,15
	.globl	create_root_cnode
	.type	create_root_cnode, @function
create_root_cnode:
.LFB382:
	.cfi_startproc
	pushl	%esi
	.cfi_def_cfa_offset 8
	.cfi_offset 6, -8
	pushl	%ebx
	.cfi_def_cfa_offset 12
	.cfi_offset 3, -12
	subl	$4, %esp
	.cfi_def_cfa_offset 16
	movl	$16, (%esp)
	movl	16(%esp), %esi
	movl	$4096, ndks_boot+24
	call	alloc_region
	testl	%eax, %eax
	movl	%eax, %ebx
	movl	%eax, %edx
	leal	65536(%eax), %ecx
	je	.L924
	.p2align 4,,7
	.p2align 3
.L922:
	movl	$0, (%edx)
	addl	$4, %edx
	cmpl	%ecx, %edx
	jne	.L922
	movl	%ebx, %eax
	andl	$-32, %eax
	shrl	%eax
	orl	$10, %eax
	movl	%eax, 32(%ebx)
	movl	%eax, (%esi)
	movl	%esi, %eax
	movl	$105906176, 36(%ebx)
	movl	$0, 40(%ebx)
	movl	$3, 44(%ebx)
	movl	$105906176, 4(%esi)
	addl	$4, %esp
	.cfi_remember_state
	.cfi_def_cfa_offset 12
	popl	%ebx
	.cfi_restore 3
	.cfi_def_cfa_offset 8
	popl	%esi
	.cfi_restore 6
	.cfi_def_cfa_offset 4
	ret	$4
.L924:
	.cfi_restore_state
	movl	$0, (%esi)
	movl	%esi, %eax
	movl	$0, 4(%esi)
	addl	$4, %esp
	.cfi_def_cfa_offset 12
	popl	%ebx
	.cfi_restore 3
	.cfi_def_cfa_offset 8
	popl	%esi
	.cfi_restore 6
	.cfi_def_cfa_offset 4
	ret	$4
	.cfi_endproc
.LFE382:
	.size	create_root_cnode, .-create_root_cnode
	.p2align 4,,15
	.globl	create_irq_cnode
	.type	create_irq_cnode, @function
create_irq_cnode:
.LFB383:
	.cfi_startproc
	pushl	%ebx
	.cfi_def_cfa_offset 8
	.cfi_offset 3, -8
	subl	$4, %esp
	.cfi_def_cfa_offset 12
	movl	$12, (%esp)
	call	alloc_region
	movl	%eax, %ebx
	xorl	%eax, %eax
	testl	%ebx, %ebx
	je	.L926
	leal	4096(%ebx), %ecx
	movl	%ebx, %edx
	.p2align 4,,7
	.p2align 3
.L928:
	movl	$0, (%edx)
	addl	$4, %edx
	cmpl	%ecx, %edx
	jne	.L928
	movl	%ebx, intStateIRQNode
	movl	$1, %eax
.L926:
	addl	$4, %esp
	.cfi_def_cfa_offset 8
	popl	%ebx
	.cfi_restore 3
	.cfi_def_cfa_offset 4
	ret
	.cfi_endproc
.LFE383:
	.size	create_irq_cnode, .-create_irq_cnode
	.p2align 4,,15
	.globl	create_domain_cap
	.type	create_domain_cap, @function
create_domain_cap:
.LFB384:
	.cfi_startproc
	pushl	%esi
	.cfi_def_cfa_offset 8
	.cfi_offset 6, -8
	pushl	%ebx
	.cfi_def_cfa_offset 12
	.cfi_offset 3, -12
	subl	$4, %esp
	.cfi_def_cfa_offset 16
	movl	16(%esp), %eax
	movl	20(%esp), %esi
	movl	%eax, %ebx
	movl	%eax, %edx
	andl	$14, %ebx
	andl	$15, %edx
	movzbl	%al, %ecx
	cmpl	$14, %ebx
	cmove	%ecx, %edx
	cmpl	$62, %edx
	ja	.L935
	jmp	*.L937(,%edx,4)
	.section	.rodata
	.align 4
	.align 4
.L937:
	.long	.L949
	.long	.L944
	.long	.L943
	.long	.L944
	.long	.L943
	.long	.L944
	.long	.L943
	.long	.L949
	.long	.L949
	.long	.L944
	.long	.L945
	.long	.L949
	.long	.L946
	.long	.L935
	.long	.L949
	.long	.L935
	.long	.L935
	.long	.L935
	.long	.L935
	.long	.L935
	.long	.L935
	.long	.L935
	.long	.L935
	.long	.L935
	.long	.L935
	.long	.L935
	.long	.L935
	.long	.L935
	.long	.L935
	.long	.L935
	.long	.L949
	.long	.L935
	.long	.L935
	.long	.L935
	.long	.L935
	.long	.L935
	.long	.L935
	.long	.L935
	.long	.L935
	.long	.L935
	.long	.L935
	.long	.L935
	.long	.L935
	.long	.L935
	.long	.L935
	.long	.L935
	.long	.L947
	.long	.L935
	.long	.L935
	.long	.L935
	.long	.L935
	.long	.L935
	.long	.L935
	.long	.L935
	.long	.L935
	.long	.L935
	.long	.L935
	.long	.L935
	.long	.L935
	.long	.L935
	.long	.L935
	.long	.L935
	.long	.L949
	.section	.boot.text
	.p2align 4,,7
	.p2align 3
.L944:
	andl	$16777200, %eax
	sall	$8, %eax
.L936:
	movl	$62, 176(%eax)
	movl	$0, 180(%eax)
	movl	$0, 184(%eax)
	movl	$3, 188(%eax)
	addl	$4, %esp
	.cfi_remember_state
	.cfi_def_cfa_offset 12
	popl	%ebx
	.cfi_restore 3
	.cfi_def_cfa_offset 8
	popl	%esi
	.cfi_restore 6
	.cfi_def_cfa_offset 4
	ret
	.p2align 4,,7
	.p2align 3
.L943:
	.cfi_restore_state
	andl	$-16, %eax
	jmp	.L936
	.p2align 4,,7
	.p2align 3
.L949:
	xorl	%eax, %eax
	jmp	.L936
	.p2align 4,,7
	.p2align 3
.L947:
	andl	$16128, %eax
	shrl	$8, %eax
	cmpl	$32, %eax
	je	.L950
	leal	1(%eax), %ecx
	movl	$-1, %eax
	sall	%cl, %eax
	andl	%esi, %eax
	jmp	.L936
	.p2align 4,,7
	.p2align 3
.L946:
	andl	$-1024, %eax
	jmp	.L936
	.p2align 4,,7
	.p2align 3
.L945:
	andl	$2147483632, %eax
	addl	%eax, %eax
	jmp	.L936
	.p2align 4,,7
	.p2align 3
.L935:
	call	halt
	.p2align 4,,7
	.p2align 3
.L950:
	movl	$-16, %eax
	andl	%esi, %eax
	jmp	.L936
	.cfi_endproc
.LFE384:
	.size	create_domain_cap, .-create_domain_cap
	.p2align 4,,15
	.globl	create_ipcbuf_frame
	.type	create_ipcbuf_frame, @function
create_ipcbuf_frame:
.LFB385:
	.cfi_startproc
	pushl	%ebp
	.cfi_def_cfa_offset 8
	.cfi_offset 5, -8
	movl	%esp, %ebp
	.cfi_def_cfa_register 5
	pushl	%edi
	pushl	%esi
	pushl	%ebx
	subl	$60, %esp
	.cfi_offset 7, -12
	.cfi_offset 6, -16
	.cfi_offset 3, -20
	movl	16(%ebp), %eax
	movl	$12, (%esp)
	movl	8(%ebp), %ebx
	movl	12(%ebp), %esi
	movl	%eax, -44(%ebp)
	call	alloc_region
	testl	%eax, %eax
	movl	%eax, %edx
	leal	4096(%eax), %ecx
	je	.L978
	.p2align 4,,7
	.p2align 3
.L975:
	movl	$0, (%edx)
	addl	$4, %edx
	cmpl	%ecx, %edx
	jne	.L975
	movl	28(%ebp), %edx
	leal	-32(%ebp), %ecx
	movl	%eax, 12(%esp)
	movl	20(%ebp), %eax
	movl	%ecx, (%esp)
	movl	$0, 24(%esp)
	movl	%edx, 16(%esp)
	movl	24(%ebp), %edx
	movl	%eax, 4(%esp)
	movl	$1, 20(%esp)
	movl	%edx, 8(%esp)
	call	create_mapped_it_frame_cap
	movl	-32(%ebp), %eax
	movl	%esi, %ecx
	movl	-28(%ebp), %edx
	andl	$15, %ecx
	movl	%eax, -40(%ebp)
	movl	%esi, %eax
	andl	$14, %eax
	movl	%edx, -36(%ebp)
	movl	%eax, %edx
	movl	%esi, %eax
	subl	$4, %esp
	movzbl	%al, %edi
	cmpl	$14, %edx
	cmove	%edi, %ecx
	cmpl	$62, %ecx
	ja	.L959
	jmp	*.L961(,%ecx,4)
	.section	.rodata
	.align 4
	.align 4
.L961:
	.long	.L973
	.long	.L968
	.long	.L967
	.long	.L968
	.long	.L967
	.long	.L968
	.long	.L967
	.long	.L973
	.long	.L973
	.long	.L968
	.long	.L969
	.long	.L973
	.long	.L970
	.long	.L959
	.long	.L973
	.long	.L959
	.long	.L959
	.long	.L959
	.long	.L959
	.long	.L959
	.long	.L959
	.long	.L959
	.long	.L959
	.long	.L959
	.long	.L959
	.long	.L959
	.long	.L959
	.long	.L959
	.long	.L959
	.long	.L959
	.long	.L973
	.long	.L959
	.long	.L959
	.long	.L959
	.long	.L959
	.long	.L959
	.long	.L959
	.long	.L959
	.long	.L959
	.long	.L959
	.long	.L959
	.long	.L959
	.long	.L959
	.long	.L959
	.long	.L959
	.long	.L959
	.long	.L971
	.long	.L959
	.long	.L959
	.long	.L959
	.long	.L959
	.long	.L959
	.long	.L959
	.long	.L959
	.long	.L959
	.long	.L959
	.long	.L959
	.long	.L959
	.long	.L959
	.long	.L959
	.long	.L959
	.long	.L959
	.long	.L973
	.section	.boot.text
.L968:
	andl	$16777200, %esi
	sall	$8, %esi
.L960:
	movl	-40(%ebp), %eax
	movl	-36(%ebp), %edx
	movl	$0, 168(%esi)
	movl	$3, 172(%esi)
	movl	%eax, 160(%esi)
	movl	%eax, (%ebx)
	movl	%ebx, %eax
	movl	%edx, 164(%esi)
	movl	%edx, 4(%ebx)
	leal	-12(%ebp), %esp
	popl	%ebx
	.cfi_remember_state
	.cfi_restore 3
	popl	%esi
	.cfi_restore 6
	popl	%edi
	.cfi_restore 7
	popl	%ebp
	.cfi_restore 5
	.cfi_def_cfa 4, 4
	ret	$4
.L978:
	.cfi_restore_state
	movl	$0, (%ebx)
	movl	%ebx, %eax
	movl	$0, 4(%ebx)
	leal	-12(%ebp), %esp
	popl	%ebx
	.cfi_remember_state
	.cfi_restore 3
	popl	%esi
	.cfi_restore 6
	popl	%edi
	.cfi_restore 7
	popl	%ebp
	.cfi_restore 5
	.cfi_def_cfa 4, 4
	ret	$4
.L967:
	.cfi_restore_state
	andl	$-16, %esi
	jmp	.L960
.L973:
	xorl	%esi, %esi
	jmp	.L960
.L969:
	andl	$2147483632, %esi
	addl	%esi, %esi
	jmp	.L960
.L971:
	andl	$16128, %esi
	shrl	$8, %esi
	cmpl	$32, %esi
	je	.L974
	leal	1(%esi), %ecx
	movl	$-1, %esi
	sall	%cl, %esi
.L972:
	andl	-44(%ebp), %esi
	jmp	.L960
.L970:
	andl	$-1024, %esi
	jmp	.L960
.L959:
	call	halt
.L974:
	movl	$-16, %esi
	jmp	.L972
	.cfi_endproc
.LFE385:
	.size	create_ipcbuf_frame, .-create_ipcbuf_frame
	.p2align 4,,15
	.globl	create_bi_frame_cap
	.type	create_bi_frame_cap, @function
create_bi_frame_cap:
.LFB386:
	.cfi_startproc
	pushl	%ebp
	.cfi_def_cfa_offset 8
	.cfi_offset 5, -8
	movl	%esp, %ebp
	.cfi_def_cfa_register 5
	pushl	%edi
	pushl	%esi
	pushl	%ebx
	subl	$60, %esp
	.cfi_offset 7, -12
	.cfi_offset 6, -16
	.cfi_offset 3, -20
	movl	12(%ebp), %eax
	movl	20(%ebp), %edx
	leal	-32(%ebp), %ecx
	movl	%ecx, (%esp)
	movl	8(%ebp), %ebx
	movl	$0, 24(%esp)
	movl	%eax, -36(%ebp)
	movl	28(%ebp), %eax
	movl	%edx, 8(%esp)
	movl	$1, 20(%esp)
	movl	%ebx, %edi
	movzbl	%bl, %esi
	andl	$14, %edi
	movl	%eax, 16(%esp)
	movl	24(%ebp), %eax
	movl	%eax, 12(%esp)
	movl	16(%ebp), %eax
	movl	%eax, 4(%esp)
	call	create_mapped_it_frame_cap
	movl	%ebx, %ecx
	movl	-32(%ebp), %eax
	andl	$15, %ecx
	movl	-28(%ebp), %edx
	subl	$4, %esp
	cmpl	$14, %edi
	cmove	%esi, %ecx
	cmpl	$62, %ecx
	ja	.L982
	jmp	*.L984(,%ecx,4)
	.section	.rodata
	.align 4
	.align 4
.L984:
	.long	.L996
	.long	.L991
	.long	.L990
	.long	.L991
	.long	.L990
	.long	.L991
	.long	.L990
	.long	.L996
	.long	.L996
	.long	.L991
	.long	.L992
	.long	.L996
	.long	.L993
	.long	.L982
	.long	.L996
	.long	.L982
	.long	.L982
	.long	.L982
	.long	.L982
	.long	.L982
	.long	.L982
	.long	.L982
	.long	.L982
	.long	.L982
	.long	.L982
	.long	.L982
	.long	.L982
	.long	.L982
	.long	.L982
	.long	.L982
	.long	.L996
	.long	.L982
	.long	.L982
	.long	.L982
	.long	.L982
	.long	.L982
	.long	.L982
	.long	.L982
	.long	.L982
	.long	.L982
	.long	.L982
	.long	.L982
	.long	.L982
	.long	.L982
	.long	.L982
	.long	.L982
	.long	.L994
	.long	.L982
	.long	.L982
	.long	.L982
	.long	.L982
	.long	.L982
	.long	.L982
	.long	.L982
	.long	.L982
	.long	.L982
	.long	.L982
	.long	.L982
	.long	.L982
	.long	.L982
	.long	.L982
	.long	.L982
	.long	.L996
	.section	.boot.text
	.p2align 4,,7
	.p2align 3
.L991:
	andl	$16777200, %ebx
	sall	$8, %ebx
.L983:
	movl	%eax, 144(%ebx)
	movl	%edx, 148(%ebx)
	movl	$0, 152(%ebx)
	movl	$3, 156(%ebx)
	leal	-12(%ebp), %esp
	popl	%ebx
	.cfi_remember_state
	.cfi_restore 3
	popl	%esi
	.cfi_restore 6
	popl	%edi
	.cfi_restore 7
	popl	%ebp
	.cfi_restore 5
	.cfi_def_cfa 4, 4
	ret
	.p2align 4,,7
	.p2align 3
.L990:
	.cfi_restore_state
	andl	$-16, %ebx
	jmp	.L983
	.p2align 4,,7
	.p2align 3
.L996:
	xorl	%ebx, %ebx
	jmp	.L983
	.p2align 4,,7
	.p2align 3
.L994:
	andl	$16128, %ebx
	shrl	$8, %ebx
	cmpl	$32, %ebx
	je	.L997
	leal	1(%ebx), %ecx
	movl	$-1, %ebx
	sall	%cl, %ebx
.L995:
	andl	-36(%ebp), %ebx
	jmp	.L983
	.p2align 4,,7
	.p2align 3
.L993:
	andl	$-1024, %ebx
	jmp	.L983
	.p2align 4,,7
	.p2align 3
.L992:
	andl	$2147483632, %ebx
	addl	%ebx, %ebx
	jmp	.L983
	.p2align 4,,7
	.p2align 3
.L982:
	call	halt
	.p2align 4,,7
	.p2align 3
.L997:
	movl	$-16, %ebx
	jmp	.L995
	.cfi_endproc
.LFE386:
	.size	create_bi_frame_cap, .-create_bi_frame_cap
	.p2align 4,,15
	.globl	allocate_bi_frame
	.type	allocate_bi_frame, @function
allocate_bi_frame:
.LFB387:
	.cfi_startproc
	pushl	%ebx
	.cfi_def_cfa_offset 8
	.cfi_offset 3, -8
	subl	$4, %esp
	.cfi_def_cfa_offset 12
	movl	$12, (%esp)
	call	alloc_region
	movl	%eax, %ebx
	xorl	%eax, %eax
	testl	%ebx, %ebx
	je	.L1000
	leal	4096(%ebx), %ecx
	movl	%ebx, %edx
	.p2align 4,,7
	.p2align 3
.L1002:
	movl	$0, (%edx)
	addl	$4, %edx
	cmpl	%ecx, %edx
	jne	.L1002
	movl	12(%esp), %eax
	movl	%ebx, ndks_boot+16
	movl	$12, ndks_boot+20
	movb	$12, 886(%ebx)
	movl	%eax, (%ebx)
	movl	16(%esp), %eax
	movl	$0, 8(%ebx)
	movl	%eax, 4(%ebx)
	movl	20(%esp), %eax
	movl	%eax, 12(%ebx)
	movl	ksDomScheduleIdx, %eax
	movl	ksDomSchedule(,%eax,8), %eax
	movb	%al, 4092(%ebx)
	movl	%ebx, %eax
.L1000:
	addl	$4, %esp
	.cfi_def_cfa_offset 8
	popl	%ebx
	.cfi_restore 3
	.cfi_def_cfa_offset 4
	ret
	.cfi_endproc
.LFE387:
	.size	allocate_bi_frame, .-allocate_bi_frame
	.p2align 4,,15
	.globl	provide_cap
	.type	provide_cap, @function
provide_cap:
.LFB388:
	.cfi_startproc
	pushl	%edi
	.cfi_def_cfa_offset 8
	.cfi_offset 7, -8
	pushl	%esi
	.cfi_def_cfa_offset 12
	.cfi_offset 6, -12
	pushl	%ebx
	.cfi_def_cfa_offset 16
	.cfi_offset 3, -16
	movl	ndks_boot+20, %ebx
	cmpl	ndks_boot+24, %ebx
	movl	16(%esp), %eax
	movl	20(%esp), %esi
	jae	.L1024
	movl	%eax, %edi
	movl	%eax, %edx
	andl	$14, %edi
	andl	$15, %edx
	movzbl	%al, %ecx
	cmpl	$14, %edi
	cmove	%ecx, %edx
	cmpl	$62, %edx
	ja	.L1010
	jmp	*.L1012(,%edx,4)
	.section	.rodata
	.align 4
	.align 4
.L1012:
	.long	.L1025
	.long	.L1019
	.long	.L1018
	.long	.L1019
	.long	.L1018
	.long	.L1019
	.long	.L1018
	.long	.L1025
	.long	.L1025
	.long	.L1019
	.long	.L1020
	.long	.L1025
	.long	.L1021
	.long	.L1010
	.long	.L1025
	.long	.L1010
	.long	.L1010
	.long	.L1010
	.long	.L1010
	.long	.L1010
	.long	.L1010
	.long	.L1010
	.long	.L1010
	.long	.L1010
	.long	.L1010
	.long	.L1010
	.long	.L1010
	.long	.L1010
	.long	.L1010
	.long	.L1010
	.long	.L1025
	.long	.L1010
	.long	.L1010
	.long	.L1010
	.long	.L1010
	.long	.L1010
	.long	.L1010
	.long	.L1010
	.long	.L1010
	.long	.L1010
	.long	.L1010
	.long	.L1010
	.long	.L1010
	.long	.L1010
	.long	.L1010
	.long	.L1010
	.long	.L1022
	.long	.L1010
	.long	.L1010
	.long	.L1010
	.long	.L1010
	.long	.L1010
	.long	.L1010
	.long	.L1010
	.long	.L1010
	.long	.L1010
	.long	.L1010
	.long	.L1010
	.long	.L1010
	.long	.L1010
	.long	.L1010
	.long	.L1010
	.long	.L1025
	.section	.boot.text
	.p2align 4,,7
	.p2align 3
.L1019:
	andl	$16777200, %eax
	sall	$8, %eax
.L1011:
	sall	$4, %ebx
	movl	28(%esp), %edx
	addl	%eax, %ebx
	movl	24(%esp), %eax
	movl	$0, 8(%ebx)
	movl	$3, 12(%ebx)
	movl	%edx, 4(%ebx)
	movl	%eax, (%ebx)
	movl	$1, %eax
	popl	%ebx
	.cfi_remember_state
	.cfi_restore 3
	.cfi_def_cfa_offset 12
	addl	$1, ndks_boot+20
	popl	%esi
	.cfi_restore 6
	.cfi_def_cfa_offset 8
	popl	%edi
	.cfi_restore 7
	.cfi_def_cfa_offset 4
	ret
	.p2align 4,,7
	.p2align 3
.L1024:
	.cfi_restore_state
	popl	%ebx
	.cfi_remember_state
	.cfi_restore 3
	.cfi_def_cfa_offset 12
	xorl	%eax, %eax
	popl	%esi
	.cfi_restore 6
	.cfi_def_cfa_offset 8
	popl	%edi
	.cfi_restore 7
	.cfi_def_cfa_offset 4
	ret
	.p2align 4,,7
	.p2align 3
.L1018:
	.cfi_restore_state
	andl	$-16, %eax
	jmp	.L1011
	.p2align 4,,7
	.p2align 3
.L1025:
	xorl	%eax, %eax
	jmp	.L1011
	.p2align 4,,7
	.p2align 3
.L1020:
	andl	$2147483632, %eax
	addl	%eax, %eax
	jmp	.L1011
	.p2align 4,,7
	.p2align 3
.L1022:
	andl	$16128, %eax
	shrl	$8, %eax
	cmpl	$32, %eax
	je	.L1026
	leal	1(%eax), %ecx
	movl	$-1, %eax
	sall	%cl, %eax
	andl	%esi, %eax
	jmp	.L1011
	.p2align 4,,7
	.p2align 3
.L1021:
	andl	$-1024, %eax
	jmp	.L1011
	.p2align 4,,7
	.p2align 3
.L1010:
	call	halt
	.p2align 4,,7
	.p2align 3
.L1026:
	movl	$-16, %eax
	andl	%esi, %eax
	jmp	.L1011
	.cfi_endproc
.LFE388:
	.size	provide_cap, .-provide_cap
	.p2align 4,,15
	.type	create_untypeds_for_region, @function
create_untypeds_for_region:
.LFB396:
	.cfi_startproc
	pushl	%ebp
	.cfi_def_cfa_offset 8
	.cfi_offset 5, -8
	movl	$31, %ebp
	pushl	%edi
	.cfi_def_cfa_offset 12
	.cfi_offset 7, -12
	pushl	%esi
	.cfi_def_cfa_offset 16
	.cfi_offset 6, -16
	pushl	%ebx
	.cfi_def_cfa_offset 20
	.cfi_offset 3, -20
	subl	$44, %esp
	.cfi_def_cfa_offset 64
	movl	68(%esp), %edi
	movl	64(%esp), %ebx
	movl	%eax, 24(%esp)
	movl	%edx, 28(%esp)
	cmpl	%edi, %ebx
	jne	.L1037
	jmp	.L1033
	.p2align 4,,7
	.p2align 3
.L1034:
	movl	$1, %eax
	movl	%esi, %ecx
	sall	%cl, %eax
	addl	%eax, %ebx
	cmpl	%edi, %ebx
	je	.L1033
.L1037:
	movl	%edi, %eax
	movl	%ebp, %esi
	subl	%ebx, %eax
	bsrl	%eax, %eax
	xorl	$31, %eax
	subl	%eax, %esi
	rep bsfl	%ebx, %eax
	cmpl	%eax, %esi
	cmova	%eax, %esi
	movl	ndks_boot+20, %eax
	subl	72(%esp), %eax
	cmpl	$165, %eax
	ja	.L1034
	movl	ndks_boot+16, %edx
	leal	536870912(%ebx), %ecx
	movl	%ecx, 56(%edx,%eax,4)
	movl	%esi, %ecx
	movb	%cl, 720(%edx,%eax)
	movl	%ebx, %eax
	movl	%esi, %edx
	andl	$-16, %eax
	andl	$31, %edx
	orl	$2, %eax
	movl	%eax, 8(%esp)
	movl	24(%esp), %eax
	movl	%edx, 12(%esp)
	movl	28(%esp), %edx
	movl	%eax, (%esp)
	movl	%edx, 4(%esp)
	call	provide_cap
	testl	%eax, %eax
	jne	.L1034
	addl	$44, %esp
	.cfi_remember_state
	.cfi_def_cfa_offset 20
	popl	%ebx
	.cfi_restore 3
	.cfi_def_cfa_offset 16
	popl	%esi
	.cfi_restore 6
	.cfi_def_cfa_offset 12
	popl	%edi
	.cfi_restore 7
	.cfi_def_cfa_offset 8
	popl	%ebp
	.cfi_restore 5
	.cfi_def_cfa_offset 4
	ret
	.p2align 4,,7
	.p2align 3
.L1033:
	.cfi_restore_state
	addl	$44, %esp
	.cfi_def_cfa_offset 20
	movl	$1, %eax
	popl	%ebx
	.cfi_restore 3
	.cfi_def_cfa_offset 16
	popl	%esi
	.cfi_restore 6
	.cfi_def_cfa_offset 12
	popl	%edi
	.cfi_restore 7
	.cfi_def_cfa_offset 8
	popl	%ebp
	.cfi_restore 5
	.cfi_def_cfa_offset 4
	ret
	.cfi_endproc
.LFE396:
	.size	create_untypeds_for_region, .-create_untypeds_for_region
	.p2align 4,,15
	.globl	create_frames_of_region
	.type	create_frames_of_region, @function
create_frames_of_region:
.LFB389:
	.cfi_startproc
	pushl	%ebp
	.cfi_def_cfa_offset 8
	.cfi_offset 5, -8
	movl	%esp, %ebp
	.cfi_def_cfa_register 5
	pushl	%edi
	pushl	%esi
	pushl	%ebx
	subl	$60, %esp
	.cfi_offset 7, -12
	.cfi_offset 6, -16
	.cfi_offset 3, -20
	movl	32(%ebp), %ebx
	movl	28(%ebp), %edi
	movl	ndks_boot+20, %eax
	movl	36(%ebp), %esi
	cmpl	%edi, %ebx
	movl	%eax, -40(%ebp)
	jbe	.L1048
	movl	40(%ebp), %eax
	movl	$536870912, -36(%ebp)
	subl	%eax, -36(%ebp)
	jmp	.L1047
	.p2align 4,,7
	.p2align 3
.L1042:
	movl	%edi, %eax
	xorl	%ecx, %ecx
	andl	$-4096, %eax
	shrl	$8, %eax
	orl	$50331649, %eax
.L1043:
	movl	%eax, 8(%esp)
	movl	16(%ebp), %edx
	movl	12(%ebp), %eax
	movl	%ecx, 12(%esp)
	movl	%edx, 4(%esp)
	movl	%eax, (%esp)
	call	provide_cap
	testl	%eax, %eax
	je	.L1050
	addl	$4096, %edi
	cmpl	%edi, %ebx
	jbe	.L1051
.L1047:
	testl	%esi, %esi
	je	.L1042
	movl	-36(%ebp), %edx
	leal	-32(%ebp), %eax
	movl	%eax, (%esp)
	movl	$0, 24(%esp)
	movl	$1, 20(%esp)
	leal	(%edx,%edi), %ecx
	movl	20(%ebp), %edx
	movl	%ecx, 16(%esp)
	movl	24(%ebp), %ecx
	movl	%edi, 12(%esp)
	movl	%edx, 4(%esp)
	movl	%ecx, 8(%esp)
	call	create_mapped_it_frame_cap
	movl	-32(%ebp), %eax
	movl	-28(%ebp), %ecx
	subl	$4, %esp
	jmp	.L1043
	.p2align 4,,7
	.p2align 3
.L1050:
	movl	8(%ebp), %eax
	movl	$0, (%eax)
	movl	$0, 4(%eax)
	movl	$0, 8(%eax)
	movl	8(%ebp), %eax
	leal	-12(%ebp), %esp
	popl	%ebx
	.cfi_remember_state
	.cfi_restore 3
	popl	%esi
	.cfi_restore 6
	popl	%edi
	.cfi_restore 7
	popl	%ebp
	.cfi_restore 5
	.cfi_def_cfa 4, 4
	ret	$4
	.p2align 4,,7
	.p2align 3
.L1051:
	.cfi_restore_state
	movl	ndks_boot+20, %eax
.L1041:
	movl	8(%ebp), %esi
	movl	-40(%ebp), %ebx
	movl	%eax, 4(%esi)
	movl	8(%ebp), %eax
	movl	%ebx, (%esi)
	movl	$1, 8(%esi)
	leal	-12(%ebp), %esp
	popl	%ebx
	.cfi_remember_state
	.cfi_restore 3
	popl	%esi
	.cfi_restore 6
	popl	%edi
	.cfi_restore 7
	popl	%ebp
	.cfi_restore 5
	.cfi_def_cfa 4, 4
	ret	$4
.L1048:
	.cfi_restore_state
	movl	-40(%ebp), %eax
	jmp	.L1041
	.cfi_endproc
.LFE389:
	.size	create_frames_of_region, .-create_frames_of_region
	.p2align 4,,15
	.globl	create_it_asid_pool
	.type	create_it_asid_pool, @function
create_it_asid_pool:
.LFB390:
	.cfi_startproc
	pushl	%ebp
	.cfi_def_cfa_offset 8
	.cfi_offset 5, -8
	pushl	%edi
	.cfi_def_cfa_offset 12
	.cfi_offset 7, -12
	pushl	%esi
	.cfi_def_cfa_offset 16
	.cfi_offset 6, -16
	pushl	%ebx
	.cfi_def_cfa_offset 20
	.cfi_offset 3, -20
	subl	$28, %esp
	.cfi_def_cfa_offset 48
	movl	$12, (%esp)
	movl	48(%esp), %edi
	movl	52(%esp), %ebx
	movl	56(%esp), %esi
	call	alloc_region
	testl	%eax, %eax
	movl	%eax, %edx
	leal	4096(%eax), %ecx
	je	.L1095
	.p2align 4,,7
	.p2align 3
.L1093:
	movl	$0, (%edx)
	addl	$4, %edx
	cmpl	%ecx, %edx
	jne	.L1093
	andl	$-4096, %eax
	movl	%ebx, %ebp
	shrl	$8, %eax
	andl	$14, %ebp
	movl	%ebx, %edx
	orl	$9, %eax
	andl	$15, %edx
	movzbl	%bl, %ecx
	cmpl	$14, %ebp
	cmove	%ecx, %edx
	cmpl	$62, %edx
	ja	.L1075
	jmp	*.L1061(,%edx,4)
	.section	.rodata
	.align 4
	.align 4
.L1061:
	.long	.L1089
	.long	.L1068
	.long	.L1067
	.long	.L1068
	.long	.L1067
	.long	.L1068
	.long	.L1067
	.long	.L1089
	.long	.L1089
	.long	.L1068
	.long	.L1069
	.long	.L1089
	.long	.L1070
	.long	.L1075
	.long	.L1089
	.long	.L1075
	.long	.L1075
	.long	.L1075
	.long	.L1075
	.long	.L1075
	.long	.L1075
	.long	.L1075
	.long	.L1075
	.long	.L1075
	.long	.L1075
	.long	.L1075
	.long	.L1075
	.long	.L1075
	.long	.L1075
	.long	.L1075
	.long	.L1089
	.long	.L1075
	.long	.L1075
	.long	.L1075
	.long	.L1075
	.long	.L1075
	.long	.L1075
	.long	.L1075
	.long	.L1075
	.long	.L1075
	.long	.L1075
	.long	.L1075
	.long	.L1075
	.long	.L1075
	.long	.L1075
	.long	.L1075
	.long	.L1071
	.long	.L1075
	.long	.L1075
	.long	.L1075
	.long	.L1075
	.long	.L1075
	.long	.L1075
	.long	.L1075
	.long	.L1075
	.long	.L1075
	.long	.L1075
	.long	.L1075
	.long	.L1075
	.long	.L1075
	.long	.L1075
	.long	.L1075
	.long	.L1089
	.section	.boot.text
.L1068:
	movl	%ebx, %edx
	andl	$16777200, %edx
	sall	$8, %edx
.L1060:
	movl	%eax, 96(%edx)
	movzbl	%bl, %ecx
	movl	$0, 100(%edx)
	movl	$0, 104(%edx)
	movl	$3, 108(%edx)
	movl	%ebx, %edx
	andl	$15, %edx
	cmpl	$14, %ebp
	cmove	%ecx, %edx
	cmpl	$62, %edx
	ja	.L1075
	jmp	*.L1077(,%edx,4)
	.section	.rodata
	.align 4
	.align 4
.L1077:
	.long	.L1091
	.long	.L1084
	.long	.L1083
	.long	.L1084
	.long	.L1083
	.long	.L1084
	.long	.L1083
	.long	.L1091
	.long	.L1091
	.long	.L1084
	.long	.L1085
	.long	.L1091
	.long	.L1086
	.long	.L1075
	.long	.L1091
	.long	.L1075
	.long	.L1075
	.long	.L1075
	.long	.L1075
	.long	.L1075
	.long	.L1075
	.long	.L1075
	.long	.L1075
	.long	.L1075
	.long	.L1075
	.long	.L1075
	.long	.L1075
	.long	.L1075
	.long	.L1075
	.long	.L1075
	.long	.L1091
	.long	.L1075
	.long	.L1075
	.long	.L1075
	.long	.L1075
	.long	.L1075
	.long	.L1075
	.long	.L1075
	.long	.L1075
	.long	.L1075
	.long	.L1075
	.long	.L1075
	.long	.L1075
	.long	.L1075
	.long	.L1075
	.long	.L1075
	.long	.L1087
	.long	.L1075
	.long	.L1075
	.long	.L1075
	.long	.L1075
	.long	.L1075
	.long	.L1075
	.long	.L1075
	.long	.L1075
	.long	.L1075
	.long	.L1075
	.long	.L1075
	.long	.L1075
	.long	.L1075
	.long	.L1075
	.long	.L1075
	.long	.L1091
	.section	.boot.text
.L1084:
	andl	$16777200, %ebx
	sall	$8, %ebx
.L1076:
	movl	%eax, (%edi)
	movl	%edi, %eax
	movl	$7, 80(%ebx)
	movl	$0, 84(%ebx)
	movl	$0, 88(%ebx)
	movl	$3, 92(%ebx)
	movl	$0, 4(%edi)
	addl	$28, %esp
	.cfi_remember_state
	.cfi_def_cfa_offset 20
	popl	%ebx
	.cfi_restore 3
	.cfi_def_cfa_offset 16
	popl	%esi
	.cfi_restore 6
	.cfi_def_cfa_offset 12
	popl	%edi
	.cfi_restore 7
	.cfi_def_cfa_offset 8
	popl	%ebp
	.cfi_restore 5
	.cfi_def_cfa_offset 4
	ret	$4
.L1095:
	.cfi_restore_state
	movl	$0, (%edi)
	movl	%edi, %eax
	movl	$0, 4(%edi)
	addl	$28, %esp
	.cfi_remember_state
	.cfi_def_cfa_offset 20
	popl	%ebx
	.cfi_restore 3
	.cfi_def_cfa_offset 16
	popl	%esi
	.cfi_restore 6
	.cfi_def_cfa_offset 12
	popl	%edi
	.cfi_restore 7
	.cfi_def_cfa_offset 8
	popl	%ebp
	.cfi_restore 5
	.cfi_def_cfa_offset 4
	ret	$4
.L1067:
	.cfi_restore_state
	movl	%ebx, %edx
	andl	$-16, %edx
	jmp	.L1060
.L1083:
	andl	$-16, %ebx
	jmp	.L1076
.L1089:
	xorl	%edx, %edx
	jmp	.L1060
.L1086:
	andl	$-1024, %ebx
	jmp	.L1076
.L1069:
	movl	%ebx, %edx
	andl	$2147483632, %edx
	addl	%edx, %edx
	jmp	.L1060
.L1071:
	movl	%ebx, %edx
	andl	$16128, %edx
	shrl	$8, %edx
	cmpl	$32, %edx
	je	.L1090
	leal	1(%edx), %ecx
	movl	$-1, %edx
	sall	%cl, %edx
	andl	%esi, %edx
	jmp	.L1060
.L1070:
	movl	%ebx, %edx
	andl	$-1024, %edx
	jmp	.L1060
.L1087:
	andl	$16128, %ebx
	shrl	$8, %ebx
	cmpl	$32, %ebx
	je	.L1092
	leal	1(%ebx), %ecx
	movl	$-1, %ebx
	sall	%cl, %ebx
	andl	%esi, %ebx
	jmp	.L1076
.L1085:
	andl	$2147483632, %ebx
	addl	%ebx, %ebx
	jmp	.L1076
.L1091:
	xorl	%ebx, %ebx
	jmp	.L1076
.L1075:
	call	halt
.L1092:
	movl	$-16, %ebx
	andl	%esi, %ebx
	jmp	.L1076
.L1090:
	movl	$-16, %edx
	andl	%esi, %edx
	jmp	.L1060
	.cfi_endproc
.LFE390:
	.size	create_it_asid_pool, .-create_it_asid_pool
	.p2align 4,,15
	.globl	create_untypeds
	.type	create_untypeds, @function
create_untypeds:
.LFB397:
	.cfi_startproc
	pushl	%ebp
	.cfi_def_cfa_offset 8
	.cfi_offset 5, -8
	pushl	%edi
	.cfi_def_cfa_offset 12
	.cfi_offset 7, -12
	pushl	%esi
	.cfi_def_cfa_offset 16
	.cfi_offset 6, -16
	pushl	%ebx
	.cfi_def_cfa_offset 20
	.cfi_offset 3, -20
	xorl	%ebx, %ebx
	subl	$28, %esp
	.cfi_def_cfa_offset 48
	movl	ndks_boot+20, %ebp
	movl	56(%esp), %eax
	movl	60(%esp), %edx
	movl	48(%esp), %esi
	movl	52(%esp), %edi
	movl	%eax, (%esp)
	movl	%edx, 4(%esp)
	movl	%ebp, 8(%esp)
	movl	%esi, %eax
	movl	%edi, %edx
	call	create_untypeds_for_region
	testl	%eax, %eax
	je	.L1099
.L1104:
	movl	ndks_boot(,%ebx,8), %eax
	movl	ndks_boot+4(,%ebx,8), %edx
	movl	%ebp, 8(%esp)
	movl	$0, ndks_boot(,%ebx,8)
	movl	%eax, (%esp)
	movl	%esi, %eax
	movl	%edx, 4(%esp)
	movl	%edi, %edx
	movl	$0, ndks_boot+4(,%ebx,8)
	call	create_untypeds_for_region
	testl	%eax, %eax
	je	.L1099
	addl	$1, %ebx
	cmpl	$2, %ebx
	jne	.L1104
	movl	ndks_boot+16, %eax
	movl	ndks_boot+20, %edx
	movl	%ebp, 48(%eax)
	movl	%edx, 52(%eax)
	addl	$28, %esp
	.cfi_remember_state
	.cfi_def_cfa_offset 20
	movl	$1, %eax
	popl	%ebx
	.cfi_restore 3
	.cfi_def_cfa_offset 16
	popl	%esi
	.cfi_restore 6
	.cfi_def_cfa_offset 12
	popl	%edi
	.cfi_restore 7
	.cfi_def_cfa_offset 8
	popl	%ebp
	.cfi_restore 5
	.cfi_def_cfa_offset 4
	ret
	.p2align 4,,7
	.p2align 3
.L1099:
	.cfi_restore_state
	addl	$28, %esp
	.cfi_def_cfa_offset 20
	xorl	%eax, %eax
	popl	%ebx
	.cfi_restore 3
	.cfi_def_cfa_offset 16
	popl	%esi
	.cfi_restore 6
	.cfi_def_cfa_offset 12
	popl	%edi
	.cfi_restore 7
	.cfi_def_cfa_offset 8
	popl	%ebp
	.cfi_restore 5
	.cfi_def_cfa_offset 4
	ret
	.cfi_endproc
.LFE397:
	.size	create_untypeds, .-create_untypeds
	.p2align 4,,15
	.globl	bi_finalise
	.type	bi_finalise, @function
bi_finalise:
.LFB398:
	.cfi_startproc
	movl	ndks_boot+24, %edx
	movl	ndks_boot+16, %eax
	movl	ndks_boot+20, %ecx
	movl	%edx, 20(%eax)
	movl	%ecx, 16(%eax)
	ret
	.cfi_endproc
.LFE398:
	.size	bi_finalise, .-bi_finalise
	.text
	.p2align 4,,15
	.globl	resolveAddressBits
	.type	resolveAddressBits, @function
resolveAddressBits:
.LFB406:
	.cfi_startproc
	pushl	%ebp
	.cfi_def_cfa_offset 8
	.cfi_offset 5, -8
	pushl	%edi
	.cfi_def_cfa_offset 12
	.cfi_offset 7, -12
	pushl	%esi
	.cfi_def_cfa_offset 16
	.cfi_offset 6, -16
	pushl	%ebx
	.cfi_def_cfa_offset 20
	.cfi_offset 3, -20
	subl	$8, %esp
	.cfi_def_cfa_offset 28
	movl	32(%esp), %ebp
	movl	28(%esp), %eax
	movl	36(%esp), %ecx
	movl	%ebp, %esi
	movl	%ebp, %edx
	andl	$14, %esi
	movl	%ebp, %ebx
	andl	$15, %edx
	movzbl	%bl, %ebx
	cmpl	$14, %esi
	cmove	%ebx, %edx
	cmpl	$10, %edx
	jne	.L1124
	movl	44(%esp), %ebx
	movl	%ebp, 4(%esp)
	movl	%eax, 28(%esp)
.L1120:
	movl	%ecx, %edx
	movl	%ebx, %edi
	andl	$8126464, %edx
	movl	%ecx, %esi
	shrl	$18, %edx
	andl	$262143, %ecx
	subl	%edx, %edi
	movl	$1, %eax
	movl	%ecx, (%esp)
	movl	%edi, %ecx
	movl	40(%esp), %edi
	andl	$260046848, %esi
	shrl	$23, %esi
	leal	(%edx,%esi), %ebp
	shrl	%cl, %edi
	movl	%edx, %ecx
	sall	%cl, %eax
	movl	%eax, %ecx
	subl	$1, %ecx
	andl	%ecx, %edi
	cmpl	(%esp), %edi
	jne	.L1121
	cmpl	%edx, %ebx
	jb	.L1121
	cmpl	%ebp, %ebx
	jb	.L1125
	movl	40(%esp), %edx
	movl	%ebx, %edi
	movl	$1, %eax
	subl	%ebp, %edi
	movl	%edi, %ecx
	shrl	%cl, %edx
	movl	%esi, %ecx
	sall	%cl, %eax
	movl	4(%esp), %ecx
	movl	%eax, %esi
	subl	$1, %esi
	andl	%esi, %edx
	sall	$4, %edx
	andl	$2147483632, %ecx
	cmpl	%ebp, %ebx
	leal	(%edx,%ecx,2), %edx
	ja	.L1116
	movl	28(%esp), %eax
	movl	$0, (%eax)
	movl	%edx, 4(%eax)
	movl	$0, 8(%eax)
.L1108:
	addl	$8, %esp
	.cfi_remember_state
	.cfi_def_cfa_offset 20
	popl	%ebx
	.cfi_restore 3
	.cfi_def_cfa_offset 16
	popl	%esi
	.cfi_restore 6
	.cfi_def_cfa_offset 12
	popl	%edi
	.cfi_restore 7
	.cfi_def_cfa_offset 8
	popl	%ebp
	.cfi_restore 5
	.cfi_def_cfa_offset 4
	ret	$4
.L1124:
	.cfi_restore_state
	movl	$0, current_lookup_fault
.L1123:
	movl	44(%esp), %ebx
	movl	$0, current_lookup_fault+4
	movl	$2, (%eax)
	movl	$0, 4(%eax)
	movl	%ebx, 8(%eax)
	jmp	.L1108
.L1116:
	movl	(%edx), %eax
	movl	4(%edx), %ecx
	movl	%eax, %ebx
	andl	$14, %ebx
	cmpl	$14, %ebx
	movl	%eax, 4(%esp)
	je	.L1117
	movl	%eax, %ebx
	andl	$15, %ebx
.L1118:
	cmpl	$10, %ebx
	jne	.L1119
	movl	%edi, %ebx
	jmp	.L1120
.L1125:
	sall	$8, %ebp
	movl	28(%esp), %eax
	sall	$2, %ebx
	orl	%ebx, %ebp
	orl	$2, %ebp
	movl	%ebp, current_lookup_fault
	jmp	.L1123
.L1121:
	andl	$63, %ebx
	movl	28(%esp), %eax
	sall	$8, %ebx
	leal	3(,%edx,4), %edx
	orl	%ebx, %edx
	movl	(%esp), %ebx
	movl	%edx, current_lookup_fault
	movl	$2, (%eax)
	movl	$0, 4(%eax)
	movl	%ebx, current_lookup_fault+4
	movl	44(%esp), %ebx
	movl	%ebx, 8(%eax)
	jmp	.L1108
.L1117:
	movzbl	4(%esp), %ebx
	jmp	.L1118
.L1119:
	movl	28(%esp), %eax
	movl	$0, (%eax)
	movl	%edx, 4(%eax)
	movl	%edi, 8(%eax)
	jmp	.L1108
	.cfi_endproc
.LFE406:
	.size	resolveAddressBits, .-resolveAddressBits
	.p2align 4,,15
	.globl	lookupSlot
	.type	lookupSlot, @function
lookupSlot:
.LFB401:
	.cfi_startproc
	pushl	%ebp
	.cfi_def_cfa_offset 8
	.cfi_offset 5, -8
	movl	%esp, %ebp
	.cfi_def_cfa_register 5
	pushl	%edi
	pushl	%esi
	pushl	%ebx
	subl	$36, %esp
	.cfi_offset 7, -12
	.cfi_offset 6, -16
	.cfi_offset 3, -20
	movl	12(%ebp), %eax
	movl	8(%ebp), %ebx
	andl	$-1024, %eax
	movl	4(%eax), %edx
	movl	(%eax), %eax
	movl	$32, 16(%esp)
	movl	%edx, %edi
	movl	16(%ebp), %edx
	movl	%eax, %esi
	leal	-24(%ebp), %eax
	movl	%esi, 4(%esp)
	movl	%edi, 8(%esp)
	movl	%eax, (%esp)
	movl	%edx, 12(%esp)
	call	resolveAddressBits
	movl	-24(%ebp), %eax
	movl	%eax, (%ebx)
	movl	-20(%ebp), %eax
	subl	$4, %esp
	movl	%eax, 4(%ebx)
	leal	-12(%ebp), %esp
	movl	%ebx, %eax
	popl	%ebx
	.cfi_restore 3
	popl	%esi
	.cfi_restore 6
	popl	%edi
	.cfi_restore 7
	popl	%ebp
	.cfi_restore 5
	.cfi_def_cfa 4, 4
	ret	$4
	.cfi_endproc
.LFE401:
	.size	lookupSlot, .-lookupSlot
	.p2align 4,,15
	.globl	lookupCap
	.type	lookupCap, @function
lookupCap:
.LFB399:
	.cfi_startproc
	pushl	%ebp
	.cfi_def_cfa_offset 8
	.cfi_offset 5, -8
	movl	%esp, %ebp
	.cfi_def_cfa_register 5
	pushl	%ebx
	subl	$24, %esp
	.cfi_offset 3, -12
	movl	16(%ebp), %edx
	leal	-16(%ebp), %eax
	movl	8(%ebp), %ebx
	movl	%eax, (%esp)
	movl	%edx, 8(%esp)
	movl	12(%ebp), %edx
	movl	%edx, 4(%esp)
	call	lookupSlot
	movl	-16(%ebp), %edx
	movl	-12(%ebp), %eax
	subl	$4, %esp
	testl	%edx, %edx
	jne	.L1132
	movl	(%eax), %edx
	movl	4(%eax), %eax
	movl	$0, (%ebx)
	movl	%edx, 4(%ebx)
	movl	%eax, 8(%ebx)
.L1128:
	movl	%ebx, %eax
	movl	-4(%ebp), %ebx
	leave
	.cfi_remember_state
	.cfi_restore 5
	.cfi_restore 3
	.cfi_def_cfa 4, 4
	ret	$4
.L1132:
	.cfi_restore_state
	movl	%edx, (%ebx)
	movl	$0, 4(%ebx)
	movl	$0, 8(%ebx)
	jmp	.L1128
	.cfi_endproc
.LFE399:
	.size	lookupCap, .-lookupCap
	.p2align 4,,15
	.globl	lookupCapAndSlot
	.type	lookupCapAndSlot, @function
lookupCapAndSlot:
.LFB400:
	.cfi_startproc
	pushl	%ebp
	.cfi_def_cfa_offset 8
	.cfi_offset 5, -8
	movl	%esp, %ebp
	.cfi_def_cfa_register 5
	pushl	%ebx
	subl	$24, %esp
	.cfi_offset 3, -12
	movl	16(%ebp), %edx
	leal	-16(%ebp), %eax
	movl	8(%ebp), %ebx
	movl	%eax, (%esp)
	movl	%edx, 8(%esp)
	movl	12(%ebp), %edx
	movl	%edx, 4(%esp)
	call	lookupSlot
	movl	-16(%ebp), %edx
	movl	-12(%ebp), %eax
	subl	$4, %esp
	testl	%edx, %edx
	jne	.L1137
	movl	(%eax), %ecx
	movl	4(%eax), %edx
	movl	$0, (%ebx)
	movl	%eax, 12(%ebx)
	movl	%ecx, 4(%ebx)
	movl	%edx, 8(%ebx)
.L1133:
	movl	%ebx, %eax
	movl	-4(%ebp), %ebx
	leave
	.cfi_remember_state
	.cfi_restore 5
	.cfi_restore 3
	.cfi_def_cfa 4, 4
	ret	$4
.L1137:
	.cfi_restore_state
	movl	%edx, (%ebx)
	movl	$0, 4(%ebx)
	movl	$0, 8(%ebx)
	movl	$0, 12(%ebx)
	jmp	.L1133
	.cfi_endproc
.LFE400:
	.size	lookupCapAndSlot, .-lookupCapAndSlot
	.p2align 4,,15
	.globl	lookupSlotForCNodeOp
	.type	lookupSlotForCNodeOp, @function
lookupSlotForCNodeOp:
.LFB402:
	.cfi_startproc
	pushl	%ebp
	.cfi_def_cfa_offset 8
	.cfi_offset 5, -8
	movl	%esp, %ebp
	.cfi_def_cfa_register 5
	pushl	%edi
	pushl	%esi
	pushl	%ebx
	subl	$36, %esp
	.cfi_offset 7, -12
	.cfi_offset 6, -16
	.cfi_offset 3, -20
	movl	16(%ebp), %eax
	movl	8(%ebp), %ebx
	movl	20(%ebp), %edi
	movl	%eax, %esi
	movl	%eax, %edx
	andl	$14, %esi
	andl	$15, %edx
	movzbl	%al, %ecx
	cmpl	$14, %esi
	cmove	%ecx, %edx
	cmpl	$10, %edx
	jne	.L1147
	movl	28(%ebp), %ecx
	leal	-1(%ecx), %edx
	cmpl	$31, %edx
	ja	.L1148
	movl	28(%ebp), %esi
	leal	-24(%ebp), %edx
	movl	24(%ebp), %ecx
	movl	%eax, 4(%esp)
	movl	%edx, (%esp)
	movl	%esi, 16(%esp)
	movl	%ecx, 12(%esp)
	movl	%edi, 8(%esp)
	call	resolveAddressBits
	movl	-24(%ebp), %edx
	movl	-16(%ebp), %eax
	subl	$4, %esp
	testl	%edx, %edx
	jne	.L1149
	testl	%eax, %eax
	jne	.L1150
	movl	-20(%ebp), %eax
	movl	$0, (%ebx)
	movl	%eax, 4(%ebx)
.L1138:
	leal	-12(%ebp), %esp
	movl	%ebx, %eax
	popl	%ebx
	.cfi_remember_state
	.cfi_restore 3
	popl	%esi
	.cfi_restore 6
	popl	%edi
	.cfi_restore 7
	popl	%ebp
	.cfi_restore 5
	.cfi_def_cfa 4, 4
	ret	$4
.L1147:
	.cfi_restore_state
	movl	12(%ebp), %eax
	movl	$6, current_syscall_error+24
	movl	$0, current_lookup_fault
	movl	$0, current_lookup_fault+4
	movl	%eax, current_syscall_error+20
	movl	$3, (%ebx)
	movl	$0, 4(%ebx)
	jmp	.L1138
.L1150:
	movl	12(%ebp), %edi
	sall	$2, %eax
	movzbl	%al, %eax
	orl	$2, %eax
	movl	$6, current_syscall_error+24
	movl	%edi, current_syscall_error+20
	movl	%eax, current_lookup_fault
	movl	$0, current_lookup_fault+4
	movl	$3, (%ebx)
	movl	$0, 4(%ebx)
	jmp	.L1138
.L1149:
	movl	12(%ebp), %eax
	movl	$6, current_syscall_error+24
	movl	$3, (%ebx)
	movl	$0, 4(%ebx)
	movl	%eax, current_syscall_error+20
	jmp	.L1138
.L1148:
	movl	$4, current_syscall_error+24
	movl	$1, current_syscall_error+8
	movl	$32, current_syscall_error+12
	movl	$3, (%ebx)
	movl	$0, 4(%ebx)
	jmp	.L1138
	.cfi_endproc
.LFE402:
	.size	lookupSlotForCNodeOp, .-lookupSlotForCNodeOp
	.p2align 4,,15
	.globl	lookupSourceSlot
	.type	lookupSourceSlot, @function
lookupSourceSlot:
.LFB403:
	.cfi_startproc
	pushl	%ebp
	.cfi_def_cfa_offset 8
	.cfi_offset 5, -8
	movl	%esp, %ebp
	.cfi_def_cfa_register 5
	pushl	%ebx
	subl	$24, %esp
	.cfi_offset 3, -12
	movl	24(%ebp), %eax
	movl	8(%ebp), %ebx
	movl	16(%ebp), %edx
	movl	$1, 4(%esp)
	movl	%eax, 20(%esp)
	movl	20(%ebp), %eax
	movl	%ebx, (%esp)
	movl	%edx, 12(%esp)
	movl	%eax, 16(%esp)
	movl	12(%ebp), %eax
	movl	%eax, 8(%esp)
	call	lookupSlotForCNodeOp
	movl	%ebx, %eax
	movl	-4(%ebp), %ebx
	subl	$4, %esp
	leave
	.cfi_restore 5
	.cfi_restore 3
	.cfi_def_cfa 4, 4
	ret	$4
	.cfi_endproc
.LFE403:
	.size	lookupSourceSlot, .-lookupSourceSlot
	.p2align 4,,15
	.globl	lookupTargetSlot
	.type	lookupTargetSlot, @function
lookupTargetSlot:
.LFB404:
	.cfi_startproc
	pushl	%ebp
	.cfi_def_cfa_offset 8
	.cfi_offset 5, -8
	movl	%esp, %ebp
	.cfi_def_cfa_register 5
	pushl	%ebx
	subl	$24, %esp
	.cfi_offset 3, -12
	movl	24(%ebp), %eax
	movl	8(%ebp), %ebx
	movl	16(%ebp), %edx
	movl	$0, 4(%esp)
	movl	%eax, 20(%esp)
	movl	20(%ebp), %eax
	movl	%ebx, (%esp)
	movl	%edx, 12(%esp)
	movl	%eax, 16(%esp)
	movl	12(%ebp), %eax
	movl	%eax, 8(%esp)
	call	lookupSlotForCNodeOp
	movl	%ebx, %eax
	movl	-4(%ebp), %ebx
	subl	$4, %esp
	leave
	.cfi_restore 5
	.cfi_restore 3
	.cfi_def_cfa 4, 4
	ret	$4
	.cfi_endproc
.LFE404:
	.size	lookupTargetSlot, .-lookupTargetSlot
	.p2align 4,,15
	.globl	lookupPivotSlot
	.type	lookupPivotSlot, @function
lookupPivotSlot:
.LFB405:
	.cfi_startproc
	pushl	%ebp
	.cfi_def_cfa_offset 8
	.cfi_offset 5, -8
	movl	%esp, %ebp
	.cfi_def_cfa_register 5
	pushl	%ebx
	subl	$24, %esp
	.cfi_offset 3, -12
	movl	24(%ebp), %eax
	movl	8(%ebp), %ebx
	movl	16(%ebp), %edx
	movl	$1, 4(%esp)
	movl	%eax, 20(%esp)
	movl	20(%ebp), %eax
	movl	%ebx, (%esp)
	movl	%edx, 12(%esp)
	movl	%eax, 16(%esp)
	movl	12(%ebp), %eax
	movl	%eax, 8(%esp)
	call	lookupSlotForCNodeOp
	movl	%ebx, %eax
	movl	-4(%ebp), %ebx
	subl	$4, %esp
	leave
	.cfi_restore 5
	.cfi_restore 3
	.cfi_def_cfa 4, 4
	ret	$4
	.cfi_endproc
.LFE405:
	.size	lookupPivotSlot, .-lookupPivotSlot
	.p2align 4,,15
	.globl	doFaultTransfer
	.type	doFaultTransfer, @function
doFaultTransfer:
.LFB419:
	.cfi_startproc
	pushl	%esi
	.cfi_def_cfa_offset 8
	.cfi_offset 6, -8
	pushl	%ebx
	.cfi_def_cfa_offset 12
	.cfi_offset 3, -12
	subl	$20, %esp
	.cfi_def_cfa_offset 32
	movl	40(%esp), %ebx
	movl	36(%esp), %esi
	movl	44(%esp), %eax
	movl	%ebx, 4(%esp)
	movl	%esi, (%esp)
	movl	%eax, 8(%esp)
	call	setMRs_fault
	movl	604(%esi), %edx
	andl	$7, %edx
	sall	$12, %edx
	andl	$127, %eax
	orl	%edx, %eax
	movl	%eax, 16(%ebx)
	movl	32(%esp), %eax
	movl	%eax, 4(%ebx)
	addl	$20, %esp
	.cfi_def_cfa_offset 12
	popl	%ebx
	.cfi_restore 3
	.cfi_def_cfa_offset 8
	popl	%esi
	.cfi_restore 6
	.cfi_def_cfa_offset 4
	ret
	.cfi_endproc
.LFE419:
	.size	doFaultTransfer, .-doFaultTransfer
	.p2align 4,,15
	.globl	doAsyncTransfer
	.type	doAsyncTransfer, @function
doAsyncTransfer:
.LFB421:
	.cfi_startproc
	movl	12(%esp), %eax
	movl	8(%esp), %edx
	movl	$1, 16(%eax)
	movl	%edx, 20(%eax)
	movl	4(%esp), %edx
	movl	%edx, 4(%eax)
	ret
	.cfi_endproc
.LFE421:
	.size	doAsyncTransfer, .-doAsyncTransfer
	.p2align 4,,15
	.globl	switchToIdleThread
	.type	switchToIdleThread, @function
switchToIdleThread:
.LFB426:
	.cfi_startproc
	movl	ksIdleThread, %eax
	movl	%eax, ksCurThread
	ret
	.cfi_endproc
.LFE426:
	.size	switchToIdleThread, .-switchToIdleThread
	.p2align 4,,15
	.globl	cteInsert
	.type	cteInsert, @function
cteInsert:
.LFB452:
	.cfi_startproc
	pushl	%ebp
	.cfi_def_cfa_offset 8
	.cfi_offset 5, -8
	pushl	%edi
	.cfi_def_cfa_offset 12
	.cfi_offset 7, -12
	pushl	%esi
	.cfi_def_cfa_offset 16
	.cfi_offset 6, -16
	pushl	%ebx
	.cfi_def_cfa_offset 20
	.cfi_offset 3, -20
	subl	$28, %esp
	.cfi_def_cfa_offset 48
	movl	52(%esp), %eax
	movl	48(%esp), %ebx
	movl	60(%esp), %esi
	movl	%eax, 4(%esp)
	movl	56(%esp), %eax
	movl	%ebx, %edx
	andl	$15, %edx
	movl	4(%eax), %ecx
	movl	12(%eax), %edi
	movl	%ecx, 20(%esp)
	movl	%ebx, %ecx
	andl	$14, %ecx
	movl	%ecx, %ebp
	movl	%edi, 16(%esp)
	movl	8(%eax), %edi
	cmpl	$14, %ebp
	movl	%ecx, 24(%esp)
	movzbl	%bl, %ecx
	cmove	%ecx, %edx
	cmpl	$4, %edx
	movl	%edi, 12(%esp)
	movl	(%eax), %edi
	je	.L1168
	jbe	.L1183
	cmpl	$6, %edx
	je	.L1168
	cmpl	$30, %edx
	.p2align 4,,5
	jne	.L1164
	movl	%edi, %ecx
	movl	%edi, %edx
	andl	$14, %ecx
	andl	$15, %edx
	movl	%ecx, %ebp
	movl	%ecx, 8(%esp)
	movl	%edi, %ecx
	cmpl	$14, %ebp
	movzbl	%cl, %ecx
	cmove	%ecx, %edx
	cmpl	$14, %edx
	sete	%dl
	movzbl	%dl, %edx
	leal	(%edx,%edx), %ecx
	movl	%edx, %ebp
	andl	$2, %ecx
.L1170:
	movl	%eax, %edx
	andl	$-8, %edx
	movl	%edx, (%esp)
	movl	12(%esp), %edx
	andl	$7, %edx
	orl	%edx, (%esp)
	movl	16(%esp), %edx
	andl	$-4, %edx
	orl	%ecx, %edx
	movl	%edi, %ecx
	andl	$15, %ecx
	orl	%ebp, %edx
	movl	%ecx, 12(%esp)
	movl	%edi, %ecx
	cmpl	$14, 8(%esp)
	movzbl	%cl, %ebp
	cmovne	12(%esp), %ebp
	cmpl	$2, %ebp
	je	.L1184
.L1175:
	movl	%ebx, (%esi)
	movl	(%esp), %edi
	movl	4(%esp), %ebx
	movl	%edx, 12(%esi)
	movl	%edi, 8(%esi)
	movl	%ebx, 4(%esi)
	movl	12(%eax), %ecx
	andl	$-8, %esi
	andl	$7, %ecx
	orl	%esi, %ecx
	andl	$-8, %edx
	movl	%ecx, 12(%eax)
	je	.L1161
	movl	8(%edx), %eax
	andl	$7, %eax
	orl	%esi, %eax
	movl	%eax, 8(%edx)
.L1161:
	addl	$28, %esp
	.cfi_remember_state
	.cfi_def_cfa_offset 20
	popl	%ebx
	.cfi_restore 3
	.cfi_def_cfa_offset 16
	popl	%esi
	.cfi_restore 6
	.cfi_def_cfa_offset 12
	popl	%edi
	.cfi_restore 7
	.cfi_def_cfa_offset 8
	popl	%ebp
	.cfi_restore 5
	.cfi_def_cfa_offset 4
	ret
	.p2align 4,,7
	.p2align 3
.L1168:
	.cfi_restore_state
	movl	4(%esp), %ecx
	movl	20(%esp), %edx
	shrl	$3, %ecx
	shrl	$3, %edx
	cmpl	%edx, %ecx
	setne	%cl
	movzbl	%cl, %ecx
	movl	%ecx, %ebp
	movl	%edi, %ecx
	andl	$14, %ecx
	movl	%ecx, 8(%esp)
	leal	(%ebp,%ebp), %ecx
	andl	$2, %ecx
	jmp	.L1170
	.p2align 4,,7
	.p2align 3
.L1184:
	movl	%ebx, %ecx
	movzbl	%bl, %ebp
	andl	$15, %ecx
	cmpl	$14, 24(%esp)
	cmove	%ebp, %ecx
	cmpl	$2, %ecx
	jne	.L1175
	movl	%ebx, %ecx
	andl	$-16, %edi
	andl	$-16, %ecx
	cmpl	%ecx, %edi
	jne	.L1175
	movl	4(%esp), %ebp
	movl	20(%esp), %ecx
	andl	$31, %ebp
	andl	$31, %ecx
	cmpl	%ecx, %ebp
	jne	.L1175
	leal	-4(%ebp), %ecx
	movl	$32, %edi
	sall	%cl, %edi
	orl	%ebp, %edi
	movl	%edi, 4(%eax)
	jmp	.L1175
	.p2align 4,,7
	.p2align 3
.L1183:
	cmpl	$2, %edx
	jne	.L1164
	movl	%edi, %ecx
	movl	$1, %ebp
	andl	$14, %ecx
	movl	%ecx, 8(%esp)
	movl	$2, %ecx
	jmp	.L1170
	.p2align 4,,7
	.p2align 3
.L1164:
	movl	%edi, %ecx
	xorl	%ebp, %ebp
	andl	$14, %ecx
	movl	%ecx, 8(%esp)
	xorl	%ecx, %ecx
	jmp	.L1170
	.cfi_endproc
.LFE452:
	.size	cteInsert, .-cteInsert
	.p2align 4,,15
	.globl	invokeCNodeInsert
	.type	invokeCNodeInsert, @function
invokeCNodeInsert:
.LFB447:
	.cfi_startproc
	subl	$16, %esp
	.cfi_def_cfa_offset 20
	movl	32(%esp), %eax
	movl	24(%esp), %edx
	movl	%eax, 12(%esp)
	movl	28(%esp), %eax
	movl	%edx, 4(%esp)
	movl	%eax, 8(%esp)
	movl	20(%esp), %eax
	movl	%eax, (%esp)
	call	cteInsert
	xorl	%eax, %eax
	addl	$16, %esp
	.cfi_def_cfa_offset 4
	ret
	.cfi_endproc
.LFE447:
	.size	invokeCNodeInsert, .-invokeCNodeInsert
	.p2align 4,,15
	.globl	cteMove
	.type	cteMove, @function
cteMove:
.LFB453:
	.cfi_startproc
	pushl	%edi
	.cfi_def_cfa_offset 8
	.cfi_offset 7, -8
	pushl	%esi
	.cfi_def_cfa_offset 12
	.cfi_offset 6, -12
	pushl	%ebx
	.cfi_def_cfa_offset 16
	.cfi_offset 3, -16
	movl	24(%esp), %ecx
	movl	28(%esp), %ebx
	movl	16(%esp), %eax
	movl	20(%esp), %edx
	movl	8(%ecx), %edi
	movl	12(%ecx), %esi
	movl	%eax, (%ebx)
	movl	%edx, 4(%ebx)
	movl	$0, (%ecx)
	movl	$0, 4(%ecx)
	movl	%edi, 8(%ebx)
	andl	$-8, %edi
	movl	%esi, 12(%ebx)
	movl	$0, 8(%ecx)
	movl	$0, 12(%ecx)
	je	.L1188
	movl	12(%edi), %eax
	movl	%ebx, %edx
	andl	$-8, %edx
	andl	$7, %eax
	orl	%edx, %eax
	movl	%eax, 12(%edi)
.L1188:
	andl	$-8, %esi
	je	.L1187
	movl	8(%esi), %eax
	andl	$-8, %ebx
	andl	$7, %eax
	orl	%ebx, %eax
	movl	%eax, 8(%esi)
.L1187:
	popl	%ebx
	.cfi_restore 3
	.cfi_def_cfa_offset 12
	popl	%esi
	.cfi_restore 6
	.cfi_def_cfa_offset 8
	popl	%edi
	.cfi_restore 7
	.cfi_def_cfa_offset 4
	ret
	.cfi_endproc
.LFE453:
	.size	cteMove, .-cteMove
	.p2align 4,,15
	.globl	invokeCNodeMove
	.type	invokeCNodeMove, @function
invokeCNodeMove:
.LFB448:
	.cfi_startproc
	subl	$16, %esp
	.cfi_def_cfa_offset 20
	movl	32(%esp), %eax
	movl	24(%esp), %edx
	movl	%eax, 12(%esp)
	movl	28(%esp), %eax
	movl	%edx, 4(%esp)
	movl	%eax, 8(%esp)
	movl	20(%esp), %eax
	movl	%eax, (%esp)
	call	cteMove
	xorl	%eax, %eax
	addl	$16, %esp
	.cfi_def_cfa_offset 4
	ret
	.cfi_endproc
.LFE448:
	.size	invokeCNodeMove, .-invokeCNodeMove
	.p2align 4,,15
	.globl	invokeCNodeSaveCaller
	.type	invokeCNodeSaveCaller, @function
invokeCNodeSaveCaller:
.LFB450:
	.cfi_startproc
	pushl	%edi
	.cfi_def_cfa_offset 8
	.cfi_offset 7, -8
	pushl	%esi
	.cfi_def_cfa_offset 12
	.cfi_offset 6, -12
	pushl	%ebx
	.cfi_def_cfa_offset 16
	.cfi_offset 3, -16
	subl	$16, %esp
	.cfi_def_cfa_offset 32
	movl	ksCurThread, %eax
	andl	$-1024, %eax
	movl	48(%eax), %edx
	leal	48(%eax), %ecx
	movl	52(%eax), %edi
	movl	%edx, %esi
	movl	%edx, %eax
	andl	$14, %esi
	andl	$15, %eax
	movzbl	%dl, %ebx
	cmpl	$14, %esi
	cmove	%ebx, %eax
	testl	%eax, %eax
	je	.L1203
	cmpl	$8, %eax
	jne	.L1208
	testl	$1, %edi
	je	.L1210
.L1203:
	addl	$16, %esp
	.cfi_remember_state
	.cfi_def_cfa_offset 16
	xorl	%eax, %eax
	popl	%ebx
	.cfi_restore 3
	.cfi_def_cfa_offset 12
	popl	%esi
	.cfi_restore 6
	.cfi_def_cfa_offset 8
	popl	%edi
	.cfi_restore 7
	.cfi_def_cfa_offset 4
	ret
	.p2align 4,,7
	.p2align 3
.L1208:
	.cfi_restore_state
	call	halt
	.p2align 4,,7
	.p2align 3
.L1210:
	movl	32(%esp), %eax
	movl	%ecx, 8(%esp)
	movl	%edx, (%esp)
	movl	%edi, 4(%esp)
	movl	%eax, 12(%esp)
	call	cteMove
	jmp	.L1203
	.cfi_endproc
.LFE450:
	.size	invokeCNodeSaveCaller, .-invokeCNodeSaveCaller
	.p2align 4,,15
	.globl	cteSwap
	.type	cteSwap, @function
cteSwap:
.LFB455:
	.cfi_startproc
	pushl	%ebp
	.cfi_def_cfa_offset 8
	.cfi_offset 5, -8
	pushl	%edi
	.cfi_def_cfa_offset 12
	.cfi_offset 7, -12
	pushl	%esi
	.cfi_def_cfa_offset 16
	.cfi_offset 6, -16
	pushl	%ebx
	.cfi_def_cfa_offset 20
	.cfi_offset 3, -20
	movl	28(%esp), %ecx
	movl	32(%esp), %eax
	movl	36(%esp), %edx
	movl	40(%esp), %ebx
	movl	%eax, (%ecx)
	movl	20(%esp), %eax
	movl	%edx, 4(%ecx)
	movl	24(%esp), %edx
	movl	%eax, (%ebx)
	movl	%edx, 4(%ebx)
	movl	8(%ecx), %edi
	movl	12(%ecx), %esi
	movl	%edi, %edx
	andl	$-8, %edx
	je	.L1212
	movl	12(%edx), %eax
	movl	%ebx, %ebp
	andl	$-8, %ebp
	andl	$7, %eax
	orl	%ebp, %eax
	movl	%eax, 12(%edx)
.L1212:
	movl	%esi, %edx
	andl	$-8, %edx
	je	.L1213
	movl	8(%edx), %eax
	movl	%ebx, %ebp
	andl	$-8, %ebp
	andl	$7, %eax
	orl	%ebp, %eax
	movl	%eax, 8(%edx)
.L1213:
	movl	8(%ebx), %edx
	movl	12(%ebx), %eax
	movl	%edx, 8(%ecx)
	andl	$-8, %edx
	movl	%eax, 12(%ecx)
	movl	%edi, 8(%ebx)
	movl	%esi, 12(%ebx)
	je	.L1214
	movl	12(%edx), %ebx
	movl	%ecx, %esi
	andl	$-8, %esi
	andl	$7, %ebx
	orl	%esi, %ebx
	movl	%ebx, 12(%edx)
.L1214:
	andl	$-8, %eax
	je	.L1211
	movl	8(%eax), %edx
	andl	$-8, %ecx
	andl	$7, %edx
	orl	%ecx, %edx
	movl	%edx, 8(%eax)
.L1211:
	popl	%ebx
	.cfi_restore 3
	.cfi_def_cfa_offset 16
	popl	%esi
	.cfi_restore 6
	.cfi_def_cfa_offset 12
	popl	%edi
	.cfi_restore 7
	.cfi_def_cfa_offset 8
	popl	%ebp
	.cfi_restore 5
	.cfi_def_cfa_offset 4
	ret
	.cfi_endproc
.LFE455:
	.size	cteSwap, .-cteSwap
	.p2align 4,,15
	.globl	invokeCNodeRotate
	.type	invokeCNodeRotate, @function
invokeCNodeRotate:
.LFB449:
	.cfi_startproc
	pushl	%esi
	.cfi_def_cfa_offset 8
	.cfi_offset 6, -8
	pushl	%ebx
	.cfi_def_cfa_offset 12
	.cfi_offset 3, -12
	subl	$24, %esp
	.cfi_def_cfa_offset 36
	movl	52(%esp), %ebx
	movl	60(%esp), %eax
	movl	56(%esp), %esi
	cmpl	%eax, %ebx
	je	.L1233
	movl	48(%esp), %edx
	movl	%eax, 12(%esp)
	movl	44(%esp), %eax
	movl	%esi, 8(%esp)
	movl	%edx, 4(%esp)
	movl	%eax, (%esp)
	call	cteMove
	movl	36(%esp), %eax
	movl	40(%esp), %edx
	movl	%esi, 12(%esp)
	movl	%ebx, 8(%esp)
	movl	%eax, (%esp)
	movl	%edx, 4(%esp)
	call	cteMove
	addl	$24, %esp
	.cfi_remember_state
	.cfi_def_cfa_offset 12
	xorl	%eax, %eax
	popl	%ebx
	.cfi_restore 3
	.cfi_def_cfa_offset 8
	popl	%esi
	.cfi_restore 6
	.cfi_def_cfa_offset 4
	ret
	.p2align 4,,7
	.p2align 3
.L1233:
	.cfi_restore_state
	movl	44(%esp), %eax
	movl	48(%esp), %edx
	movl	%esi, 20(%esp)
	movl	%ebx, 8(%esp)
	movl	%eax, 12(%esp)
	movl	36(%esp), %eax
	movl	%edx, 16(%esp)
	movl	40(%esp), %edx
	movl	%eax, (%esp)
	movl	%edx, 4(%esp)
	call	cteSwap
	addl	$24, %esp
	.cfi_def_cfa_offset 12
	xorl	%eax, %eax
	popl	%ebx
	.cfi_restore 3
	.cfi_def_cfa_offset 8
	popl	%esi
	.cfi_restore 6
	.cfi_def_cfa_offset 4
	ret
	.cfi_endproc
.LFE449:
	.size	invokeCNodeRotate, .-invokeCNodeRotate
	.p2align 4,,15
	.globl	capSwapForDelete
	.type	capSwapForDelete, @function
capSwapForDelete:
.LFB454:
	.cfi_startproc
	pushl	%edi
	.cfi_def_cfa_offset 8
	.cfi_offset 7, -8
	pushl	%esi
	.cfi_def_cfa_offset 12
	.cfi_offset 6, -12
	pushl	%ebx
	.cfi_def_cfa_offset 16
	.cfi_offset 3, -16
	subl	$24, %esp
	.cfi_def_cfa_offset 40
	movl	40(%esp), %ecx
	movl	44(%esp), %ebx
	cmpl	%ebx, %ecx
	je	.L1234
	movl	(%ecx), %eax
	movl	4(%ecx), %edx
	movl	%eax, %esi
	movl	(%ebx), %eax
	movl	%edx, %edi
	movl	4(%ebx), %edx
	movl	%ebx, 20(%esp)
	movl	%ecx, 8(%esp)
	movl	%eax, 12(%esp)
	movl	%edx, 16(%esp)
	movl	%esi, (%esp)
	movl	%edi, 4(%esp)
	call	cteSwap
.L1234:
	addl	$24, %esp
	.cfi_def_cfa_offset 16
	popl	%ebx
	.cfi_restore 3
	.cfi_def_cfa_offset 12
	popl	%esi
	.cfi_restore 6
	.cfi_def_cfa_offset 8
	popl	%edi
	.cfi_restore 7
	.cfi_def_cfa_offset 4
	ret
	.cfi_endproc
.LFE454:
	.size	capSwapForDelete, .-capSwapForDelete
	.p2align 4,,15
	.globl	insertNewCap
	.type	insertNewCap, @function
insertNewCap:
.LFB465:
	.cfi_startproc
	pushl	%esi
	.cfi_def_cfa_offset 8
	.cfi_offset 6, -8
	pushl	%ebx
	.cfi_def_cfa_offset 12
	.cfi_offset 3, -12
	movl	12(%esp), %ebx
	movl	16(%esp), %esi
	movl	20(%esp), %eax
	movl	24(%esp), %edx
	movl	12(%ebx), %ecx
	movl	%eax, (%esi)
	movl	%ebx, %eax
	andl	$-8, %eax
	andl	$-8, %ecx
	movl	%eax, 8(%esi)
	movl	%ecx, %eax
	orl	$3, %eax
	movl	%edx, 4(%esi)
	movl	%eax, 12(%esi)
	andl	$-8, %esi
	testl	%ecx, %ecx
	je	.L1240
	movl	8(%ecx), %eax
	andl	$7, %eax
	orl	%esi, %eax
	movl	%eax, 8(%ecx)
.L1240:
	movl	12(%ebx), %eax
	andl	$7, %eax
	orl	%esi, %eax
	movl	%eax, 12(%ebx)
	popl	%ebx
	.cfi_restore 3
	.cfi_def_cfa_offset 8
	popl	%esi
	.cfi_restore 6
	.cfi_def_cfa_offset 4
	ret
	.cfi_endproc
.LFE465:
	.size	insertNewCap, .-insertNewCap
	.p2align 4,,15
	.globl	setupReplyMaster
	.type	setupReplyMaster, @function
setupReplyMaster:
.LFB466:
	.cfi_startproc
	pushl	%edi
	.cfi_def_cfa_offset 8
	.cfi_offset 7, -8
	pushl	%esi
	.cfi_def_cfa_offset 12
	.cfi_offset 6, -12
	pushl	%ebx
	.cfi_def_cfa_offset 16
	.cfi_offset 3, -16
	movl	16(%esp), %esi
	movl	%esi, %ecx
	andl	$-1024, %ecx
	movl	32(%ecx), %edx
	movl	%edx, %edi
	movl	%edx, %eax
	andl	$14, %edi
	andl	$15, %eax
	movzbl	%dl, %edx
	cmpl	$14, %edi
	cmove	%edx, %eax
	testl	%eax, %eax
	jne	.L1242
	andl	$-16, %esi
	orl	$8, %esi
	movl	%esi, 32(%ecx)
	movl	$1, 36(%ecx)
	movl	$0, 40(%ecx)
	movl	$3, 44(%ecx)
.L1242:
	popl	%ebx
	.cfi_restore 3
	.cfi_def_cfa_offset 12
	popl	%esi
	.cfi_restore 6
	.cfi_def_cfa_offset 8
	popl	%edi
	.cfi_restore 7
	.cfi_def_cfa_offset 4
	ret
	.cfi_endproc
.LFE466:
	.size	setupReplyMaster, .-setupReplyMaster
	.p2align 4,,15
	.globl	ensureEmptySlot
	.type	ensureEmptySlot, @function
ensureEmptySlot:
.LFB469:
	.cfi_startproc
	movl	4(%esp), %eax
	movl	(%eax), %eax
	movl	%eax, %ecx
	movl	%eax, %edx
	andl	$14, %ecx
	andl	$15, %edx
	movzbl	%al, %eax
	cmpl	$14, %ecx
	cmove	%eax, %edx
	xorl	%eax, %eax
	testl	%edx, %edx
	je	.L1250
	movl	$8, current_syscall_error+24
	movb	$3, %al
.L1250:
	rep ret
	.cfi_endproc
.LFE469:
	.size	ensureEmptySlot, .-ensureEmptySlot
	.p2align 4,,15
	.globl	getReceiveSlots
	.type	getReceiveSlots, @function
getReceiveSlots:
.LFB472:
	.cfi_startproc
	pushl	%ebp
	.cfi_def_cfa_offset 8
	.cfi_offset 5, -8
	movl	%esp, %ebp
	.cfi_def_cfa_register 5
	pushl	%esi
	pushl	%ebx
	subl	$48, %esp
	.cfi_offset 6, -12
	.cfi_offset 3, -16
	movl	12(%ebp), %eax
	testl	%eax, %eax
	je	.L1256
	movl	504(%eax), %ebx
	leal	-20(%ebp), %edx
	movl	508(%eax), %esi
	movl	500(%eax), %eax
	movl	%edx, (%esp)
	movl	%eax, 8(%esp)
	movl	8(%ebp), %eax
	movl	%eax, 4(%esp)
	call	lookupCap
	movl	-20(%ebp), %ecx
	subl	$4, %esp
	testl	%ecx, %ecx
	jne	.L1256
	movl	-16(%ebp), %eax
	leal	-32(%ebp), %ecx
	movl	-12(%ebp), %edx
	movl	%esi, 20(%esp)
	movl	%ebx, 16(%esp)
	movl	%eax, 8(%esp)
	movl	%edx, 12(%esp)
	movl	$0, 4(%esp)
	movl	%ecx, (%esp)
	call	lookupSlotForCNodeOp
	movl	-32(%ebp), %edx
	movl	-28(%ebp), %eax
	subl	$4, %esp
	testl	%edx, %edx
	jne	.L1256
	movl	(%eax), %ecx
	movl	%ecx, %ebx
	movl	%ecx, %edx
	andl	$14, %ebx
	andl	$15, %edx
	movzbl	%cl, %ecx
	cmpl	$14, %ebx
	cmove	%ecx, %edx
	testl	%edx, %edx
	jne	.L1256
	leal	-8(%ebp), %esp
	popl	%ebx
	.cfi_remember_state
	.cfi_restore 3
	popl	%esi
	.cfi_restore 6
	popl	%ebp
	.cfi_restore 5
	.cfi_def_cfa 4, 4
	ret
	.p2align 4,,7
	.p2align 3
.L1256:
	.cfi_restore_state
	leal	-8(%ebp), %esp
	xorl	%eax, %eax
	popl	%ebx
	.cfi_restore 3
	popl	%esi
	.cfi_restore 6
	popl	%ebp
	.cfi_restore 5
	.cfi_def_cfa 4, 4
	ret
	.cfi_endproc
.LFE472:
	.size	getReceiveSlots, .-getReceiveSlots
	.p2align 4,,15
	.globl	loadCapTransfer
	.type	loadCapTransfer, @function
loadCapTransfer:
.LFB473:
	.cfi_startproc
	pushl	%ebx
	.cfi_def_cfa_offset 8
	.cfi_offset 3, -8
	movl	12(%esp), %edx
	movl	8(%esp), %eax
	movl	504(%edx), %ecx
	movl	%ecx, %ebx
	movl	508(%edx), %ecx
	movl	500(%edx), %edx
	movl	%ebx, 4(%eax)
	movl	%ecx, 8(%eax)
	movl	%edx, (%eax)
	popl	%ebx
	.cfi_restore 3
	.cfi_def_cfa_offset 4
	ret	$4
	.cfi_endproc
.LFE473:
	.size	loadCapTransfer, .-loadCapTransfer
	.p2align 4,,15
	.globl	replyFromKernel_error
	.type	replyFromKernel_error, @function
replyFromKernel_error:
.LFB478:
	.cfi_startproc
	pushl	%ebx
	.cfi_def_cfa_offset 8
	.cfi_offset 3, -8
	subl	$24, %esp
	.cfi_def_cfa_offset 32
	movl	32(%esp), %ebx
	movl	$1, (%esp)
	movl	%ebx, 4(%esp)
	call	lookupIPCBuffer
	movl	$0, 4(%ebx)
	movl	%ebx, (%esp)
	movl	%eax, 4(%esp)
	call	setMRs_syscall_error
	movl	current_syscall_error+24, %edx
	sall	$12, %edx
	andl	$127, %eax
	orl	%edx, %eax
	movl	%eax, 16(%ebx)
	addl	$24, %esp
	.cfi_def_cfa_offset 8
	popl	%ebx
	.cfi_restore 3
	.cfi_def_cfa_offset 4
	ret
	.cfi_endproc
.LFE478:
	.size	replyFromKernel_error, .-replyFromKernel_error
	.p2align 4,,15
	.globl	replyFromKernel_success_empty
	.type	replyFromKernel_success_empty, @function
replyFromKernel_success_empty:
.LFB479:
	.cfi_startproc
	movl	4(%esp), %eax
	movl	$0, 4(%eax)
	movl	$0, 16(%eax)
	ret
	.cfi_endproc
.LFE479:
	.size	replyFromKernel_success_empty, .-replyFromKernel_success_empty
	.p2align 4,,15
	.globl	isIRQActive
	.type	isIRQActive, @function
isIRQActive:
.LFB492:
	.cfi_startproc
	movl	4(%esp), %eax
	movl	intStateIRQTable(,%eax,4), %eax
	testl	%eax, %eax
	setne	%al
	movzbl	%al, %eax
	ret
	.cfi_endproc
.LFE492:
	.size	isIRQActive, .-isIRQActive
	.p2align 4,,15
	.globl	getObjectSize
	.type	getObjectSize, @function
getObjectSize:
.LFB494:
	.cfi_startproc
	movl	4(%esp), %edx
	movl	8(%esp), %ecx
	cmpl	$4, %edx
	ja	.L1276
	cmpl	$3, %edx
	ja	.L1269
	cmpl	$2, %edx
	movl	$4, %eax
	jae	.L1270
	cmpl	$1, %edx
	movb	$10, %al
	jne	.L1268
.L1270:
	rep ret
	.p2align 4,,7
	.p2align 3
.L1269:
	cmpl	$4, %edx
	leal	4(%ecx), %eax
	je	.L1270
.L1268:
	movl	%ecx, %eax
	.p2align 4,,3
	ret
	.p2align 4,,7
	.p2align 3
.L1276:
	jmp	Arch_getObjectSize
	.cfi_endproc
.LFE494:
	.size	getObjectSize, .-getObjectSize
	.p2align 4,,15
	.globl	hasRecycleRights
	.type	hasRecycleRights, @function
hasRecycleRights:
.LFB498:
	.cfi_startproc
	pushl	%esi
	.cfi_def_cfa_offset 8
	.cfi_offset 6, -8
	pushl	%ebx
	.cfi_def_cfa_offset 12
	.cfi_offset 3, -12
	movl	12(%esp), %edx
	movl	16(%esp), %esi
	movl	%edx, %ecx
	movl	%edx, %eax
	andl	$14, %ecx
	andl	$15, %eax
	movzbl	%dl, %ebx
	cmpl	$14, %ecx
	cmove	%ebx, %eax
	cmpl	$4, %eax
	je	.L1281
	jbe	.L1307
	cmpl	$6, %eax
	jne	.L1308
	movl	%esi, %edx
	xorl	%eax, %eax
	andl	$1, %edx
	andl	$2, %esi
	cmovne	%edx, %eax
.L1283:
	popl	%ebx
	.cfi_remember_state
	.cfi_restore 3
	.cfi_def_cfa_offset 8
	popl	%esi
	.cfi_restore 6
	.cfi_def_cfa_offset 4
	ret
	.p2align 4,,7
	.p2align 3
.L1308:
	.cfi_restore_state
	cmpl	$62, %eax
	jne	.L1280
.L1292:
	xorl	%eax, %eax
	popl	%ebx
	.cfi_remember_state
	.cfi_restore 3
	.cfi_def_cfa_offset 8
	popl	%esi
	.cfi_restore 6
	.cfi_def_cfa_offset 4
	ret
	.p2align 4,,7
	.p2align 3
.L1307:
	.cfi_restore_state
	testl	%eax, %eax
	je	.L1292
.L1280:
	cmpl	$14, %ecx
	.p2align 4,,3
	je	.L1287
	movl	%edx, %eax
	andl	$15, %eax
	testb	$1, %dl
	je	.L1305
.L1290:
	cmpl	$1, %eax
	jne	.L1305
	andl	$50331648, %edx
	xorl	%eax, %eax
	cmpl	$50331648, %edx
	sete	%al
	jmp	.L1283
	.p2align 4,,7
	.p2align 3
.L1281:
	xorl	%eax, %eax
	testl	$2, %esi
	je	.L1283
	testl	$1, %esi
	je	.L1283
	xorl	%eax, %eax
	andl	$4, %esi
	setne	%al
	jmp	.L1283
	.p2align 4,,7
	.p2align 3
.L1287:
	testb	$1, %dl
	movzbl	%dl, %eax
	jne	.L1290
	.p2align 4,,7
	.p2align 3
.L1305:
	movl	$1, %eax
	popl	%ebx
	.cfi_restore 3
	.cfi_def_cfa_offset 8
	popl	%esi
	.cfi_restore 6
	.cfi_def_cfa_offset 4
	ret
	.cfi_endproc
.LFE498:
	.size	hasRecycleRights, .-hasRecycleRights
	.p2align 4,,15
	.globl	sameRegionAs
	.type	sameRegionAs, @function
sameRegionAs:
.LFB499:
	.cfi_startproc
	pushl	%ebp
	.cfi_def_cfa_offset 8
	.cfi_offset 5, -8
	pushl	%edi
	.cfi_def_cfa_offset 12
	.cfi_offset 7, -12
	pushl	%esi
	.cfi_def_cfa_offset 16
	.cfi_offset 6, -16
	pushl	%ebx
	.cfi_def_cfa_offset 20
	.cfi_offset 3, -20
	subl	$28, %esp
	.cfi_def_cfa_offset 48
	movl	48(%esp), %ecx
	movl	52(%esp), %ebx
	movl	56(%esp), %edx
	movl	60(%esp), %esi
	movl	%ecx, %ebp
	movl	%ecx, %eax
	andl	$14, %ebp
	andl	$15, %eax
	movzbl	%cl, %edi
	cmpl	$14, %ebp
	cmove	%edi, %eax
	cmpl	$62, %eax
	ja	.L1312
	jmp	*.L1314(,%eax,4)
	.section	.rodata
	.align 4
	.align 4
.L1314:
	.long	.L1312
	.long	.L1312
	.long	.L1313
	.long	.L1312
	.long	.L1315
	.long	.L1312
	.long	.L1316
	.long	.L1312
	.long	.L1317
	.long	.L1312
	.long	.L1318
	.long	.L1312
	.long	.L1319
	.long	.L1312
	.long	.L1320
	.long	.L1312
	.long	.L1312
	.long	.L1312
	.long	.L1312
	.long	.L1312
	.long	.L1312
	.long	.L1312
	.long	.L1312
	.long	.L1312
	.long	.L1312
	.long	.L1312
	.long	.L1312
	.long	.L1312
	.long	.L1312
	.long	.L1312
	.long	.L1321
	.long	.L1312
	.long	.L1312
	.long	.L1312
	.long	.L1312
	.long	.L1312
	.long	.L1312
	.long	.L1312
	.long	.L1312
	.long	.L1312
	.long	.L1312
	.long	.L1312
	.long	.L1312
	.long	.L1312
	.long	.L1312
	.long	.L1312
	.long	.L1312
	.long	.L1312
	.long	.L1312
	.long	.L1312
	.long	.L1312
	.long	.L1312
	.long	.L1312
	.long	.L1312
	.long	.L1312
	.long	.L1312
	.long	.L1312
	.long	.L1312
	.long	.L1312
	.long	.L1312
	.long	.L1312
	.long	.L1312
	.long	.L1322
	.text
	.p2align 4,,7
	.p2align 3
.L1322:
	movl	%edx, %ecx
	xorl	%eax, %eax
	andl	$14, %ecx
	cmpl	$14, %ecx
	je	.L1409
	.p2align 4,,7
	.p2align 3
.L1362:
	addl	$28, %esp
	.cfi_remember_state
	.cfi_def_cfa_offset 20
	popl	%ebx
	.cfi_restore 3
	.cfi_def_cfa_offset 16
	popl	%esi
	.cfi_restore 6
	.cfi_def_cfa_offset 12
	popl	%edi
	.cfi_restore 7
	.cfi_def_cfa_offset 8
	popl	%ebp
	.cfi_restore 5
	.cfi_def_cfa_offset 4
	ret
	.p2align 4,,7
	.p2align 3
.L1313:
	.cfi_restore_state
	movl	%edx, %ebp
	andl	$-16, %ecx
	andl	$14, %ebp
	movl	%edx, %eax
	andl	$15, %eax
	cmpl	$14, %ebp
	movl	%ecx, 12(%esp)
	movzbl	%dl, %ecx
	cmove	%ecx, %eax
	cmpl	$62, %eax
	ja	.L1341
	jmp	*.L1327(,%eax,4)
	.section	.rodata
	.align 4
	.align 4
.L1327:
	.long	.L1380
	.long	.L1334
	.long	.L1333
	.long	.L1334
	.long	.L1333
	.long	.L1334
	.long	.L1333
	.long	.L1380
	.long	.L1380
	.long	.L1334
	.long	.L1335
	.long	.L1380
	.long	.L1336
	.long	.L1341
	.long	.L1380
	.long	.L1341
	.long	.L1341
	.long	.L1341
	.long	.L1341
	.long	.L1341
	.long	.L1341
	.long	.L1341
	.long	.L1341
	.long	.L1341
	.long	.L1341
	.long	.L1341
	.long	.L1341
	.long	.L1341
	.long	.L1341
	.long	.L1341
	.long	.L1380
	.long	.L1341
	.long	.L1341
	.long	.L1341
	.long	.L1341
	.long	.L1341
	.long	.L1341
	.long	.L1341
	.long	.L1341
	.long	.L1341
	.long	.L1341
	.long	.L1341
	.long	.L1341
	.long	.L1341
	.long	.L1341
	.long	.L1341
	.long	.L1337
	.long	.L1341
	.long	.L1341
	.long	.L1341
	.long	.L1341
	.long	.L1341
	.long	.L1341
	.long	.L1341
	.long	.L1341
	.long	.L1341
	.long	.L1341
	.long	.L1341
	.long	.L1341
	.long	.L1341
	.long	.L1341
	.long	.L1341
	.long	.L1380
	.text
	.p2align 4,,7
	.p2align 3
.L1315:
	movl	%edx, %esi
	movl	%edx, %ebx
	andl	$14, %esi
	andl	$15, %ebx
	movzbl	%dl, %eax
	cmpl	$14, %esi
	cmove	%eax, %ebx
	xorl	%eax, %eax
	cmpl	$4, %ebx
	jne	.L1362
.L1408:
	andl	$-16, %ecx
	andl	$-16, %edx
	xorl	%eax, %eax
	cmpl	%edx, %ecx
	sete	%al
	jmp	.L1362
	.p2align 4,,7
	.p2align 3
.L1316:
	movl	%edx, %esi
	movl	%edx, %ebx
	andl	$14, %esi
	andl	$15, %ebx
	movzbl	%dl, %eax
	cmpl	$14, %esi
	cmove	%eax, %ebx
	xorl	%eax, %eax
	cmpl	$6, %ebx
	jne	.L1362
	jmp	.L1408
	.p2align 4,,7
	.p2align 3
.L1317:
	movl	%edx, %esi
	movl	%edx, %ebx
	andl	$14, %esi
	andl	$15, %ebx
	movzbl	%dl, %eax
	cmpl	$14, %esi
	cmove	%eax, %ebx
	xorl	%eax, %eax
	cmpl	$8, %ebx
	jne	.L1362
	jmp	.L1408
	.p2align 4,,7
	.p2align 3
.L1318:
	movl	%edx, %ebp
	movl	%edx, %edi
	andl	$14, %ebp
	andl	$15, %edi
	movzbl	%dl, %eax
	cmpl	$14, %ebp
	cmove	%eax, %edi
	xorl	%eax, %eax
	cmpl	$10, %edi
	jne	.L1362
	andl	$2147483632, %ecx
	andl	$2147483632, %edx
	cmpl	%ecx, %edx
	jne	.L1362
	andl	$260046848, %ebx
	andl	$260046848, %esi
	xorl	%eax, %eax
	cmpl	%ebx, %esi
	sete	%al
	jmp	.L1362
	.p2align 4,,7
	.p2align 3
.L1319:
	movl	%edx, %esi
	movl	%edx, %ebx
	andl	$14, %esi
	andl	$15, %ebx
	movzbl	%dl, %eax
	cmpl	$14, %esi
	cmove	%eax, %ebx
	xorl	%eax, %eax
	cmpl	$12, %ebx
	jne	.L1362
	jmp	.L1408
	.p2align 4,,7
	.p2align 3
.L1320:
	movl	%edx, %ecx
	movl	%edx, %eax
	andl	$14, %ecx
	andl	$15, %eax
	movzbl	%dl, %edx
	cmpl	$14, %ecx
	cmove	%edx, %eax
	andl	$-17, %eax
	cmpl	$14, %eax
	sete	%al
	addl	$28, %esp
	.cfi_remember_state
	.cfi_def_cfa_offset 20
	popl	%ebx
	.cfi_restore 3
	.cfi_def_cfa_offset 16
	movzbl	%al, %eax
	popl	%esi
	.cfi_restore 6
	.cfi_def_cfa_offset 12
	popl	%edi
	.cfi_restore 7
	.cfi_def_cfa_offset 8
	popl	%ebp
	.cfi_restore 5
	.cfi_def_cfa_offset 4
	ret
	.p2align 4,,7
	.p2align 3
.L1321:
	.cfi_restore_state
	movl	%edx, %ecx
	xorl	%eax, %eax
	andl	$14, %ecx
	cmpl	$14, %ecx
	jne	.L1362
	cmpb	$30, %dl
	jne	.L1362
	movl	%esi, %eax
	cmpb	%bl, %al
	sete	%al
	movzbl	%al, %eax
	jmp	.L1362
	.p2align 4,,7
	.p2align 3
.L1312:
	xorl	%eax, %eax
	testb	$1, %cl
	je	.L1362
	testb	$1, %dl
	je	.L1362
	movl	%esi, 60(%esp)
	movl	%ebx, 52(%esp)
	movl	%edx, 56(%esp)
	movl	%ecx, 48(%esp)
	addl	$28, %esp
	.cfi_remember_state
	.cfi_def_cfa_offset 20
	popl	%ebx
	.cfi_restore 3
	.cfi_def_cfa_offset 16
	popl	%esi
	.cfi_restore 6
	.cfi_def_cfa_offset 12
	popl	%edi
	.cfi_restore 7
	.cfi_def_cfa_offset 8
	popl	%ebp
	.cfi_restore 5
	.cfi_def_cfa_offset 4
	jmp	Arch_sameRegionAs
	.p2align 4,,7
	.p2align 3
.L1334:
	.cfi_restore_state
	movl	%edx, %edi
	andl	$16777200, %edi
	sall	$8, %edi
.L1326:
	movl	%edx, %eax
	movzbl	%dl, %ecx
	andl	$15, %eax
	cmpl	$14, %ebp
	cmove	%ecx, %eax
	cmpl	$62, %eax
	ja	.L1341
	jmp	*.L1343(,%eax,4)
	.section	.rodata
	.align 4
	.align 4
.L1343:
	.long	.L1349
	.long	.L1344
	.long	.L1345
	.long	.L1351
	.long	.L1347
	.long	.L1351
	.long	.L1347
	.long	.L1349
	.long	.L1349
	.long	.L1351
	.long	.L1352
	.long	.L1349
	.long	.L1382
	.long	.L1341
	.long	.L1349
	.long	.L1341
	.long	.L1341
	.long	.L1341
	.long	.L1341
	.long	.L1341
	.long	.L1341
	.long	.L1341
	.long	.L1341
	.long	.L1341
	.long	.L1341
	.long	.L1341
	.long	.L1341
	.long	.L1341
	.long	.L1341
	.long	.L1341
	.long	.L1349
	.long	.L1341
	.long	.L1341
	.long	.L1341
	.long	.L1341
	.long	.L1341
	.long	.L1341
	.long	.L1341
	.long	.L1341
	.long	.L1341
	.long	.L1341
	.long	.L1341
	.long	.L1341
	.long	.L1341
	.long	.L1341
	.long	.L1341
	.long	.L1357
	.long	.L1341
	.long	.L1341
	.long	.L1341
	.long	.L1341
	.long	.L1341
	.long	.L1341
	.long	.L1341
	.long	.L1341
	.long	.L1341
	.long	.L1341
	.long	.L1341
	.long	.L1341
	.long	.L1341
	.long	.L1341
	.long	.L1341
	.long	.L1349
	.text
	.p2align 4,,7
	.p2align 3
.L1349:
	movl	$1, %eax
.L1354:
	cmpl	%edi, 12(%esp)
	ja	.L1385
	testl	%edi, %edi
	je	.L1385
	leal	-1(%edi,%eax), %edx
	movl	%ebx, %ecx
	cmpl	%edi, %edx
	movl	12(%esp), %edi
	setae	%al
	movl	%eax, %esi
	movl	$1, %eax
	sall	%cl, %eax
	leal	-1(%edi,%eax), %eax
	cmpl	%eax, %edx
	setbe	%al
	movzbl	%al, %eax
	andl	%esi, %eax
	jmp	.L1362
	.p2align 4,,7
	.p2align 3
.L1333:
	movl	%edx, %edi
	andl	$-16, %edi
	jmp	.L1326
	.p2align 4,,7
	.p2align 3
.L1351:
	movl	$4096, %eax
	jmp	.L1354
.L1380:
	xorl	%edi, %edi
	jmp	.L1326
.L1336:
	movl	%edx, %edi
	andl	$-1024, %edi
	jmp	.L1326
.L1337:
	movl	%edx, %eax
	andl	$16128, %eax
	shrl	$8, %eax
	cmpl	$32, %eax
	je	.L1381
	leal	1(%eax), %ecx
	movl	$-1, %edi
	sall	%cl, %edi
	andl	%esi, %edi
	jmp	.L1326
.L1335:
	movl	%edx, %edi
	andl	$2147483632, %edi
	addl	%edi, %edi
	jmp	.L1326
.L1382:
	movl	$1024, %eax
	jmp	.L1354
.L1345:
	movl	$1, %eax
	movl	%esi, %ecx
	sall	%cl, %eax
	jmp	.L1354
.L1352:
	andl	$260046848, %esi
	movl	$1, %eax
	shrl	$23, %esi
	leal	4(%esi), %ecx
	sall	%cl, %eax
	jmp	.L1354
.L1347:
	movl	$16, %eax
	jmp	.L1354
.L1344:
	shrl	$31, %esi
	testl	%esi, %esi
	je	.L1351
	cmpl	$1, %esi
	jne	.L1341
	movl	$4194304, %eax
	jmp	.L1354
.L1357:
	andl	$16128, %edx
	movl	$1024, %eax
	shrl	$8, %edx
	cmpl	$32, %edx
	je	.L1354
	andl	$31, %edx
	movw	$1, %ax
	leal	4(%edx), %ecx
	sall	%cl, %eax
	jmp	.L1354
	.p2align 4,,7
	.p2align 3
.L1341:
	call	halt
	.p2align 4,,7
	.p2align 3
.L1385:
	xorl	%eax, %eax
	jmp	.L1362
	.p2align 4,,7
	.p2align 3
.L1409:
	xorl	%eax, %eax
	cmpb	$62, %dl
	sete	%al
	jmp	.L1362
.L1381:
	movl	$-16, %edi
	andl	%esi, %edi
	jmp	.L1326
	.cfi_endproc
.LFE499:
	.size	sameRegionAs, .-sameRegionAs
	.p2align 4,,15
	.globl	isMDBParentOf
	.type	isMDBParentOf, @function
isMDBParentOf:
.LFB467:
	.cfi_startproc
	pushl	%edi
	.cfi_def_cfa_offset 8
	.cfi_offset 7, -8
	xorl	%edi, %edi
	pushl	%esi
	.cfi_def_cfa_offset 12
	.cfi_offset 6, -12
	pushl	%ebx
	.cfi_def_cfa_offset 16
	.cfi_offset 3, -16
	subl	$16, %esp
	.cfi_def_cfa_offset 32
	movl	32(%esp), %ebx
	movl	36(%esp), %esi
	testb	$2, 12(%ebx)
	je	.L1411
	movl	(%esi), %eax
	movl	4(%esi), %edx
	movl	%eax, 8(%esp)
	movl	%edx, 12(%esp)
	movl	(%ebx), %eax
	movl	4(%ebx), %edx
	movl	%eax, (%esp)
	movl	%edx, 4(%esp)
	call	sameRegionAs
	testl	%eax, %eax
	je	.L1411
	movl	(%ebx), %edx
	movl	%edx, %ecx
	movl	%edx, %eax
	andl	$14, %ecx
	andl	$15, %eax
	movzbl	%dl, %edx
	cmpl	$14, %ecx
	cmove	%edx, %eax
	cmpl	$4, %eax
	je	.L1416
	cmpl	$6, %eax
	jne	.L1435
.L1416:
	movl	4(%ebx), %eax
	movl	$1, %edi
	shrl	$3, %eax
	testl	%eax, %eax
	je	.L1411
	movl	4(%esi), %edx
	xorw	%di, %di
	shrl	$3, %edx
	cmpl	%edx, %eax
	je	.L1436
	.p2align 4,,7
	.p2align 3
.L1411:
	addl	$16, %esp
	.cfi_remember_state
	.cfi_def_cfa_offset 16
	movl	%edi, %eax
	popl	%ebx
	.cfi_restore 3
	.cfi_def_cfa_offset 12
	popl	%esi
	.cfi_restore 6
	.cfi_def_cfa_offset 8
	popl	%edi
	.cfi_restore 7
	.cfi_def_cfa_offset 4
	ret
	.p2align 4,,7
	.p2align 3
.L1435:
	.cfi_restore_state
	addl	$16, %esp
	.cfi_remember_state
	.cfi_def_cfa_offset 16
	movl	$1, %edi
	movl	%edi, %eax
	popl	%ebx
	.cfi_restore 3
	.cfi_def_cfa_offset 12
	popl	%esi
	.cfi_restore 6
	.cfi_def_cfa_offset 8
	popl	%edi
	.cfi_restore 7
	.cfi_def_cfa_offset 4
	ret
	.p2align 4,,7
	.p2align 3
.L1436:
	.cfi_restore_state
	movl	12(%esi), %edi
	xorl	$1, %edi
	andl	$1, %edi
	jmp	.L1411
	.cfi_endproc
.LFE467:
	.size	isMDBParentOf, .-isMDBParentOf
	.p2align 4,,15
	.globl	ensureNoChildren
	.type	ensureNoChildren, @function
ensureNoChildren:
.LFB468:
	.cfi_startproc
	pushl	%ebx
	.cfi_def_cfa_offset 8
	.cfi_offset 3, -8
	xorl	%ebx, %ebx
	subl	$24, %esp
	.cfi_def_cfa_offset 32
	movl	32(%esp), %edx
	movl	12(%edx), %eax
	andl	$-8, %eax
	je	.L1438
	movl	%eax, 4(%esp)
	movl	%edx, (%esp)
	call	isMDBParentOf
	testl	%eax, %eax
	je	.L1438
	movl	$9, current_syscall_error+24
	movb	$3, %bl
.L1438:
	addl	$24, %esp
	.cfi_def_cfa_offset 8
	movl	%ebx, %eax
	popl	%ebx
	.cfi_restore 3
	.cfi_def_cfa_offset 4
	ret
	.cfi_endproc
.LFE468:
	.size	ensureNoChildren, .-ensureNoChildren
	.p2align 4,,15
	.globl	deriveCap
	.type	deriveCap, @function
deriveCap:
.LFB495:
	.cfi_startproc
	pushl	%ebp
	.cfi_def_cfa_offset 8
	.cfi_offset 5, -8
	movl	%esp, %ebp
	.cfi_def_cfa_register 5
	pushl	%edi
	pushl	%esi
	pushl	%ebx
	subl	$28, %esp
	.cfi_offset 7, -12
	.cfi_offset 6, -16
	.cfi_offset 3, -20
	movl	16(%ebp), %esi
	movl	8(%ebp), %ebx
	movl	20(%ebp), %edi
	movl	%esi, %eax
	movl	%esi, %edx
	andl	$14, %eax
	cmpl	$14, %eax
	je	.L1445
	movl	%esi, %eax
	andl	$15, %eax
	testl	$1, %esi
	jne	.L1446
.L1450:
	cmpl	$8, %eax
	je	.L1452
	ja	.L1453
	cmpl	$2, %eax
	.p2align 4,,5
	jne	.L1455
	movl	12(%ebp), %eax
	movl	%eax, (%esp)
	call	ensureNoChildren
	xorl	%edx, %edx
	testl	%eax, %eax
	cmovne	%edx, %edi
	cmove	%esi, %edx
.L1451:
	movl	%eax, (%ebx)
	movl	%ebx, %eax
	movl	%edx, 4(%ebx)
	movl	%edi, 8(%ebx)
	leal	-12(%ebp), %esp
	popl	%ebx
	.cfi_remember_state
	.cfi_restore 3
	popl	%esi
	.cfi_restore 6
	popl	%edi
	.cfi_restore 7
	popl	%ebp
	.cfi_restore 5
	.cfi_def_cfa 4, 4
	ret	$4
	.p2align 4,,7
	.p2align 3
.L1453:
	.cfi_restore_state
	cmpl	$14, %eax
	je	.L1452
	cmpl	$46, %eax
	je	.L1452
.L1455:
	xorl	%eax, %eax
	.p2align 4,,3
	jmp	.L1451
	.p2align 4,,7
	.p2align 3
.L1452:
	xorl	%edi, %edi
	xorl	%edx, %edx
	xorl	%eax, %eax
	jmp	.L1451
	.p2align 4,,7
	.p2align 3
.L1445:
	testl	$1, %esi
	movzbl	%dl, %eax
	je	.L1450
.L1446:
	movl	12(%ebp), %eax
	movl	%esi, 8(%esp)
	movl	%edi, 12(%esp)
	movl	%ebx, (%esp)
	movl	%eax, 4(%esp)
	call	Arch_deriveCap
	movl	%ebx, %eax
	subl	$4, %esp
	leal	-12(%ebp), %esp
	popl	%ebx
	.cfi_restore 3
	popl	%esi
	.cfi_restore 6
	popl	%edi
	.cfi_restore 7
	popl	%ebp
	.cfi_restore 5
	.cfi_def_cfa 4, 4
	ret	$4
	.cfi_endproc
.LFE495:
	.size	deriveCap, .-deriveCap
	.p2align 4,,15
	.globl	sameObjectAs
	.type	sameObjectAs, @function
sameObjectAs:
.LFB500:
	.cfi_startproc
	pushl	%esi
	.cfi_def_cfa_offset 8
	.cfi_offset 6, -8
	pushl	%ebx
	.cfi_def_cfa_offset 12
	.cfi_offset 3, -12
	movl	12(%esp), %eax
	movl	16(%esp), %ebx
	movl	20(%esp), %ecx
	movl	24(%esp), %esi
	movl	%eax, %edx
	andl	$14, %edx
	cmpl	$14, %edx
	je	.L1470
	movl	%eax, %edx
	andl	$15, %edx
	cmpl	$2, %edx
	je	.L1471
.L1472:
	cmpl	$14, %edx
	je	.L1492
.L1473:
	testb	$1, %al
	movl	%ecx, 20(%esp)
	movl	%esi, 24(%esp)
	movl	%eax, 12(%esp)
	movl	%ebx, 16(%esp)
	je	.L1476
	andl	$1, %ecx
	jne	.L1493
.L1476:
	popl	%ebx
	.cfi_remember_state
	.cfi_restore 3
	.cfi_def_cfa_offset 8
	popl	%esi
	.cfi_restore 6
	.cfi_def_cfa_offset 4
	jmp	sameRegionAs
	.p2align 4,,7
	.p2align 3
.L1470:
	.cfi_restore_state
	movzbl	%al, %edx
	cmpl	$2, %edx
	jne	.L1472
.L1471:
	xorl	%eax, %eax
	popl	%ebx
	.cfi_remember_state
	.cfi_restore 3
	.cfi_def_cfa_offset 8
	popl	%esi
	.cfi_restore 6
	.cfi_def_cfa_offset 4
	ret
	.p2align 4,,7
	.p2align 3
.L1492:
	.cfi_restore_state
	movl	%ecx, %edx
	andl	$14, %edx
	cmpl	$14, %edx
	jne	.L1473
	cmpb	$30, %cl
	je	.L1471
	jmp	.L1473
	.p2align 4,,7
	.p2align 3
.L1493:
	popl	%ebx
	.cfi_restore 3
	.cfi_def_cfa_offset 8
	popl	%esi
	.cfi_restore 6
	.cfi_def_cfa_offset 4
	.p2align 4,,6
	jmp	Arch_sameObjectAs
	.cfi_endproc
.LFE500:
	.size	sameObjectAs, .-sameObjectAs
	.p2align 4,,15
	.globl	isFinalCapability
	.type	isFinalCapability, @function
isFinalCapability:
.LFB470:
	.cfi_startproc
	pushl	%esi
	.cfi_def_cfa_offset 8
	.cfi_offset 6, -8
	pushl	%ebx
	.cfi_def_cfa_offset 12
	.cfi_offset 3, -12
	subl	$20, %esp
	.cfi_def_cfa_offset 32
	movl	32(%esp), %ebx
	movl	8(%ebx), %ecx
	movl	12(%ebx), %esi
	andl	$-8, %ecx
	je	.L1495
	movl	(%ebx), %eax
	movl	4(%ebx), %edx
	movl	%eax, 8(%esp)
	movl	%edx, 12(%esp)
	movl	4(%ecx), %edx
	movl	(%ecx), %eax
	movl	%edx, 4(%esp)
	movl	%eax, (%esp)
	call	sameObjectAs
	movl	%eax, %edx
	xorl	%eax, %eax
	testl	%edx, %edx
	je	.L1495
.L1496:
	addl	$20, %esp
	.cfi_remember_state
	.cfi_def_cfa_offset 12
	popl	%ebx
	.cfi_restore 3
	.cfi_def_cfa_offset 8
	popl	%esi
	.cfi_restore 6
	.cfi_def_cfa_offset 4
	ret
	.p2align 4,,7
	.p2align 3
.L1495:
	.cfi_restore_state
	andl	$-8, %esi
	movl	$1, %eax
	je	.L1496
	movl	(%esi), %eax
	movl	4(%esi), %edx
	movl	%eax, 8(%esp)
	movl	%edx, 12(%esp)
	movl	(%ebx), %eax
	movl	4(%ebx), %edx
	movl	%eax, (%esp)
	movl	%edx, 4(%esp)
	call	sameObjectAs
	testl	%eax, %eax
	sete	%al
	addl	$20, %esp
	.cfi_def_cfa_offset 12
	movzbl	%al, %eax
	popl	%ebx
	.cfi_restore 3
	.cfi_def_cfa_offset 8
	popl	%esi
	.cfi_restore 6
	.cfi_def_cfa_offset 4
	ret
	.cfi_endproc
.LFE470:
	.size	isFinalCapability, .-isFinalCapability
	.p2align 4,,15
	.globl	slotCapLongRunningDelete
	.type	slotCapLongRunningDelete, @function
slotCapLongRunningDelete:
.LFB471:
	.cfi_startproc
	pushl	%ebp
	.cfi_def_cfa_offset 8
	.cfi_offset 5, -8
	pushl	%edi
	.cfi_def_cfa_offset 12
	.cfi_offset 7, -12
	pushl	%esi
	.cfi_def_cfa_offset 16
	.cfi_offset 6, -16
	pushl	%ebx
	.cfi_def_cfa_offset 20
	.cfi_offset 3, -20
	subl	$28, %esp
	.cfi_def_cfa_offset 48
	movl	48(%esp), %edx
	movl	(%edx), %eax
	movl	%eax, %edi
	movl	%eax, %ebx
	andl	$15, %ebx
	andl	$14, %edi
	cmpl	$14, %edi
	movzbl	%al, %esi
	movl	%ebx, %eax
	cmove	%esi, %eax
	xorl	%ebp, %ebp
	testl	%eax, %eax
	je	.L1507
	movl	%edx, (%esp)
	call	isFinalCapability
	testl	%eax, %eax
	je	.L1507
	cmpl	$14, %edi
	cmove	%esi, %ebx
	cmpl	$12, %ebx
	je	.L1510
	cmpl	$46, %ebx
	je	.L1510
	cmpl	$10, %ebx
	je	.L1510
.L1507:
	addl	$28, %esp
	.cfi_remember_state
	.cfi_def_cfa_offset 20
	movl	%ebp, %eax
	popl	%ebx
	.cfi_restore 3
	.cfi_def_cfa_offset 16
	popl	%esi
	.cfi_restore 6
	.cfi_def_cfa_offset 12
	popl	%edi
	.cfi_restore 7
	.cfi_def_cfa_offset 8
	popl	%ebp
	.cfi_restore 5
	.cfi_def_cfa_offset 4
	ret
	.p2align 4,,7
	.p2align 3
.L1510:
	.cfi_restore_state
	addl	$28, %esp
	.cfi_def_cfa_offset 20
	movl	$1, %ebp
	popl	%ebx
	.cfi_restore 3
	.cfi_def_cfa_offset 16
	movl	%ebp, %eax
	popl	%esi
	.cfi_restore 6
	.cfi_def_cfa_offset 12
	popl	%edi
	.cfi_restore 7
	.cfi_def_cfa_offset 8
	popl	%ebp
	.cfi_restore 5
	.cfi_def_cfa_offset 4
	ret
	.cfi_endproc
.LFE471:
	.size	slotCapLongRunningDelete, .-slotCapLongRunningDelete
	.p2align 4,,15
	.globl	updateCapData
	.type	updateCapData, @function
updateCapData:
.LFB501:
	.cfi_startproc
	pushl	%ebp
	.cfi_def_cfa_offset 8
	.cfi_offset 5, -8
	movl	%esp, %ebp
	.cfi_def_cfa_register 5
	pushl	%esi
	pushl	%ebx
	subl	$24, %esp
	.cfi_offset 6, -12
	.cfi_offset 3, -16
	movl	20(%ebp), %edx
	movl	8(%ebp), %eax
	movl	24(%ebp), %ebx
	movl	%edx, %ecx
	andl	$14, %ecx
	cmpl	$14, %ecx
	je	.L1527
	movl	%edx, %ecx
	andl	$15, %ecx
	testb	$1, %dl
	jne	.L1528
.L1532:
	cmpl	$6, %ecx
	je	.L1534
	cmpl	$10, %ecx
	je	.L1535
	cmpl	$4, %ecx
	.p2align 4,,2
	je	.L1534
	movl	%edx, (%eax)
	movl	%ebx, 4(%eax)
	leal	-8(%ebp), %esp
	popl	%ebx
	.cfi_remember_state
	.cfi_restore 3
	popl	%esi
	.cfi_restore 6
	popl	%ebp
	.cfi_restore 5
	.cfi_def_cfa 4, 4
	ret	$4
	.p2align 4,,7
	.p2align 3
.L1527:
	.cfi_restore_state
	testb	$1, %dl
	movzbl	%dl, %ecx
	je	.L1532
.L1528:
	movl	16(%ebp), %esi
	movl	%eax, (%esp)
	movl	%edx, 12(%esp)
	movl	%ebx, 16(%esp)
	movl	%esi, 8(%esp)
	movl	12(%ebp), %esi
	movl	%eax, -12(%ebp)
	movl	%esi, 4(%esp)
	call	Arch_updateCapData
	movl	-12(%ebp), %eax
	subl	$4, %esp
.L1526:
	leal	-8(%ebp), %esp
	popl	%ebx
	.cfi_remember_state
	.cfi_restore 3
	popl	%esi
	.cfi_restore 6
	popl	%ebp
	.cfi_restore 5
	.cfi_def_cfa 4, 4
	ret	$4
	.p2align 4,,7
	.p2align 3
.L1534:
	.cfi_restore_state
	movl	12(%ebp), %ecx
	testl	%ecx, %ecx
	jne	.L1537
	movl	%ebx, %ecx
	shrl	$3, %ecx
	testl	%ecx, %ecx
	jne	.L1537
	movl	16(%ebp), %esi
	movl	%edx, (%eax)
	leal	0(,%esi,8), %edx
	orl	%ebx, %edx
	movl	%edx, 4(%eax)
	jmp	.L1526
	.p2align 4,,7
	.p2align 3
.L1537:
	movl	$0, (%eax)
	movl	$0, 4(%eax)
	leal	-8(%ebp), %esp
	popl	%ebx
	.cfi_remember_state
	.cfi_restore 3
	popl	%esi
	.cfi_restore 6
	popl	%ebp
	.cfi_restore 5
	.cfi_def_cfa 4, 4
	ret	$4
	.p2align 4,,7
	.p2align 3
.L1535:
	.cfi_restore_state
	movl	16(%ebp), %ecx
	movl	%ebx, %esi
	andl	$260046848, %esi
	shrl	$23, %esi
	andl	$248, %ecx
	shrl	$3, %ecx
	addl	%ecx, %esi
	cmpl	$32, %esi
	ja	.L1537
	movl	16(%ebp), %esi
	andl	$-8388608, %ebx
	movl	%edx, (%eax)
	movl	$1, %edx
	sall	%cl, %edx
	subl	$1, %edx
	andl	$67108608, %esi
	shrl	$8, %esi
	andl	%esi, %edx
	orl	%edx, %ebx
	sall	$18, %ecx
	orl	%ecx, %ebx
	movl	%ebx, 4(%eax)
	jmp	.L1526
	.cfi_endproc
.LFE501:
	.size	updateCapData, .-updateCapData
	.p2align 4,,15
	.globl	maskCapRights
	.type	maskCapRights, @function
maskCapRights:
.LFB502:
	.cfi_startproc
	pushl	%ebp
	.cfi_def_cfa_offset 8
	.cfi_offset 5, -8
	movl	%esp, %ebp
	.cfi_def_cfa_register 5
	pushl	%ebx
	subl	$36, %esp
	.cfi_offset 3, -12
	movl	16(%ebp), %edx
	movl	8(%ebp), %eax
	movl	20(%ebp), %ecx
	movl	%edx, %ebx
	andl	$14, %ebx
	cmpl	$14, %ebx
	je	.L1547
	movl	%edx, %ebx
	andl	$15, %ebx
	testb	$1, %dl
	jne	.L1548
.L1552:
	cmpl	$62, %ebx
	ja	.L1553
	jmp	*.L1555(,%ebx,4)
	.section	.rodata
	.align 4
	.align 4
.L1555:
	.long	.L1554
	.long	.L1553
	.long	.L1554
	.long	.L1553
	.long	.L1556
	.long	.L1553
	.long	.L1557
	.long	.L1553
	.long	.L1554
	.long	.L1553
	.long	.L1554
	.long	.L1553
	.long	.L1554
	.long	.L1553
	.long	.L1554
	.long	.L1553
	.long	.L1553
	.long	.L1553
	.long	.L1553
	.long	.L1553
	.long	.L1553
	.long	.L1553
	.long	.L1553
	.long	.L1553
	.long	.L1553
	.long	.L1553
	.long	.L1553
	.long	.L1553
	.long	.L1553
	.long	.L1553
	.long	.L1554
	.long	.L1553
	.long	.L1553
	.long	.L1553
	.long	.L1553
	.long	.L1553
	.long	.L1553
	.long	.L1553
	.long	.L1553
	.long	.L1553
	.long	.L1553
	.long	.L1553
	.long	.L1553
	.long	.L1553
	.long	.L1553
	.long	.L1553
	.long	.L1554
	.long	.L1553
	.long	.L1553
	.long	.L1553
	.long	.L1553
	.long	.L1553
	.long	.L1553
	.long	.L1553
	.long	.L1553
	.long	.L1553
	.long	.L1553
	.long	.L1553
	.long	.L1553
	.long	.L1553
	.long	.L1553
	.long	.L1553
	.long	.L1554
	.text
	.p2align 4,,7
	.p2align 3
.L1547:
	testb	$1, %dl
	movzbl	%dl, %ebx
	.p2align 4,,2
	je	.L1552
.L1548:
	movl	%ecx, 12(%esp)
	movl	12(%ebp), %ecx
	movl	%eax, (%esp)
	movl	%edx, 8(%esp)
	movl	%eax, -12(%ebp)
	movl	%ecx, 4(%esp)
	call	Arch_maskCapRights
	movl	-12(%ebp), %eax
	movl	-4(%ebp), %ebx
	subl	$4, %esp
	leave
	.cfi_remember_state
	.cfi_restore 5
	.cfi_restore 3
	.cfi_def_cfa 4, 4
	ret	$4
	.p2align 4,,7
	.p2align 3
.L1557:
	.cfi_restore_state
	movl	%edx, (%eax)
	movl	%ecx, %edx
	andl	$2, %edx
	shrl	%edx
	andl	12(%ebp), %edx
	leal	(%edx,%edx), %ebx
	movl	%ecx, %edx
	andl	$-4, %edx
	orl	%ebx, %edx
	movl	12(%ebp), %ebx
	andl	$2, %ebx
	shrl	%ebx
	andl	%ecx, %ebx
	orl	%ebx, %edx
	movl	-4(%ebp), %ebx
	movl	%edx, 4(%eax)
	leave
	.cfi_remember_state
	.cfi_restore 3
	.cfi_restore 5
	.cfi_def_cfa 4, 4
	ret	$4
	.p2align 4,,7
	.p2align 3
.L1554:
	.cfi_restore_state
	movl	%edx, (%eax)
	movl	-4(%ebp), %ebx
	movl	%ecx, 4(%eax)
	leave
	.cfi_remember_state
	.cfi_restore 3
	.cfi_restore 5
	.cfi_def_cfa 4, 4
	ret	$4
	.p2align 4,,7
	.p2align 3
.L1556:
	.cfi_restore_state
	movl	%edx, (%eax)
	movl	%ecx, %edx
	andl	$2, %edx
	shrl	%edx
	andl	12(%ebp), %edx
	leal	(%edx,%edx), %ebx
	movl	%ecx, %edx
	andl	$-4, %edx
	orl	%ebx, %edx
	movl	12(%ebp), %ebx
	andl	$2, %ebx
	shrl	%ebx
	andl	%ecx, %ebx
	andl	$4, %ecx
	andl	12(%ebp), %ecx
	orl	%ebx, %edx
	andl	$-5, %edx
	movl	-4(%ebp), %ebx
	orl	%ecx, %edx
	movl	%edx, 4(%eax)
	leave
	.cfi_remember_state
	.cfi_restore 3
	.cfi_restore 5
	.cfi_def_cfa 4, 4
	ret	$4
	.p2align 4,,7
	.p2align 3
.L1553:
	.cfi_restore_state
	call	halt
	.cfi_endproc
.LFE502:
	.size	maskCapRights, .-maskCapRights
	.p2align 4,,15
	.globl	createObject
	.type	createObject, @function
createObject:
.LFB503:
	.cfi_startproc
	pushl	%ebp
	.cfi_def_cfa_offset 8
	.cfi_offset 5, -8
	movl	%esp, %ebp
	.cfi_def_cfa_register 5
	pushl	%esi
	pushl	%ebx
	subl	$32, %esp
	.cfi_offset 6, -12
	.cfi_offset 3, -16
	movl	12(%ebp), %esi
	movl	8(%ebp), %eax
	movl	16(%ebp), %ebx
	cmpl	$4, %esi
	ja	.L1582
	cmpl	$2, %esi
	je	.L1565
	jbe	.L1583
	cmpl	$3, %esi
	.p2align 4,,5
	je	.L1568
	cmpl	$4, %esi
	.p2align 4,,5
	jne	.L1564
	movl	20(%ebp), %esi
	movl	$1, %edx
	leal	4(%esi), %ecx
	sall	%cl, %edx
	movl	%ebx, %ecx
	testl	%edx, %edx
	je	.L1573
	.p2align 4,,7
	.p2align 3
.L1578:
	movl	$0, (%ecx)
	addl	$4, %ecx
	subl	$4, %edx
	jne	.L1578
.L1573:
	movl	20(%ebp), %edx
	andl	$-32, %ebx
	shrl	%ebx
	orl	$10, %ebx
	movl	%ebx, (%eax)
	andl	$31, %edx
	sall	$23, %edx
	movl	%edx, 4(%eax)
	leal	-8(%ebp), %esp
	popl	%ebx
	.cfi_remember_state
	.cfi_restore 3
	popl	%esi
	.cfi_restore 6
	popl	%ebp
	.cfi_restore 5
	.cfi_def_cfa 4, 4
	ret	$4
	.p2align 4,,7
	.p2align 3
.L1583:
	.cfi_restore_state
	cmpl	$1, %esi
	movl	%ebx, %edx
	leal	1024(%ebx), %ecx
	jne	.L1564
	.p2align 4,,7
	.p2align 3
.L1577:
	movl	$0, (%edx)
	addl	$4, %edx
	cmpl	%ecx, %edx
	jne	.L1577
	addl	$256, %ebx
	movl	%ebx, (%esp)
	movl	%eax, -12(%ebp)
	call	Arch_initContext
	movl	ksCurDomain, %edx
	movl	-12(%ebp), %eax
	movl	$5, 628(%ebx)
	movl	%edx, 620(%ebx)
	andl	$-16, %ebx
	orl	$12, %ebx
	movl	%ebx, (%eax)
	movl	$0, 4(%eax)
	leal	-8(%ebp), %esp
	popl	%ebx
	.cfi_remember_state
	.cfi_restore 3
	popl	%esi
	.cfi_restore 6
	popl	%ebp
	.cfi_restore 5
	.cfi_def_cfa 4, 4
	ret	$4
	.p2align 4,,7
	.p2align 3
.L1582:
	.cfi_restore_state
	movl	20(%ebp), %ecx
	movl	%ebx, 8(%esp)
	movl	%esi, 4(%esp)
	movl	%eax, (%esp)
	movl	%ecx, 12(%esp)
	movl	%eax, -12(%ebp)
	call	Arch_createObject
	movl	-12(%ebp), %eax
	subl	$4, %esp
	leal	-8(%ebp), %esp
	popl	%ebx
	.cfi_remember_state
	.cfi_restore 3
	popl	%esi
	.cfi_restore 6
	popl	%ebp
	.cfi_restore 5
	.cfi_def_cfa 4, 4
	ret	$4
	.p2align 4,,7
	.p2align 3
.L1564:
	.cfi_restore_state
	movl	20(%ebp), %edx
	andl	$-16, %ebx
	orl	$2, %ebx
	movl	%ebx, (%eax)
	andl	$31, %edx
	movl	%edx, 4(%eax)
	leal	-8(%ebp), %esp
	popl	%ebx
	.cfi_remember_state
	.cfi_restore 3
	popl	%esi
	.cfi_restore 6
	popl	%ebp
	.cfi_restore 5
	.cfi_def_cfa 4, 4
	ret	$4
	.p2align 4,,7
	.p2align 3
.L1568:
	.cfi_restore_state
	movl	$0, (%ebx)
	movl	$0, 4(%ebx)
	movl	$0, 8(%ebx)
	movl	$0, 12(%ebx)
	andl	$-16, %ebx
	orl	$6, %ebx
	movl	%ebx, (%eax)
	movl	$3, 4(%eax)
	leal	-8(%ebp), %esp
	popl	%ebx
	.cfi_remember_state
	.cfi_restore 3
	popl	%esi
	.cfi_restore 6
	popl	%ebp
	.cfi_restore 5
	.cfi_def_cfa 4, 4
	ret	$4
	.p2align 4,,7
	.p2align 3
.L1565:
	.cfi_restore_state
	movl	$0, (%ebx)
	movl	$0, 4(%ebx)
	movl	$0, 8(%ebx)
	movl	$0, 12(%ebx)
	andl	$-16, %ebx
	orl	$4, %ebx
	movl	%ebx, (%eax)
	movl	$7, 4(%eax)
	leal	-8(%ebp), %esp
	popl	%ebx
	.cfi_restore 3
	popl	%esi
	.cfi_restore 6
	popl	%ebp
	.cfi_restore 5
	.cfi_def_cfa 4, 4
	ret	$4
	.cfi_endproc
.LFE503:
	.size	createObject, .-createObject
	.p2align 4,,15
	.globl	createNewObjects
	.type	createNewObjects, @function
createNewObjects:
.LFB504:
	.cfi_startproc
	pushl	%ebp
	.cfi_def_cfa_offset 8
	.cfi_offset 5, -8
	movl	%esp, %ebp
	.cfi_def_cfa_register 5
	pushl	%edi
	pushl	%esi
	pushl	%ebx
	subl	$44, %esp
	.cfi_offset 7, -12
	.cfi_offset 6, -16
	.cfi_offset 3, -20
	movl	24(%ebp), %eax
	movl	%eax, %edi
	movl	%eax, -36(%ebp)
	movl	32(%ebp), %eax
	movl	%eax, 4(%esp)
	movl	8(%ebp), %eax
	movl	%eax, (%esp)
	call	getObjectSize
	testl	%edi, %edi
	movl	%eax, -40(%ebp)
	je	.L1584
	movl	20(%ebp), %ebx
	xorl	%esi, %esi
	leal	-32(%ebp), %edi
	sall	$4, %ebx
	addl	16(%ebp), %ebx
	.p2align 4,,7
	.p2align 3
.L1587:
	movl	32(%ebp), %eax
	movl	%esi, %edx
	addl	$1, %esi
	movzbl	-40(%ebp), %ecx
	movl	%edi, (%esp)
	movl	%eax, 12(%esp)
	movl	8(%ebp), %eax
	sall	%cl, %edx
	addl	28(%ebp), %edx
	movl	%eax, 4(%esp)
	movl	%edx, 8(%esp)
	call	createObject
	movl	-32(%ebp), %eax
	movl	-28(%ebp), %edx
	subl	$4, %esp
	movl	%eax, 8(%esp)
	movl	12(%ebp), %eax
	movl	%ebx, 4(%esp)
	addl	$16, %ebx
	movl	%edx, 12(%esp)
	movl	%eax, (%esp)
	call	insertNewCap
	cmpl	-36(%ebp), %esi
	jne	.L1587
.L1584:
	leal	-12(%ebp), %esp
	popl	%ebx
	.cfi_restore 3
	popl	%esi
	.cfi_restore 6
	popl	%edi
	.cfi_restore 7
	popl	%ebp
	.cfi_restore 5
	.cfi_def_cfa 4, 4
	ret
	.cfi_endproc
.LFE504:
	.size	createNewObjects, .-createNewObjects
	.p2align 4,,15
	.globl	tcbSchedEnqueue
	.type	tcbSchedEnqueue, @function
tcbSchedEnqueue:
.LFB510:
	.cfi_startproc
	pushl	%edi
	.cfi_def_cfa_offset 8
	.cfi_offset 7, -8
	pushl	%esi
	.cfi_def_cfa_offset 12
	.cfi_offset 6, -12
	pushl	%ebx
	.cfi_def_cfa_offset 16
	.cfi_offset 3, -16
	movl	16(%esp), %eax
	movl	600(%eax), %ecx
	testb	$1, %cl
	jne	.L1589
	movl	620(%eax), %edx
	sall	$8, %edx
	addl	624(%eax), %edx
	leal	ksReadyQueues(,%edx,8), %esi
	movl	ksReadyQueues(,%edx,8), %edi
	movl	4(%esi), %ebx
	testl	%ebx, %ebx
	je	.L1592
	movl	%eax, 644(%edi)
.L1591:
	orl	$1, %ecx
	movl	$0, 644(%eax)
	movl	%edi, 640(%eax)
	movl	%eax, ksReadyQueues(,%edx,8)
	movl	%ebx, 4(%esi)
	movl	%ecx, 600(%eax)
.L1589:
	popl	%ebx
	.cfi_remember_state
	.cfi_restore 3
	.cfi_def_cfa_offset 12
	popl	%esi
	.cfi_restore 6
	.cfi_def_cfa_offset 8
	popl	%edi
	.cfi_restore 7
	.cfi_def_cfa_offset 4
	ret
	.p2align 4,,7
	.p2align 3
.L1592:
	.cfi_restore_state
	movl	%eax, %ebx
	jmp	.L1591
	.cfi_endproc
.LFE510:
	.size	tcbSchedEnqueue, .-tcbSchedEnqueue
	.p2align 4,,15
	.globl	rescheduleRequired
	.type	rescheduleRequired, @function
rescheduleRequired:
.LFB435:
	.cfi_startproc
	movl	ksSchedulerAction, %eax
	leal	-1(%eax), %edx
	cmpl	$-3, %edx
	jbe	.L1598
	movl	$-1, ksSchedulerAction
	ret
	.p2align 4,,7
	.p2align 3
.L1598:
	subl	$4, %esp
	.cfi_def_cfa_offset 8
	movl	%eax, (%esp)
	call	tcbSchedEnqueue
	movl	$-1, ksSchedulerAction
	addl	$4, %esp
	.cfi_def_cfa_offset 4
	ret
	.cfi_endproc
.LFE435:
	.size	rescheduleRequired, .-rescheduleRequired
	.p2align 4,,15
	.globl	scheduleTCB
	.type	scheduleTCB, @function
scheduleTCB:
.LFB433:
	.cfi_startproc
	movl	4(%esp), %eax
	cmpl	ksCurThread, %eax
	je	.L1602
.L1599:
	rep ret
	.p2align 4,,7
	.p2align 3
.L1602:
	movl	ksSchedulerAction, %edx
	testl	%edx, %edx
	jne	.L1599
	movl	592(%eax), %eax
	andl	$15, %eax
	subl	$1, %eax
	cmpl	$1, %eax
	jbe	.L1599
	jmp	rescheduleRequired
	.cfi_endproc
.LFE433:
	.size	scheduleTCB, .-scheduleTCB
	.p2align 4,,15
	.globl	setThreadState
	.type	setThreadState, @function
setThreadState:
.LFB432:
	.cfi_startproc
	movl	4(%esp), %edx
	movl	8(%esp), %ecx
	movl	592(%edx), %eax
	andl	$15, %ecx
	andl	$-16, %eax
	orl	%ecx, %eax
	movl	%eax, 592(%edx)
	jmp	scheduleTCB
	.cfi_endproc
.LFE432:
	.size	setThreadState, .-setThreadState
	.p2align 4,,15
	.globl	decodeIA32PortInvocation
	.type	decodeIA32PortInvocation, @function
decodeIA32PortInvocation:
.LFB359:
	.cfi_startproc
	pushl	%esi
	.cfi_def_cfa_offset 8
	.cfi_offset 6, -8
	pushl	%ebx
	.cfi_def_cfa_offset 12
	.cfi_offset 3, -12
	subl	$20, %esp
	.cfi_def_cfa_offset 32
	movl	36(%esp), %eax
	movl	52(%esp), %edx
	testl	%eax, %eax
	jne	.L1605
.L1622:
	movl	$7, current_syscall_error+24
	addl	$20, %esp
	.cfi_remember_state
	.cfi_def_cfa_offset 12
	movl	$3, %eax
	popl	%ebx
	.cfi_restore 3
	.cfi_def_cfa_offset 8
	popl	%esi
	.cfi_restore 6
	.cfi_def_cfa_offset 4
	ret
	.p2align 4,,7
	.p2align 3
.L1605:
	.cfi_restore_state
	movl	32(%esp), %ecx
	movl	ksCurThread, %esi
	subl	$36, %ecx
	cmpl	$5, %ecx
	movl	20(%esi), %ebx
	ja	.L1607
	jmp	*.L1609(,%ecx,4)
	.section	.rodata
	.align 4
	.align 4
.L1609:
	.long	.L1608
	.long	.L1610
	.long	.L1611
	.long	.L1612
	.long	.L1613
	.long	.L1614
	.text
	.p2align 4,,7
	.p2align 3
.L1607:
	movl	$3, current_syscall_error+24
	addl	$20, %esp
	.cfi_remember_state
	.cfi_def_cfa_offset 12
	movl	$3, %eax
	popl	%ebx
	.cfi_restore 3
	.cfi_def_cfa_offset 8
	popl	%esi
	.cfi_restore 6
	.cfi_def_cfa_offset 4
	ret
	.p2align 4,,7
	.p2align 3
.L1613:
	.cfi_restore_state
	movzwl	%bx, %eax
	movzwl	%dx, %esi
	leal	1(%eax), %ecx
	cmpl	%ecx, %esi
	jb	.L1607
	shrl	$16, %edx
	cmpl	%edx, %eax
	jb	.L1607
	shrl	$16, %ebx
	movl	%ebx, 4(%esp)
	movl	%eax, (%esp)
	call	out16
.L1625:
	movl	ksCurThread, %edx
	xorl	%eax, %eax
.L1626:
	movl	%eax, 16(%edx)
	movl	592(%edx), %eax
	andl	$-16, %eax
	orl	$2, %eax
	movl	%eax, 592(%edx)
	movl	%edx, (%esp)
	call	scheduleTCB
	addl	$20, %esp
	.cfi_remember_state
	.cfi_def_cfa_offset 12
	xorl	%eax, %eax
	popl	%ebx
	.cfi_restore 3
	.cfi_def_cfa_offset 8
	popl	%esi
	.cfi_restore 6
	.cfi_def_cfa_offset 4
	ret
	.p2align 4,,7
	.p2align 3
.L1614:
	.cfi_restore_state
	cmpl	$1, %eax
	jbe	.L1622
	movzwl	%bx, %ebx
	movzwl	%dx, %ecx
	leal	3(%ebx), %eax
	cmpl	%eax, %ecx
	jb	.L1607
	shrl	$16, %edx
	cmpl	%edx, %ebx
	jb	.L1607
	movl	24(%esi), %eax
	movl	%ebx, (%esp)
	movl	%eax, 4(%esp)
	call	out32
	jmp	.L1625
	.p2align 4,,7
	.p2align 3
.L1608:
	cmpw	%bx, %dx
	movzwl	%bx, %eax
	jb	.L1607
	shrl	$16, %edx
	cmpl	%edx, %eax
	jb	.L1607
	movl	%eax, (%esp)
	call	in8
	movzbl	%al, %eax
.L1624:
	movl	ksCurThread, %edx
	movl	%eax, 20(%edx)
	movl	$1, %eax
	movl	$0, 4(%edx)
	jmp	.L1626
	.p2align 4,,7
	.p2align 3
.L1610:
	movzwl	%bx, %ebx
	movzwl	%dx, %ecx
	leal	1(%ebx), %eax
	cmpl	%eax, %ecx
	jb	.L1607
	shrl	$16, %edx
	cmpl	%edx, %ebx
	jb	.L1607
	movl	%ebx, (%esp)
	call	in16
	movzwl	%ax, %eax
	jmp	.L1624
	.p2align 4,,7
	.p2align 3
.L1611:
	movzwl	%bx, %ebx
	movzwl	%dx, %ecx
	leal	3(%ebx), %eax
	cmpl	%eax, %ecx
	jb	.L1607
	shrl	$16, %edx
	cmpl	%edx, %ebx
	jb	.L1607
	movl	%ebx, (%esp)
	call	in32
	jmp	.L1624
	.p2align 4,,7
	.p2align 3
.L1612:
	cmpw	%bx, %dx
	movzwl	%bx, %eax
	jb	.L1607
	shrl	$16, %edx
	cmpl	%edx, %eax
	jb	.L1607
	shrl	$16, %ebx
	movzbl	%bl, %ebx
	movl	%ebx, 4(%esp)
	movl	%eax, (%esp)
	call	out8
	jmp	.L1625
	.cfi_endproc
.LFE359:
	.size	decodeIA32PortInvocation, .-decodeIA32PortInvocation
	.p2align 4,,15
	.globl	handleDoubleFault
	.type	handleDoubleFault, @function
handleDoubleFault:
.LFB409:
	.cfi_startproc
	movl	4(%esp), %eax
	andl	$-16, 592(%eax)
	jmp	scheduleTCB
	.cfi_endproc
.LFE409:
	.size	handleDoubleFault, .-handleDoubleFault
	.section	.boot.text
	.p2align 4,,15
	.globl	configureIdleThread
	.type	configureIdleThread, @function
configureIdleThread:
.LFB412:
	.cfi_startproc
	movl	4(%esp), %eax
	movl	592(%eax), %edx
	movl	$514, 64(%eax)
	movl	$idle_thread, 56(%eax)
	movl	$8, 60(%eax)
	andl	$-16, %edx
	orl	$7, %edx
	movl	$16, 28(%eax)
	movl	$16, 32(%eax)
	movl	$16, 36(%eax)
	movl	$16, 40(%eax)
	movl	$16, 72(%eax)
	movl	%edx, 592(%eax)
	jmp	scheduleTCB
	.cfi_endproc
.LFE412:
	.size	configureIdleThread, .-configureIdleThread
	.p2align 4,,15
	.globl	create_idle_thread
	.type	create_idle_thread, @function
create_idle_thread:
.LFB391:
	.cfi_startproc
	pushl	%ebx
	.cfi_def_cfa_offset 8
	.cfi_offset 3, -8
	subl	$4, %esp
	.cfi_def_cfa_offset 12
	movl	$10, (%esp)
	call	alloc_region
	movl	%eax, %ebx
	xorl	%eax, %eax
	testl	%ebx, %ebx
	je	.L1637
	movl	%ebx, %edx
	leal	1024(%ebx), %ecx
	.p2align 4,,7
	.p2align 3
.L1639:
	movl	$0, (%edx)
	addl	$4, %edx
	cmpl	%ecx, %edx
	jne	.L1639
	addl	$256, %ebx
	movl	%ebx, (%esp)
	movl	%ebx, ksIdleThread
	call	configureIdleThread
	movl	$1, %eax
.L1637:
	addl	$4, %esp
	.cfi_def_cfa_offset 8
	popl	%ebx
	.cfi_restore 3
	.cfi_def_cfa_offset 4
	ret
	.cfi_endproc
.LFE391:
	.size	create_idle_thread, .-create_idle_thread
	.text
	.p2align 4,,15
	.globl	activateThread
	.type	activateThread, @function
activateThread:
.LFB413:
	.cfi_startproc
	subl	$28, %esp
	.cfi_def_cfa_offset 32
	movl	ksCurThread, %eax
	movl	592(%eax), %ecx
	movl	%ecx, %edx
	andl	$15, %edx
	cmpl	$2, %edx
	je	.L1645
	cmpl	$7, %edx
	je	.L1643
	cmpl	$1, %edx
	je	.L1643
	.p2align 4,,5
	call	halt
	.p2align 4,,7
	.p2align 3
.L1645:
	movl	44(%eax), %edx
	andl	$-16, %ecx
	orl	$1, %ecx
	movl	%ecx, 592(%eax)
	movl	%edx, 56(%eax)
	movl	%eax, (%esp)
	call	scheduleTCB
.L1643:
	addl	$28, %esp
	.cfi_def_cfa_offset 4
	ret
	.cfi_endproc
.LFE413:
	.size	activateThread, .-activateThread
	.p2align 4,,15
	.globl	receiveAsyncIPC
	.type	receiveAsyncIPC, @function
receiveAsyncIPC:
.LFB440:
	.cfi_startproc
	pushl	%edi
	.cfi_def_cfa_offset 8
	.cfi_offset 7, -8
	pushl	%esi
	.cfi_def_cfa_offset 12
	.cfi_offset 6, -12
	pushl	%ebx
	.cfi_def_cfa_offset 16
	.cfi_offset 3, -16
	subl	$4, %esp
	.cfi_def_cfa_offset 20
	movl	24(%esp), %ebx
	movl	20(%esp), %esi
	andl	$-16, %ebx
	movl	(%ebx), %eax
	andl	$3, %eax
	cmpl	$1, %eax
	jbe	.L1657
	cmpl	$2, %eax
	jne	.L1655
	movl	12(%ebx), %edx
	movl	8(%ebx), %eax
	movl	$1, 16(%esi)
	movl	%edx, 20(%esi)
	movl	%eax, 4(%esi)
	andl	$-4, (%ebx)
.L1655:
	addl	$4, %esp
	.cfi_remember_state
	.cfi_def_cfa_offset 16
	popl	%ebx
	.cfi_restore 3
	.cfi_def_cfa_offset 12
	popl	%esi
	.cfi_restore 6
	.cfi_def_cfa_offset 8
	popl	%edi
	.cfi_restore 7
	.cfi_def_cfa_offset 4
	ret
	.p2align 4,,7
	.p2align 3
.L1657:
	.cfi_restore_state
	movl	%ebx, %eax
	orl	$6, %eax
	movl	%eax, 592(%esi)
	movl	%esi, (%esp)
	call	scheduleTCB
	movl	4(%ebx), %ecx
	movl	(%ebx), %eax
	movl	%ecx, %edx
	movl	%eax, %edi
	andl	$-16, %edi
	andl	$-16, %edx
	je	.L1660
	movl	%esi, 648(%edi)
.L1659:
	movl	%edi, 652(%esi)
	andl	$12, %eax
	andl	$-16, %edx
	movl	$0, 648(%esi)
	andl	$-16, %esi
	andl	$15, %ecx
	orl	%esi, %eax
	orl	%ecx, %edx
	orl	$1, %eax
	movl	%edx, 4(%ebx)
	movl	%eax, (%ebx)
	addl	$4, %esp
	.cfi_remember_state
	.cfi_def_cfa_offset 16
	popl	%ebx
	.cfi_restore 3
	.cfi_def_cfa_offset 12
	popl	%esi
	.cfi_restore 6
	.cfi_def_cfa_offset 8
	popl	%edi
	.cfi_restore 7
	.cfi_def_cfa_offset 4
	ret
	.p2align 4,,7
	.p2align 3
.L1660:
	.cfi_restore_state
	movl	%esi, %edx
	jmp	.L1659
	.cfi_endproc
.LFE440:
	.size	receiveAsyncIPC, .-receiveAsyncIPC
	.p2align 4,,15
	.globl	asyncIPCCancel
	.type	asyncIPCCancel, @function
asyncIPCCancel:
.LFB442:
	.cfi_startproc
	pushl	%ebp
	.cfi_def_cfa_offset 8
	.cfi_offset 5, -8
	pushl	%edi
	.cfi_def_cfa_offset 12
	.cfi_offset 7, -12
	pushl	%esi
	.cfi_def_cfa_offset 16
	.cfi_offset 6, -16
	pushl	%ebx
	.cfi_def_cfa_offset 20
	.cfi_offset 3, -20
	subl	$4, %esp
	.cfi_def_cfa_offset 24
	movl	28(%esp), %edx
	movl	24(%esp), %eax
	movl	(%edx), %esi
	movl	4(%edx), %edi
	movl	%esi, %ecx
	andl	$-16, %ecx
	movl	%edi, %ebx
	movl	%ecx, (%esp)
	movl	652(%eax), %ecx
	andl	$-16, %ebx
	testl	%ecx, %ecx
	je	.L1663
	movl	648(%eax), %ebp
	movl	%ebp, 648(%ecx)
	movl	648(%eax), %ebp
.L1664:
	testl	%ebp, %ebp
	je	.L1668
	movl	%ecx, 652(%ebp)
.L1665:
	movl	%ebx, %ecx
	andl	$15, %edi
	andl	$-16, %ecx
	andl	$15, %esi
	orl	%edi, %ecx
	movl	%ecx, 4(%edx)
	movl	(%esp), %ecx
	andl	$-16, %ecx
	orl	%esi, %ecx
	testl	%ebx, %ebx
	je	.L1666
.L1670:
	movl	%ecx, (%edx)
	andl	$-16, 592(%eax)
	movl	%eax, 24(%esp)
	addl	$4, %esp
	.cfi_remember_state
	.cfi_def_cfa_offset 20
	popl	%ebx
	.cfi_restore 3
	.cfi_def_cfa_offset 16
	popl	%esi
	.cfi_restore 6
	.cfi_def_cfa_offset 12
	popl	%edi
	.cfi_restore 7
	.cfi_def_cfa_offset 8
	popl	%ebp
	.cfi_restore 5
	.cfi_def_cfa_offset 4
	jmp	scheduleTCB
	.p2align 4,,7
	.p2align 3
.L1666:
	.cfi_restore_state
	andl	$-4, %ecx
	jmp	.L1670
	.p2align 4,,7
	.p2align 3
.L1668:
	movl	%ecx, (%esp)
	jmp	.L1665
	.p2align 4,,7
	.p2align 3
.L1663:
	movl	648(%eax), %ebx
	movl	%ebx, %ebp
	jmp	.L1664
	.cfi_endproc
.LFE442:
	.size	asyncIPCCancel, .-asyncIPCCancel
	.p2align 4,,15
	.globl	decodeIA32MMUInvocation
	.type	decodeIA32MMUInvocation, @function
decodeIA32MMUInvocation:
.LFB344:
	.cfi_startproc
	pushl	%ebp
	.cfi_def_cfa_offset 8
	.cfi_offset 5, -8
	movl	%esp, %ebp
	.cfi_def_cfa_register 5
	pushl	%edi
	pushl	%esi
	pushl	%ebx
	subl	$108, %esp
	.cfi_offset 7, -12
	.cfi_offset 6, -16
	.cfi_offset 3, -20
	movl	24(%ebp), %ebx
	movl	28(%ebp), %eax
	movl	32(%ebp), %edi
	movl	36(%ebp), %ecx
	movl	%ebx, %esi
	movzbl	%bl, %edx
	movl	%eax, -60(%ebp)
	andl	$14, %esi
	movl	%ebx, %eax
	andl	$15, %eax
	cmpl	$14, %esi
	cmove	%edx, %eax
	cmpl	$9, %eax
	ja	.L1674
	jmp	*.L1676(,%eax,4)
	.section	.rodata
	.align 4
	.align 4
.L1676:
	.long	.L1674
	.long	.L1675
	.long	.L1674
	.long	.L1677
	.long	.L1674
	.long	.L1860
	.long	.L1674
	.long	.L1679
	.long	.L1674
	.long	.L1680
	.text
	.p2align 4,,7
	.p2align 3
.L1677:
	cmpl	$27, 8(%ebp)
	je	.L1865
	cmpl	$26, 8(%ebp)
	.p2align 4,,3
	je	.L1709
	.p2align 4,,7
	.p2align 3
.L1860:
	movl	$3, current_syscall_error+24
	movl	$3, %eax
.L1840:
	leal	-12(%ebp), %esp
	popl	%ebx
	.cfi_remember_state
	.cfi_restore 3
	popl	%esi
	.cfi_restore 6
	popl	%edi
	.cfi_restore 7
	popl	%ebp
	.cfi_restore 5
	.cfi_def_cfa 4, 4
	ret
	.p2align 4,,7
	.p2align 3
.L1680:
	.cfi_restore_state
	cmpl	$35, 8(%ebp)
	jne	.L1860
	testl	%edi, %edi
	je	.L1859
	movl	(%edi), %edx
	movl	4(%edi), %esi
	movl	%edx, %ecx
	movl	%edx, %eax
	andl	$14, %ecx
	andl	$15, %eax
	movzbl	%dl, %edx
	cmpl	$14, %ecx
	cmove	%edx, %eax
	cmpl	$5, %eax
	jne	.L1800
	testw	%si, %si
	jne	.L1800
	movzwl	-60(%ebp), %esi
	movl	%esi, %eax
	shrl	$10, %eax
	movl	ia32KSASIDTable(,%eax,4), %eax
	testl	%eax, %eax
	je	.L1866
	andl	$16777200, %ebx
	sall	$8, %ebx
	cmpl	%eax, %ebx
	je	.L1867
.L1803:
	movl	$2, current_syscall_error+24
	movl	$3, %eax
	movl	$0, current_syscall_error+4
	jmp	.L1840
	.p2align 4,,7
	.p2align 3
.L1675:
	cmpl	$30, 8(%ebp)
	je	.L1724
	jbe	.L1868
	cmpl	$31, 8(%ebp)
	.p2align 4,,3
	je	.L1727
	cmpl	$33, 8(%ebp)
	.p2align 4,,3
	jne	.L1860
	movl	ksCurThread, %edx
	andl	$16777200, %ebx
	sall	$8, %ebx
	addl	$536870912, %ebx
	movl	592(%edx), %eax
	andl	$-16, %eax
	orl	$2, %eax
	movl	%eax, 592(%edx)
	movl	%edx, (%esp)
	call	scheduleTCB
	movl	ksCurThread, %eax
	movl	%ebx, 20(%eax)
	movl	$1, 16(%eax)
	xorl	%eax, %eax
	jmp	.L1840
	.p2align 4,,7
	.p2align 3
.L1679:
	cmpl	$34, 8(%ebp)
	jne	.L1860
	cmpl	$1, 12(%ebp)
	jbe	.L1859
	testl	%edi, %edi
	je	.L1859
	testl	%ecx, %ecx
	.p2align 4,,3
	je	.L1859
	movl	ksCurThread, %eax
	movl	4(%ecx), %ebx
	movl	(%ecx), %ecx
	movl	4(%edi), %esi
	movl	20(%eax), %edx
	movl	24(%eax), %eax
	movl	%ebx, -76(%ebp)
	xorl	%ebx, %ebx
	movl	%ecx, -80(%ebp)
	movl	%edx, -64(%ebp)
	movl	(%edi), %edx
	movl	%eax, -68(%ebp)
	jmp	.L1785
	.p2align 4,,7
	.p2align 3
.L1787:
	addl	$1, %ebx
	cmpl	$64, %ebx
	je	.L1805
.L1785:
	movl	ia32KSASIDTable(,%ebx,4), %ecx
	testl	%ecx, %ecx
	jne	.L1787
	movl	%edx, %ecx
	movzbl	%dl, %eax
	andl	$14, %ecx
	movl	%ecx, -60(%ebp)
	movl	%edx, %ecx
	andl	$15, %ecx
	cmpl	$14, -60(%ebp)
	cmovne	%ecx, %eax
	cmpl	$2, %eax
	jne	.L1800
	andl	$31, %esi
	cmpl	$12, %esi
	jne	.L1800
	movl	%edi, (%esp)
	movl	%edx, -60(%ebp)
	call	ensureNoChildren
	testl	%eax, %eax
	jne	.L1840
	movl	-68(%ebp), %ecx
	leal	-56(%ebp), %eax
	movl	-80(%ebp), %edx
	movl	%eax, (%esp)
	movl	$0, 4(%esp)
	movl	%ecx, 20(%esp)
	movl	-64(%ebp), %ecx
	movl	%edx, 8(%esp)
	movl	%ecx, 16(%esp)
	movl	-76(%ebp), %ecx
	movl	%ecx, 12(%esp)
	call	lookupSlotForCNodeOp
	movl	-52(%ebp), %ecx
	pushl	%eax
	movl	-56(%ebp), %eax
	testl	%eax, %eax
	jne	.L1840
	movl	(%ecx), %eax
	movl	-60(%ebp), %edx
	movl	%eax, %esi
	andl	$14, %esi
	cmpl	$14, %esi
	je	.L1792
	andl	$15, %eax
.L1793:
	testl	%eax, %eax
	jne	.L1805
	movl	ksCurThread, %eax
	movl	%edx, %esi
	movl	%ecx, -68(%ebp)
	movl	ksCurThread, %ecx
	andl	$-16, %esi
	movl	%edx, -64(%ebp)
	movl	592(%eax), %eax
	andl	$-16, %eax
	orl	$2, %eax
	movl	%eax, 592(%ecx)
	movl	%ecx, (%esp)
	call	scheduleTCB
	movl	-64(%ebp), %edx
	leal	4096(%esi), %eax
	movl	-68(%ebp), %ecx
	movl	%eax, -60(%ebp)
	movl	%esi, %eax
.L1810:
	movl	$0, (%eax)
	addl	$4, %eax
	cmpl	-60(%ebp), %eax
	jne	.L1810
	movl	%edx, %eax
	andl	$-4096, %eax
	shrl	$8, %eax
	orl	$9, %eax
	sall	$10, %ebx
	movl	%eax, (%esp)
	movl	%ebx, 4(%esp)
	shrl	$10, %ebx
	movl	%ecx, 12(%esp)
	movl	%edi, 8(%esp)
	call	cteInsert
	xorl	%eax, %eax
	movl	%esi, ia32KSASIDTable(,%ebx,4)
	jmp	.L1840
	.p2align 4,,7
	.p2align 3
.L1674:
	call	halt
	.p2align 4,,7
	.p2align 3
.L1868:
	cmpl	$29, 8(%ebp)
	jne	.L1860
	cmpl	$2, 12(%ebp)
	jbe	.L1859
	testl	%edi, %edi
	je	.L1859
	movl	ksCurThread, %eax
	movl	%ebx, %edx
	shrl	$26, %edx
	sall	$10, %edx
	movl	20(%eax), %ecx
	movl	24(%eax), %eax
	movl	%ecx, -64(%ebp)
	movl	(%edi), %ecx
	movl	%eax, -68(%ebp)
	movl	44(%ebp), %eax
	movl	4(%edi), %edi
	movl	12(%eax), %eax
	movl	%eax, -80(%ebp)
	movl	-60(%ebp), %eax
	andl	$1072693248, %eax
	shrl	$20, %eax
	addl	%edx, %eax
	jne	.L1803
	movl	%ecx, %esi
	movl	%ecx, %eax
	andl	$14, %esi
	andl	$15, %eax
	movzbl	%cl, %edx
	cmpl	$14, %esi
	cmove	%edx, %eax
	cmpl	$5, %eax
	je	.L1869
	.p2align 4,,7
	.p2align 3
.L1800:
	movl	$2, current_syscall_error+24
	movl	$3, %eax
	movl	$1, current_syscall_error+4
	jmp	.L1840
	.p2align 4,,7
	.p2align 3
.L1709:
	cmpl	$1, 12(%ebp)
	jbe	.L1859
	testl	%edi, %edi
	je	.L1859
	testl	$67108864, -60(%ebp)
	jne	.L1803
	movl	ksCurThread, %eax
	movl	(%edi), %esi
	movl	4(%edi), %edx
	movl	20(%eax), %ecx
	movl	24(%eax), %eax
	movl	%esi, %edi
	andl	$14, %edi
	movl	%ecx, -64(%ebp)
	movl	%esi, %ecx
	movl	%eax, -68(%ebp)
	movl	%esi, %eax
	movzbl	%cl, %ecx
	andl	$15, %eax
	cmpl	$14, %edi
	cmove	%ecx, %eax
	cmpl	$5, %eax
	jne	.L1800
	testl	$65536, %edx
	je	.L1800
	cmpl	$-536870913, -64(%ebp)
	jbe	.L1717
.L1743:
	movl	$1, current_syscall_error+24
	movl	$3, %eax
	movl	$0, current_syscall_error
	jmp	.L1840
	.p2align 4,,7
	.p2align 3
.L1859:
	movl	$7, current_syscall_error+24
	movl	$3, %eax
	jmp	.L1840
	.p2align 4,,7
	.p2align 3
.L1865:
	movl	20(%ebp), %eax
	movl	%eax, (%esp)
	call	isFinalCapability
	testl	%eax, %eax
	jne	.L1683
	movl	$9, current_syscall_error+24
	movb	$3, %al
	jmp	.L1840
	.p2align 4,,7
	.p2align 3
.L1727:
	movl	-60(%ebp), %edx
	movl	%ebx, %eax
	shrl	$26, %eax
	sall	$10, %eax
	andl	$1072693248, %edx
	shrl	$20, %edx
	addl	%edx, %eax
	je	.L1780
	movl	-60(%ebp), %ecx
	andl	$16777200, %ebx
	movl	%eax, 4(%esp)
	sall	$8, %ebx
	movl	%ebx, 12(%esp)
	movl	%ecx, %edx
	movl	%ecx, %eax
	sall	$12, %edx
	shrl	$31, %eax
	movl	%edx, 8(%esp)
	movl	%eax, (%esp)
	call	unmapPage
.L1780:
	movl	20(%ebp), %eax
	movl	20(%ebp), %ecx
	movl	4(%eax), %eax
	andl	$67108863, (%ecx)
	andl	$-1073741824, %eax
	movl	%eax, 4(%ecx)
.L1861:
	movl	ksCurThread, %edx
	movl	592(%edx), %eax
	andl	$-16, %eax
	orl	$2, %eax
	movl	%eax, 592(%edx)
	movl	%edx, (%esp)
	call	scheduleTCB
	xorl	%eax, %eax
	jmp	.L1840
	.p2align 4,,7
	.p2align 3
.L1724:
	cmpl	$1, 12(%ebp)
	jbe	.L1859
	testl	%edi, %edi
	.p2align 4,,3
	je	.L1859
	movl	ksCurThread, %eax
	movl	20(%eax), %ecx
	movl	24(%eax), %eax
	movl	%ecx, -64(%ebp)
	movl	(%edi), %ecx
	movl	%eax, -68(%ebp)
	movl	4(%edi), %edi
	movl	%ecx, %esi
	movl	%ecx, %eax
	andl	$14, %esi
	andl	$15, %eax
	movzbl	%cl, %edx
	cmpl	$14, %esi
	cmove	%edx, %eax
	cmpl	$5, %eax
	jne	.L1800
	testl	$65536, %edi
	je	.L1800
	movl	-60(%ebp), %edx
	movl	%ebx, %eax
	shrl	$26, %eax
	sall	$10, %eax
	andl	$1072693248, %edx
	shrl	$20, %edx
	addl	%eax, %edx
	movl	%edx, %esi
	je	.L1803
	movzwl	%di, %edi
	leal	-32(%ebp), %eax
	movl	%edi, %edx
	movl	%ecx, -80(%ebp)
	call	findPDForASID
	movl	-28(%ebp), %eax
	cmpl	$0, -32(%ebp)
	movl	-80(%ebp), %ecx
	jne	.L1864
	andl	$16777200, %ecx
	movl	%ecx, %edx
	sall	$8, %edx
	cmpl	%eax, %edx
	je	.L1870
.L1768:
	movl	$2, current_syscall_error+24
	movl	$1, current_syscall_error+4
.L1858:
	movl	$3, %eax
	jmp	.L1840
.L1683:
	movl	ksCurThread, %edx
	movl	592(%edx), %eax
	andl	$-16, %eax
	orl	$2, %eax
	movl	%eax, 592(%edx)
	movl	%edx, (%esp)
	call	scheduleTCB
	testl	$67108864, -60(%ebp)
	jne	.L1685
.L1707:
	movl	20(%ebp), %eax
	andl	$-67108865, 4(%eax)
	xorl	%eax, %eax
	jmp	.L1840
.L1805:
	movl	$8, current_syscall_error+24
	jmp	.L1858
.L1685:
	movl	-60(%ebp), %ecx
	movl	%ebx, %edi
	andl	$16777200, %edi
	sall	$8, %edi
	movl	%edi, 8(%esp)
	movl	%ecx, %eax
	sall	$22, %eax
	movl	%eax, 4(%esp)
	movl	%ecx, %eax
	andl	$67107840, %eax
	shrl	$10, %eax
	movl	%eax, (%esp)
	call	unmapPageTable
	movl	%ebx, %eax
	movzbl	%bl, %edx
	andl	$15, %eax
	cmpl	$14, %esi
	cmove	%edx, %eax
	cmpl	$62, %eax
	ja	.L1674
	jmp	*.L1690(,%eax,4)
	.section	.rodata
	.align 4
	.align 4
.L1690:
	.long	.L1695
	.long	.L1691
	.long	.L1692
	.long	.L1813
	.long	.L1812
	.long	.L1813
	.long	.L1812
	.long	.L1695
	.long	.L1695
	.long	.L1813
	.long	.L1697
	.long	.L1695
	.long	.L1815
	.long	.L1674
	.long	.L1695
	.long	.L1674
	.long	.L1674
	.long	.L1674
	.long	.L1674
	.long	.L1674
	.long	.L1674
	.long	.L1674
	.long	.L1674
	.long	.L1674
	.long	.L1674
	.long	.L1674
	.long	.L1674
	.long	.L1674
	.long	.L1674
	.long	.L1674
	.long	.L1695
	.long	.L1674
	.long	.L1674
	.long	.L1674
	.long	.L1674
	.long	.L1674
	.long	.L1674
	.long	.L1674
	.long	.L1674
	.long	.L1674
	.long	.L1674
	.long	.L1674
	.long	.L1674
	.long	.L1674
	.long	.L1674
	.long	.L1674
	.long	.L1702
	.long	.L1674
	.long	.L1674
	.long	.L1674
	.long	.L1674
	.long	.L1674
	.long	.L1674
	.long	.L1674
	.long	.L1674
	.long	.L1674
	.long	.L1674
	.long	.L1674
	.long	.L1674
	.long	.L1674
	.long	.L1674
	.long	.L1674
	.long	.L1695
	.text
.L1695:
	xorl	%ecx, %ecx
.L1694:
	movl	$1, %eax
	sall	%cl, %eax
	.p2align 4,,7
	.p2align 3
.L1708:
	movl	$0, (%edi)
	addl	$4, %edi
	subl	$4, %eax
	jne	.L1708
	jmp	.L1707
.L1813:
	movl	$12, %ecx
	jmp	.L1694
.L1815:
	movl	$10, %ecx
	jmp	.L1694
.L1697:
	movl	-60(%ebp), %ecx
	andl	$260046848, %ecx
	shrl	$23, %ecx
	addl	$4, %ecx
.L1704:
	movl	$1, %eax
	sall	%cl, %eax
	testl	%eax, %eax
	je	.L1707
	jmp	.L1708
.L1702:
	andl	$16128, %ebx
	shrl	$8, %ebx
	cmpl	$32, %ebx
	je	.L1815
	movl	%ebx, %ecx
	andl	$31, %ecx
	addl	$4, %ecx
	jmp	.L1704
.L1692:
	movl	-60(%ebp), %ecx
	andl	$31, %ecx
	jmp	.L1704
.L1691:
	movl	-60(%ebp), %eax
	shrl	$31, %eax
	testl	%eax, %eax
	je	.L1813
	subl	$1, %eax
	jne	.L1674
	movl	$22, %ecx
	jmp	.L1694
.L1812:
	movl	$4, %ecx
	jmp	.L1694
.L1869:
	testl	$65536, %edi
	je	.L1800
	movzwl	%di, %eax
	movl	%eax, -88(%ebp)
	movl	%eax, %edx
	leal	-32(%ebp), %eax
	movl	%ecx, -72(%ebp)
	call	findPDForASID
	movl	-28(%ebp), %eax
	cmpl	$0, -32(%ebp)
	movl	-72(%ebp), %ecx
	jne	.L1864
	andl	$16777200, %ecx
	movl	%ecx, -72(%ebp)
	sall	$8, -72(%ebp)
	cmpl	%eax, -72(%ebp)
	jne	.L1768
	movl	-60(%ebp), %eax
	shrl	$31, %eax
	testl	%eax, %eax
	je	.L1741
	cmpl	$1, %eax
	jne	.L1674
	movl	$22, %ecx
.L1742:
	movl	$1, %edx
	sall	%cl, %edx
	addl	-64(%ebp), %edx
	cmpl	$-536870912, %edx
	ja	.L1743
	movl	%ebx, %edx
	andl	$50331648, %edx
	shrl	$24, %edx
	cmpl	$2, %edx
	je	.L1871
	cmpl	$3, %edx
	movl	$1, %esi
	je	.L1872
.L1746:
	testl	%eax, %eax
	je	.L1748
	cmpl	$1, %eax
	jne	.L1674
	movl	$22, %ecx
.L1749:
	movl	$1, %edx
	sall	%cl, %edx
	subl	$1, %edx
	testl	%edx, -64(%ebp)
	jne	.L1775
	movl	%ebx, %edx
	andl	$67108863, %ebx
	andl	$16777200, %edx
	andl	$1023, %edi
	sall	$8, %edx
	leal	536870912(%edx), %ecx
	movl	-64(%ebp), %edx
	movl	%ecx, -84(%ebp)
	movl	-88(%ebp), %ecx
	sall	$20, %edi
	shrl	$12, %edx
	shrl	$10, %ecx
	movl	%ecx, -68(%ebp)
	sall	$26, -68(%ebp)
	orl	%ebx, -68(%ebp)
	movl	-60(%ebp), %ebx
	andl	$-1073741824, %ebx
	orl	%edi, %ebx
	orl	%edx, %ebx
	testl	%eax, %eax
	je	.L1752
	subl	$1, %eax
	jne	.L1674
	movl	-64(%ebp), %eax
	movl	-72(%ebp), %edi
	shrl	$22, %eax
	leal	(%edi,%eax,4), %eax
	movl	(%eax), %edx
	testb	$-128, %dl
	jne	.L1756
	andb	$1, %dl
	jne	.L1805
.L1756:
	movl	-80(%ebp), %ecx
	movl	-84(%ebp), %edx
	movl	%esi, (%esp)
	call	makeUserPDE
	movl	20(%ebp), %eax
	movl	-68(%ebp), %edi
	movl	%ebx, 4(%eax)
	movl	%edi, (%eax)
	jmp	.L1861
.L1864:
	movl	$6, current_syscall_error+24
	movl	$0, current_syscall_error+20
	jmp	.L1858
.L1866:
	movl	$6, current_syscall_error+24
	movb	$3, %al
	movl	$0, current_syscall_error+20
	movl	$0, current_lookup_fault
	movl	$0, current_lookup_fault+4
	jmp	.L1840
.L1870:
	cmpl	%esi, %edi
	jne	.L1768
	movl	-60(%ebp), %esi
	movl	%ebx, %eax
	andl	$16777200, %ebx
	andl	$50331648, %eax
	shrl	$24, %eax
	sall	$8, %ebx
	shrl	$31, %esi
	cmpl	$2, %eax
	leal	536870912(%ebx), %edi
	je	.L1873
	cmpl	$3, %eax
	movl	$1, %ebx
	je	.L1874
.L1771:
	movl	-60(%ebp), %ecx
	sall	$12, %ecx
	testl	%esi, %esi
	je	.L1773
	subl	$1, %esi
	jne	.L1674
	testl	$4190208, %ecx
	je	.L1875
.L1775:
	movl	$5, current_syscall_error+24
	movl	$3, %eax
	jmp	.L1840
.L1867:
	xorl	%eax, %eax
	jmp	.L1804
	.p2align 4,,7
	.p2align 3
.L1806:
	addl	$1, %eax
	addl	$1, %esi
	cmpl	$1024, %eax
	je	.L1805
.L1804:
	testl	%esi, %esi
	je	.L1806
	cmpl	$0, (%ebx,%eax,4)
	jne	.L1806
	movl	ksCurThread, %edx
	movl	592(%edx), %eax
	andl	$-16, %eax
	orl	$2, %eax
	movl	%eax, 592(%edx)
	movl	%edx, (%esp)
	call	scheduleTCB
	movl	4(%edi), %eax
	movzwl	%si, %edx
	andl	$1023, %esi
	andl	$-131072, %eax
	orl	%edx, %eax
	orl	$65536, %eax
	movl	%eax, 4(%edi)
	movl	(%edi), %eax
	andl	$16777200, %eax
	sall	$8, %eax
	movl	%eax, (%ebx,%esi,4)
	xorl	%eax, %eax
	jmp	.L1840
.L1875:
	shrl	$22, %ecx
	leal	(%edx,%ecx,4), %eax
	movl	(%eax), %edx
	testb	$-128, %dl
	jne	.L1779
	andb	$1, %dl
	jne	.L1805
.L1779:
	movl	-68(%ebp), %ecx
	movl	%edi, %edx
	movl	%ebx, (%esp)
	call	makeUserPDE
	jmp	.L1861
.L1873:
	movl	-64(%ebp), %eax
	andl	$2, %eax
	shrl	%eax
	cmpl	$1, %eax
	sbbl	%ebx, %ebx
	addl	$2, %ebx
	jmp	.L1771
.L1773:
	leal	-40(%ebp), %eax
	call	lookupPTSlot
	movl	-36(%ebp), %esi
	cmpl	$0, -40(%ebp)
	je	.L1777
.L1862:
	movl	$6, current_syscall_error+24
	movl	$3, %eax
	movl	$0, current_syscall_error+20
	jmp	.L1840
.L1874:
	testb	$2, -64(%ebp)
	je	.L1771
	movl	-64(%ebp), %eax
	andl	$1, %eax
	cmpl	$1, %eax
	sbbl	%ebx, %ebx
	addl	$3, %ebx
	jmp	.L1771
.L1777:
	movl	-68(%ebp), %ecx
	leal	-44(%ebp), %eax
	movl	%edi, %edx
	movl	%ebx, (%esp)
	call	makeUserPTE
	movl	-44(%ebp), %eax
	movl	%eax, (%esi)
	jmp	.L1861
.L1752:
	movl	-64(%ebp), %ecx
	leal	-40(%ebp), %eax
	movl	-72(%ebp), %edx
	call	lookupPTSlot
	movl	-36(%ebp), %edi
	cmpl	$0, -40(%ebp)
	jne	.L1862
	movl	-80(%ebp), %ecx
	leal	-44(%ebp), %eax
	movl	-84(%ebp), %edx
	movl	%esi, (%esp)
	call	makeUserPTE
	movl	20(%ebp), %eax
	movl	-68(%ebp), %ecx
	movl	%ebx, 4(%eax)
	movl	%ecx, (%eax)
	movl	-44(%ebp), %eax
	movl	%eax, (%edi)
	jmp	.L1861
.L1748:
	movl	$12, %ecx
	jmp	.L1749
.L1872:
	testb	$2, -68(%ebp)
	je	.L1746
	movl	-68(%ebp), %edx
	andl	$1, %edx
	cmpl	$1, %edx
	sbbl	%esi, %esi
	addl	$3, %esi
	jmp	.L1746
.L1871:
	movl	-68(%ebp), %edx
	andl	$2, %edx
	shrl	%edx
	cmpl	$1, %edx
	sbbl	%esi, %esi
	addl	$2, %esi
	jmp	.L1746
.L1741:
	movl	$12, %ecx
	jmp	.L1742
.L1717:
	movzwl	%dx, %edi
	leal	-32(%ebp), %eax
	movl	%edi, %edx
	call	findPDForASID
	movl	-28(%ebp), %eax
	cmpl	$0, -32(%ebp)
	jne	.L1864
	andl	$16777200, %esi
	sall	$8, %esi
	cmpl	%eax, %esi
	jne	.L1768
	movl	-64(%ebp), %eax
	shrl	$22, %eax
	leal	(%esi,%eax,4), %edx
	testb	$1, (%edx)
	jne	.L1805
	movl	20(%ebp), %ecx
	sall	$10, %edi
	movl	%ebx, (%ecx)
	movl	-60(%ebp), %ecx
	andl	$16777200, %ebx
	sall	$8, %ebx
	addl	$536870912, %ebx
	andl	$-134216705, %ecx
	orl	$67108864, %ecx
	orl	%edi, %ecx
	andl	$-1024, %ecx
	orl	%eax, %ecx
	movl	20(%ebp), %eax
	movl	%ecx, 4(%eax)
	movl	-68(%ebp), %ecx
	movl	%ecx, %eax
	andl	$2, %ecx
	andl	$1, %eax
	sall	$3, %eax
	shrl	%ecx
	orl	$7, %eax
	sall	$4, %ecx
	orl	%ecx, %eax
	orl	%ebx, %eax
	movl	%eax, (%edx)
	movl	ksCurThread, %edx
	movl	592(%edx), %eax
	andl	$-16, %eax
	orl	$2, %eax
	movl	%eax, 592(%edx)
	movl	%edx, (%esp)
	call	scheduleTCB
	call	invalidatePageStructureCache
	xorl	%eax, %eax
	jmp	.L1840
.L1792:
	movzbl	%al, %eax
	.p2align 4,,3
	jmp	.L1793
	.cfi_endproc
.LFE344:
	.size	decodeIA32MMUInvocation, .-decodeIA32MMUInvocation
	.p2align 4,,15
	.globl	Arch_decodeInvocation
	.type	Arch_decodeInvocation, @function
Arch_decodeInvocation:
.LFB371:
	.cfi_startproc
	pushl	%ebp
	.cfi_def_cfa_offset 8
	.cfi_offset 5, -8
	pushl	%edi
	.cfi_def_cfa_offset 12
	.cfi_offset 7, -12
	pushl	%esi
	.cfi_def_cfa_offset 16
	.cfi_offset 6, -16
	pushl	%ebx
	.cfi_def_cfa_offset 20
	.cfi_offset 3, -20
	subl	$24, %esp
	.cfi_def_cfa_offset 44
	movl	44(%esp), %eax
	movl	56(%esp), %ebx
	movl	64(%esp), %esi
	movl	80(%esp), %edi
	movl	%eax, (%esp)
	movl	48(%esp), %eax
	movl	%eax, 4(%esp)
	movl	52(%esp), %eax
	movl	%eax, 8(%esp)
	movl	60(%esp), %eax
	movl	%eax, %ebp
	movl	%eax, %ecx
	andl	$14, %ebp
	andl	$15, %ecx
	movzbl	%al, %edx
	cmpl	$14, %ebp
	cmove	%edx, %ecx
	subl	$1, %ecx
	cmpl	$10, %ecx
	jbe	.L1884
.L1879:
	movl	$2, current_syscall_error+24
	movl	$3, %eax
	movl	$0, current_syscall_error+4
	addl	$24, %esp
	.cfi_remember_state
	.cfi_def_cfa_offset 20
	popl	%ebx
	.cfi_restore 3
	.cfi_def_cfa_offset 16
	popl	%esi
	.cfi_restore 6
	.cfi_def_cfa_offset 12
	popl	%edi
	.cfi_restore 7
	.cfi_def_cfa_offset 8
	popl	%ebp
	.cfi_restore 5
	.cfi_def_cfa_offset 4
	ret
	.p2align 4,,7
	.p2align 3
.L1884:
	.cfi_restore_state
	movl	$1, %edx
	sall	%cl, %edx
	testb	$21, %dl
	jne	.L1881
	testl	$320, %edx
	jne	.L1881
	andb	$4, %dh
	je	.L1879
	movl	%eax, 60(%esp)
	movl	8(%esp), %eax
	movl	%edi, 80(%esp)
	movl	%esi, 64(%esp)
	movl	%ebx, 56(%esp)
	movl	%eax, 52(%esp)
	movl	4(%esp), %eax
	movl	%eax, 48(%esp)
	movl	(%esp), %eax
	movl	%eax, 44(%esp)
	addl	$24, %esp
	.cfi_remember_state
	.cfi_def_cfa_offset 20
	popl	%ebx
	.cfi_restore 3
	.cfi_def_cfa_offset 16
	popl	%esi
	.cfi_restore 6
	.cfi_def_cfa_offset 12
	popl	%edi
	.cfi_restore 7
	.cfi_def_cfa_offset 8
	popl	%ebp
	.cfi_restore 5
	.cfi_def_cfa_offset 4
	jmp	decodeIA32PortInvocation
	.p2align 4,,7
	.p2align 3
.L1881:
	.cfi_restore_state
	movl	%eax, 60(%esp)
	movl	8(%esp), %eax
	movl	%edi, 80(%esp)
	movl	%esi, 64(%esp)
	movl	%ebx, 56(%esp)
	movl	%eax, 52(%esp)
	movl	4(%esp), %eax
	movl	%eax, 48(%esp)
	movl	(%esp), %eax
	movl	%eax, 44(%esp)
	addl	$24, %esp
	.cfi_def_cfa_offset 20
	popl	%ebx
	.cfi_restore 3
	.cfi_def_cfa_offset 16
	popl	%esi
	.cfi_restore 6
	.cfi_def_cfa_offset 12
	popl	%edi
	.cfi_restore 7
	.cfi_def_cfa_offset 8
	popl	%ebp
	.cfi_restore 5
	.cfi_def_cfa_offset 4
	jmp	decodeIA32MMUInvocation
	.cfi_endproc
.LFE371:
	.size	Arch_decodeInvocation, .-Arch_decodeInvocation
	.p2align 4,,15
	.type	possibleSwitchTo, @function
possibleSwitchTo:
.LFB429:
	.cfi_startproc
	pushl	%edi
	.cfi_def_cfa_offset 8
	.cfi_offset 7, -8
	pushl	%esi
	.cfi_def_cfa_offset 12
	.cfi_offset 6, -12
	pushl	%ebx
	.cfi_def_cfa_offset 16
	.cfi_offset 3, -16
	subl	$4, %esp
	.cfi_def_cfa_offset 20
	movl	ksCurThread, %ecx
	movl	ksCurDomain, %edi
	cmpl	%edi, 620(%eax)
	movl	624(%eax), %esi
	movl	624(%ecx), %ecx
	movl	ksSchedulerAction, %ebx
	jne	.L1897
	cmpl	%esi, %ecx
	jae	.L1898
.L1888:
	testl	%ebx, %ebx
	je	.L1899
.L1889:
	movl	%eax, (%esp)
	subl	$1, %ebx
	call	tcbSchedEnqueue
	cmpl	$-3, %ebx
	jbe	.L1900
.L1885:
	addl	$4, %esp
	.cfi_remember_state
	.cfi_def_cfa_offset 16
	popl	%ebx
	.cfi_restore 3
	.cfi_def_cfa_offset 12
	popl	%esi
	.cfi_restore 6
	.cfi_def_cfa_offset 8
	popl	%edi
	.cfi_restore 7
	.cfi_def_cfa_offset 4
	ret
	.p2align 4,,7
	.p2align 3
.L1898:
	.cfi_restore_state
	testl	%edx, %edx
	je	.L1889
	cmpl	%ecx, %esi
	.p2align 4,,2
	jne	.L1889
	.p2align 4,,7
	jmp	.L1888
	.p2align 4,,7
	.p2align 3
.L1897:
	movl	%eax, (%esp)
	.p2align 4,,6
	call	tcbSchedEnqueue
	addl	$4, %esp
	.cfi_remember_state
	.cfi_def_cfa_offset 16
	popl	%ebx
	.cfi_restore 3
	.cfi_def_cfa_offset 12
	popl	%esi
	.cfi_restore 6
	.cfi_def_cfa_offset 8
	popl	%edi
	.cfi_restore 7
	.cfi_def_cfa_offset 4
	ret
	.p2align 4,,7
	.p2align 3
.L1900:
	.cfi_restore_state
	addl	$4, %esp
	.cfi_remember_state
	.cfi_def_cfa_offset 16
	popl	%ebx
	.cfi_restore 3
	.cfi_def_cfa_offset 12
	popl	%esi
	.cfi_restore 6
	.cfi_def_cfa_offset 8
	popl	%edi
	.cfi_restore 7
	.cfi_def_cfa_offset 4
	jmp	rescheduleRequired
	.p2align 4,,7
	.p2align 3
.L1899:
	.cfi_restore_state
	movl	%eax, ksSchedulerAction
	jmp	.L1885
	.cfi_endproc
.LFE429:
	.size	possibleSwitchTo, .-possibleSwitchTo
	.p2align 4,,15
	.globl	attemptSwitchTo
	.type	attemptSwitchTo, @function
attemptSwitchTo:
.LFB430:
	.cfi_startproc
	movl	4(%esp), %eax
	movl	$1, %edx
	jmp	possibleSwitchTo
	.cfi_endproc
.LFE430:
	.size	attemptSwitchTo, .-attemptSwitchTo
	.p2align 4,,15
	.globl	switchIfRequiredTo
	.type	switchIfRequiredTo, @function
switchIfRequiredTo:
.LFB431:
	.cfi_startproc
	movl	4(%esp), %eax
	xorl	%edx, %edx
	jmp	possibleSwitchTo
	.cfi_endproc
.LFE431:
	.size	switchIfRequiredTo, .-switchIfRequiredTo
	.p2align 4,,15
	.globl	sendAsyncIPC
	.type	sendAsyncIPC, @function
sendAsyncIPC:
.LFB439:
	.cfi_startproc
	pushl	%ebp
	.cfi_def_cfa_offset 8
	.cfi_offset 5, -8
	pushl	%edi
	.cfi_def_cfa_offset 12
	.cfi_offset 7, -12
	pushl	%esi
	.cfi_def_cfa_offset 16
	.cfi_offset 6, -16
	pushl	%ebx
	.cfi_def_cfa_offset 20
	.cfi_offset 3, -20
	subl	$16, %esp
	.cfi_def_cfa_offset 36
	movl	36(%esp), %edx
	movl	40(%esp), %esi
	movl	44(%esp), %edi
	movl	(%edx), %eax
	movl	%eax, %ecx
	andl	$3, %ecx
	cmpl	$1, %ecx
	je	.L1905
	jb	.L1906
	cmpl	$2, %ecx
	jne	.L1903
	orl	12(%edx), %edi
	orl	%esi, 8(%edx)
	movl	%edi, 12(%edx)
.L1903:
	addl	$16, %esp
	.cfi_remember_state
	.cfi_def_cfa_offset 20
	popl	%ebx
	.cfi_restore 3
	.cfi_def_cfa_offset 16
	popl	%esi
	.cfi_restore 6
	.cfi_def_cfa_offset 12
	popl	%edi
	.cfi_restore 7
	.cfi_def_cfa_offset 8
	popl	%ebp
	.cfi_restore 5
	.cfi_def_cfa_offset 4
	ret
	.p2align 4,,7
	.p2align 3
.L1906:
	.cfi_restore_state
	andl	$-4, %eax
	orl	$2, %eax
	movl	%eax, (%edx)
	movl	%esi, 8(%edx)
	movl	%edi, 12(%edx)
	addl	$16, %esp
	.cfi_remember_state
	.cfi_def_cfa_offset 20
	popl	%ebx
	.cfi_restore 3
	.cfi_def_cfa_offset 16
	popl	%esi
	.cfi_restore 6
	.cfi_def_cfa_offset 12
	popl	%edi
	.cfi_restore 7
	.cfi_def_cfa_offset 8
	popl	%ebp
	.cfi_restore 5
	.cfi_def_cfa_offset 4
	ret
	.p2align 4,,7
	.p2align 3
.L1905:
	.cfi_restore_state
	movl	4(%edx), %ebx
	movl	%eax, %ecx
	andl	$-16, %ecx
	movl	%ecx, 8(%esp)
	movl	%ebx, 12(%esp)
	andl	$-16, %ebx
	movl	652(%ebx), %ecx
	movl	648(%ebx), %ebp
	testl	%ecx, %ecx
	je	.L1908
	movl	%ebp, 648(%ecx)
	movl	648(%ebx), %ebp
	movl	%ebx, 4(%esp)
.L1909:
	testl	%ebp, %ebp
	je	.L1913
	movl	%ecx, 652(%ebp)
.L1910:
	movl	4(%esp), %ecx
