	.file	"kernel_final.c"
	.text
	.p2align 4,,15
	.type	lookup_fp, @function
lookup_fp:
.LFB265:
	.cfi_startproc
	pushl	%ebp
	.cfi_def_cfa_offset 8
	.cfi_offset 5, -8
	pushl	%edi
	.cfi_def_cfa_offset 12
	.cfi_offset 7, -12
	movl	%edx, %edi
	pushl	%esi
	.cfi_def_cfa_offset 16
	.cfi_offset 6, -16
	andl	$15, %edx
	pushl	%ebx
	.cfi_def_cfa_offset 20
	.cfi_offset 3, -20
	subl	$8, %esp
	.cfi_def_cfa_offset 28
	cmpl	$10, %edx
	jne	.L5
	movl	%ecx, %esi
	xorl	%ebx, %ebx
	movl	%eax, (%esp)
.L8:
	movl	28(%esp), %eax
	movl	%esi, %edx
	movl	%esi, %ebp
	andl	$8126464, %edx
	andl	$260046848, %ebp
	shrl	$18, %edx
	movl	%ebx, %ecx
	shrl	$23, %ebp
	sall	%cl, %eax
	testl	%edx, %edx
	movl	%eax, 4(%esp)
	jne	.L16
.L4:
	movl	4(%esp), %esi
	movl	%edx, %ecx
	addl	%ebp, %edx
	andl	$2147483632, %edi
	addl	%edx, %ebx
	sall	%cl, %esi
	movl	$32, %ecx
	subl	%ebp, %ecx
	shrl	%cl, %esi
	sall	$4, %esi
	cmpl	$31, %ebx
	leal	(%esi,%edi,2), %ecx
	movl	(%ecx), %edi
	movl	4(%ecx), %esi
	jbe	.L17
	cmpl	$32, %ebx
	movl	(%esp), %eax
	jne	.L5
.L7:
	movl	%edi, (%eax)
	movl	%esi, 4(%eax)
.L1:
	addl	$8, %esp
	.cfi_remember_state
	.cfi_def_cfa_offset 20
	popl	%ebx
	.cfi_restore 3
	.cfi_def_cfa_offset 16
	popl	%esi
	.cfi_restore 6
	.cfi_def_cfa_offset 12
	popl	%edi
	.cfi_restore 7
	.cfi_def_cfa_offset 8
	popl	%ebp
	.cfi_restore 5
	.cfi_def_cfa_offset 4
	ret
.L16:
	.cfi_restore_state
	movl	$32, %ecx
	andl	$262143, %esi
	subl	%edx, %ecx
	shrl	%cl, %eax
	cmpl	%esi, %eax
	je	.L4
	movl	(%esp), %eax
.L5:
	movl	$0, (%eax)
	movl	$0, 4(%eax)
	jmp	.L1
.L17:
	movl	%edi, %edx
	andl	$15, %edx
	cmpl	$10, %edx
	je	.L8
	movl	(%esp), %eax
	jmp	.L7
	.cfi_endproc
.LFE265:
	.size	lookup_fp, .-lookup_fp
	.p2align 4,,15
	.type	switchToThread_fp, @function
switchToThread_fp:
.LFB266:
	.cfi_startproc
	addl	$536870912, %edx
	cmpl	ia32KSCurrentPD, %edx
	pushl	%ebx
	.cfi_def_cfa_offset 8
	.cfi_offset 3, -8
	je	.L19
	movl	%edx, ia32KSCurrentPD
#APP
# 35 "/home/mscapero/Desktop/seL4/seL4test/kernel/include/arch/ia32/arch/machine/cpu_registers.h" 1
	movl %edx, %cr3
# 0 "" 2
#NO_APP
.L19:
	movl	48(%ecx), %edx
	movl	ia32KSgdt+52, %eax
	movl	%ecx, ksCurThread
	movl	%edx, %ebx
	shrl	$16, %ebx
	andl	$16776960, %eax
	movzbl	%bl, %ebx
	orl	%ebx, %eax
	movw	%dx, ia32KSgdt+50
	andl	$-16777216, %edx
	orl	%edx, %eax
	movl	636(%ecx), %edx
	movl	%eax, ia32KSgdt+52
	movl	ia32KSgdt+60, %eax
	movl	%edx, %ebx
	shrl	$16, %ebx
	andl	$16776960, %eax
	movzbl	%bl, %ebx
	orl	%ebx, %eax
	movw	%dx, ia32KSgdt+58
	andl	$-16777216, %edx
	orl	%edx, %eax
	movl	%eax, ia32KSgdt+60
	popl	%ebx
	.cfi_restore 3
	.cfi_def_cfa_offset 4
	ret
	.cfi_endproc
.LFE266:
	.size	switchToThread_fp, .-switchToThread_fp
	.p2align 4,,15
	.type	fastpath_restore, @function
fastpath_restore:
.LFB279:
	.cfi_startproc
	pushl	%esi
	.cfi_def_cfa_offset 8
	.cfi_offset 6, -8
	movl	ksCurThread, %eax
	movl	%edx, %esi
	pushl	%ebx
	.cfi_def_cfa_offset 12
	.cfi_offset 3, -12
	movl	%ecx, %ebx
	movl	ia32KSfpuOwner, %ecx
	cmpl	%ecx, %eax
	je	.L31
	testl	%ecx, %ecx
	jne	.L32
.L23:
	andl	$-513, 64(%eax)
	cmpl	$35, 28(%eax)
	leal	76(%eax), %ecx
	movl	%ecx, ia32KStss+4
	je	.L33
.L24:
	leal	20(%eax), %ecx
	movl	(%eax), %eax
#APP
# 233 "/home/mscapero/Desktop/seL4/seL4test/kernel/src/arch/ia32/fastpath/fastpath.c" 1
	                movl %ecx, %esp 
                popl %edi 
                popl %ebp 
                popl %ds 
                popl %es 
                popl %fs 
                popl %gs 
                addl $20, %esp 
                popfl 
                orl $0x200, 44(%ecx) 
                movl 36(%ecx), %edx 
                pop %ecx 
                sti 
                sysexit 
            
# 0 "" 2
#NO_APP
.L28:
.L27:
	jmp	.L27
.L33:
	cmpl	$35, 32(%eax)
	jne	.L24
	leal	20(%eax), %ecx
	movl	(%eax), %eax
#APP
# 210 "/home/mscapero/Desktop/seL4/seL4test/kernel/src/arch/ia32/fastpath/fastpath.c" 1
	                movl %ecx, %esp 
                popl %edi 
                popl %ebp 
                addl $8, %esp 
                popl %fs 
                popl %gs 
                addl $20, %esp 
                popfl 
                orl $0x200, 44(%ecx) 
                movl 36(%ecx), %edx 
                pop %ecx 
                sti 
                sysexit 
            
# 0 "" 2
#NO_APP
	jmp	.L28
.L32:
#APP
# 41 "/home/mscapero/Desktop/seL4/seL4test/kernel/include/arch/ia32/arch/machine/cpu_registers.h" 1
	movl %cr0, %ecx
# 0 "" 2
#NO_APP
	orl	$8, %ecx
#APP
# 47 "/home/mscapero/Desktop/seL4/seL4test/kernel/include/arch/ia32/arch/machine/cpu_registers.h" 1
	movl %ecx, %cr0
# 0 "" 2
#NO_APP
	jmp	.L23
.L31:
#APP
# 45 "/home/mscapero/Desktop/seL4/seL4test/kernel/include/arch/ia32/arch/machine/fpu.h" 1
	clts
# 0 "" 2
#NO_APP
	.p2align 4,,3
	jmp	.L23
	.cfi_endproc
.LFE279:
	.size	fastpath_restore, .-fastpath_restore
	.p2align 4,,15
	.type	cap_get_capPtr, @function
cap_get_capPtr:
.LFB229:
	.cfi_startproc
	pushl	%esi
	.cfi_def_cfa_offset 8
	.cfi_offset 6, -8
	movl	%eax, %esi
	pushl	%ebx
	.cfi_def_cfa_offset 12
	.cfi_offset 3, -12
	andl	$14, %esi
	movl	%eax, %ecx
	subl	$4, %esp
	.cfi_def_cfa_offset 16
	andl	$15, %ecx
	movzbl	%al, %ebx
	cmpl	$14, %esi
	cmove	%ebx, %ecx
	cmpl	$62, %ecx
	ja	.L37
	jmp	*.L39(,%ecx,4)
	.section	.rodata
	.align 4
	.align 4
.L39:
	.long	.L51
	.long	.L46
	.long	.L45
	.long	.L46
	.long	.L45
	.long	.L46
	.long	.L45
	.long	.L51
	.long	.L51
	.long	.L46
	.long	.L47
	.long	.L51
	.long	.L48
	.long	.L37
	.long	.L51
	.long	.L37
	.long	.L37
	.long	.L37
	.long	.L37
	.long	.L37
	.long	.L37
	.long	.L37
	.long	.L37
	.long	.L37
	.long	.L37
	.long	.L37
	.long	.L37
	.long	.L37
	.long	.L37
	.long	.L37
	.long	.L51
	.long	.L37
	.long	.L37
	.long	.L37
	.long	.L37
	.long	.L37
	.long	.L37
	.long	.L37
	.long	.L37
	.long	.L37
	.long	.L37
	.long	.L37
	.long	.L37
	.long	.L37
	.long	.L37
	.long	.L37
	.long	.L49
	.long	.L37
	.long	.L37
	.long	.L37
	.long	.L37
	.long	.L37
	.long	.L37
	.long	.L37
	.long	.L37
	.long	.L37
	.long	.L37
	.long	.L37
	.long	.L37
	.long	.L37
	.long	.L37
	.long	.L37
	.long	.L51
	.text
	.p2align 4,,7
	.p2align 3
.L46:
	andl	$16777200, %eax
	sall	$8, %eax
.L38:
	addl	$4, %esp
	.cfi_remember_state
	.cfi_def_cfa_offset 12
	popl	%ebx
	.cfi_restore 3
	.cfi_def_cfa_offset 8
	popl	%esi
	.cfi_restore 6
	.cfi_def_cfa_offset 4
	ret
	.p2align 4,,7
	.p2align 3
.L45:
	.cfi_restore_state
	addl	$4, %esp
	.cfi_remember_state
	.cfi_def_cfa_offset 12
	andl	$-16, %eax
	popl	%ebx
	.cfi_restore 3
	.cfi_def_cfa_offset 8
	popl	%esi
	.cfi_restore 6
	.cfi_def_cfa_offset 4
	ret
	.p2align 4,,7
	.p2align 3
.L51:
	.cfi_restore_state
	xorl	%eax, %eax
	jmp	.L38
	.p2align 4,,7
	.p2align 3
.L49:
	andl	$16128, %eax
	shrl	$8, %eax
	cmpl	$32, %eax
	je	.L52
	leal	1(%eax), %ecx
	movl	$-1, %eax
	sall	%cl, %eax
	andl	%edx, %eax
	jmp	.L38
	.p2align 4,,7
	.p2align 3
.L48:
	andl	$-1024, %eax
	jmp	.L38
	.p2align 4,,7
	.p2align 3
.L47:
	andl	$2147483632, %eax
	addl	%eax, %eax
	jmp	.L38
	.p2align 4,,7
	.p2align 3
.L37:
	call	halt
	.p2align 4,,7
	.p2align 3
.L52:
	movl	$-16, %eax
	andl	%edx, %eax
	jmp	.L38
	.cfi_endproc
.LFE229:
	.size	cap_get_capPtr, .-cap_get_capPtr
	.p2align 4,,15
	.type	cap_get_capSizeBits, @function
cap_get_capSizeBits:
.LFB228:
	.cfi_startproc
	pushl	%esi
	.cfi_def_cfa_offset 8
	.cfi_offset 6, -8
	movl	%eax, %esi
	pushl	%ebx
	.cfi_def_cfa_offset 12
	.cfi_offset 3, -12
	andl	$14, %esi
	movl	%eax, %ecx
	subl	$4, %esp
	.cfi_def_cfa_offset 16
	andl	$15, %ecx
	movzbl	%al, %ebx
	cmpl	$14, %esi
	cmove	%ebx, %ecx
	cmpl	$62, %ecx
	ja	.L57
	jmp	*.L59(,%ecx,4)
	.section	.rodata
	.align 4
	.align 4
.L59:
	.long	.L65
	.long	.L60
	.long	.L61
	.long	.L67
	.long	.L63
	.long	.L67
	.long	.L63
	.long	.L65
	.long	.L65
	.long	.L67
	.long	.L68
	.long	.L65
	.long	.L77
	.long	.L57
	.long	.L65
	.long	.L57
	.long	.L57
	.long	.L57
	.long	.L57
	.long	.L57
	.long	.L57
	.long	.L57
	.long	.L57
	.long	.L57
	.long	.L57
	.long	.L57
	.long	.L57
	.long	.L57
	.long	.L57
	.long	.L57
	.long	.L65
	.long	.L57
	.long	.L57
	.long	.L57
	.long	.L57
	.long	.L57
	.long	.L57
	.long	.L57
	.long	.L57
	.long	.L57
	.long	.L57
	.long	.L57
	.long	.L57
	.long	.L57
	.long	.L57
	.long	.L57
	.long	.L73
	.long	.L57
	.long	.L57
	.long	.L57
	.long	.L57
	.long	.L57
	.long	.L57
	.long	.L57
	.long	.L57
	.long	.L57
	.long	.L57
	.long	.L57
	.long	.L57
	.long	.L57
	.long	.L57
	.long	.L57
	.long	.L65
	.text
	.p2align 4,,7
	.p2align 3
.L65:
	xorl	%eax, %eax
.L70:
	addl	$4, %esp
	.cfi_remember_state
	.cfi_def_cfa_offset 12
	popl	%ebx
	.cfi_restore 3
	.cfi_def_cfa_offset 8
	popl	%esi
	.cfi_restore 6
	.cfi_def_cfa_offset 4
	ret
	.p2align 4,,7
	.p2align 3
.L60:
	.cfi_restore_state
	shrl	$31, %edx
	testl	%edx, %edx
	jne	.L83
	.p2align 4,,7
	.p2align 3
.L67:
	addl	$4, %esp
	.cfi_remember_state
	.cfi_def_cfa_offset 12
	movl	$12, %eax
	popl	%ebx
	.cfi_restore 3
	.cfi_def_cfa_offset 8
	popl	%esi
	.cfi_restore 6
	.cfi_def_cfa_offset 4
	ret
	.p2align 4,,7
	.p2align 3
.L77:
	.cfi_restore_state
	movl	$10, %eax
	jmp	.L70
	.p2align 4,,7
	.p2align 3
.L73:
	andl	$16128, %eax
	movl	%eax, %edx
	movl	$10, %eax
	shrl	$8, %edx
	cmpl	$32, %edx
	je	.L70
	movl	%edx, %eax
	andl	$31, %eax
	addl	$4, %eax
	jmp	.L70
	.p2align 4,,7
	.p2align 3
.L68:
	movl	%edx, %eax
	andl	$260046848, %eax
	shrl	$23, %eax
	addl	$4, %eax
	jmp	.L70
	.p2align 4,,7
	.p2align 3
.L61:
	movl	%edx, %eax
	andl	$31, %eax
	jmp	.L70
	.p2align 4,,7
	.p2align 3
.L63:
	movl	$4, %eax
	jmp	.L70
	.p2align 4,,7
	.p2align 3
.L57:
	call	halt
	.p2align 4,,7
	.p2align 3
.L83:
	cmpl	$1, %edx
	jne	.L57
	movl	$22, %eax
	jmp	.L70
	.cfi_endproc
.LFE228:
	.size	cap_get_capSizeBits, .-cap_get_capSizeBits
	.p2align 4,,15
	.type	switchFpuOwner, @function
switchFpuOwner:
.LFB366:
	.cfi_startproc
	pushl	%ebx
	.cfi_def_cfa_offset 8
	.cfi_offset 3, -8
	movl	%eax, %ebx
	subl	$24, %esp
	.cfi_def_cfa_offset 32
#APP
# 45 "/home/mscapero/Desktop/seL4/seL4test/kernel/include/arch/ia32/arch/machine/fpu.h" 1
	clts
# 0 "" 2
#NO_APP
	movl	ia32KSfpuOwner, %eax
	testl	%eax, %eax
	je	.L85
	addl	$80, %eax
	movl	%eax, (%esp)
	call	saveFpuState
.L85:
	testl	%ebx, %ebx
	je	.L86
	leal	80(%ebx), %eax
	movl	%eax, (%esp)
	call	loadFpuState
	movl	%ebx, ia32KSfpuOwner
	addl	$24, %esp
	.cfi_remember_state
	.cfi_def_cfa_offset 8
	popl	%ebx
	.cfi_restore 3
	.cfi_def_cfa_offset 4
	ret
	.p2align 4,,7
	.p2align 3
.L86:
	.cfi_restore_state
#APP
# 41 "/home/mscapero/Desktop/seL4/seL4test/kernel/include/arch/ia32/arch/machine/cpu_registers.h" 1
	movl %cr0, %eax
# 0 "" 2
#NO_APP
	orl	$8, %eax
#APP
# 47 "/home/mscapero/Desktop/seL4/seL4test/kernel/include/arch/ia32/arch/machine/cpu_registers.h" 1
	movl %eax, %cr0
# 0 "" 2
#NO_APP
	movl	%ebx, ia32KSfpuOwner
	addl	$24, %esp
	.cfi_def_cfa_offset 8
	popl	%ebx
	.cfi_restore 3
	.cfi_def_cfa_offset 4
	ret
	.cfi_endproc
.LFE366:
	.size	switchFpuOwner, .-switchFpuOwner
	.p2align 4,,15
	.type	lookupPTSlot, @function
lookupPTSlot:
.LFB345:
	.cfi_startproc
	pushl	%ebx
	.cfi_def_cfa_offset 8
	.cfi_offset 3, -8
	movl	%ecx, %ebx
	shrl	$22, %ebx
	movl	(%edx,%ebx,4), %edx
	testb	$-128, %dl
	jne	.L93
	testb	$1, %dl
	je	.L93
	shrl	$10, %ecx
	andl	$-4096, %edx
	andl	$4092, %ecx
	leal	-536870912(%edx,%ecx), %ecx
	xorl	%edx, %edx
	movl	%ecx, 4(%eax)
	movl	%edx, (%eax)
	popl	%ebx
	.cfi_remember_state
	.cfi_restore 3
	.cfi_def_cfa_offset 4
	ret
	.p2align 4,,7
	.p2align 3
.L93:
	.cfi_restore_state
	xorl	%ecx, %ecx
	movl	$2, %edx
	movl	$89, current_lookup_fault
	movl	$0, current_lookup_fault+4
	movl	%ecx, 4(%eax)
	movl	%edx, (%eax)
	popl	%ebx
	.cfi_restore 3
	.cfi_def_cfa_offset 4
	ret
	.cfi_endproc
.LFE345:
	.size	lookupPTSlot, .-lookupPTSlot
	.p2align 4,,15
	.type	findPDForASID, @function
findPDForASID:
.LFB351:
	.cfi_startproc
	movl	%edx, %ecx
	shrl	$10, %ecx
	movl	ia32KSASIDTable(,%ecx,4), %ecx
	testl	%ecx, %ecx
	je	.L100
	andl	$1023, %edx
	movl	(%ecx,%edx,4), %edx
	testl	%edx, %edx
	je	.L100
	movl	$0, (%eax)
	movl	%edx, 4(%eax)
	ret
	.p2align 4,,7
	.p2align 3
.L100:
	movl	$0, current_lookup_fault
	movl	$0, current_lookup_fault+4
	movl	$2, (%eax)
	movl	$0, 4(%eax)
	ret
	.cfi_endproc
.LFE351:
	.size	findPDForASID, .-findPDForASID
	.p2align 4,,15
	.type	parse_opt.constprop.142, @function
parse_opt.constprop.142:
.LFB769:
	.cfi_startproc
	pushl	%edi
	.cfi_def_cfa_offset 8
	.cfi_offset 7, -8
	movl	%eax, %ecx
	pushl	%esi
	.cfi_def_cfa_offset 12
	.cfi_offset 6, -12
	movl	%edx, %esi
	pushl	%ebx
	.cfi_def_cfa_offset 16
	.cfi_offset 3, -16
	movzbl	(%eax), %ebx
	movl	$-1, %eax
	.p2align 4,,7
	.p2align 3
.L105:
	cmpb	$32, %bl
	jg	.L133
	testb	%bl, %bl
	jne	.L110
	popl	%ebx
	.cfi_remember_state
	.cfi_restore 3
	.cfi_def_cfa_offset 12
	popl	%esi
	.cfi_restore 6
	.cfi_def_cfa_offset 8
	popl	%edi
	.cfi_restore 7
	.cfi_def_cfa_offset 4
	ret
	.p2align 4,,7
	.p2align 3
.L133:
	.cfi_restore_state
	movzbl	(%esi), %edx
	testb	%dl, %dl
	.p2align 4,,2
	je	.L107
	cmpb	$61, %bl
	je	.L121
	cmpb	%bl, %dl
	jne	.L121
	movl	%esi, %ebx
	.p2align 4,,4
	jmp	.L113
	.p2align 4,,7
	.p2align 3
.L112:
	movzbl	1(%ecx), %ecx
	cmpb	$61, %cl
	je	.L122
	cmpb	$32, %cl
	jle	.L124
	cmpb	%cl, %dl
	jne	.L124
	movl	%edi, %ecx
.L113:
	addl	$1, %ebx
	movzbl	(%ebx), %edx
	leal	1(%ecx), %edi
	testb	%dl, %dl
	jne	.L112
	movzbl	1(%ecx), %ebx
	movl	%edi, %ecx
.L107:
	cmpb	$61, %bl
	je	.L134
	.p2align 4,,7
	.p2align 3
.L119:
	cmpb	$32, %bl
	jle	.L105
	.p2align 4,,7
	.p2align 3
.L118:
	addl	$1, %ecx
	movzbl	(%ecx), %ebx
	cmpb	$32, %bl
	jg	.L118
	jmp	.L105
	.p2align 4,,7
	.p2align 3
.L110:
	movzbl	1(%ecx), %ebx
	addl	$1, %ecx
	jmp	.L105
	.p2align 4,,7
	.p2align 3
.L124:
	movl	%ecx, %ebx
	movl	%edi, %ecx
	jmp	.L119
	.p2align 4,,7
	.p2align 3
.L122:
	movl	$61, %ebx
	movl	%edi, %ecx
	jmp	.L119
.L134:
	leal	1(%ecx), %edx
	movzbl	1(%ecx), %ecx
	cmpb	$32, %cl
	jle	.L125
	xorl	%eax, %eax
	jmp	.L116
	.p2align 4,,7
	.p2align 3
.L115:
	cmpl	$999, %eax
	je	.L135
.L116:
	addl	$1, %edx
	addl	$1, %eax
	movb	%cl, cmdline_val-1(%eax)
	movzbl	(%edx), %ecx
	cmpb	$32, %cl
	jg	.L115
	leal	cmdline_val(%eax), %ecx
.L114:
	movb	$0, (%ecx)
	movl	%edx, %ecx
	movzbl	(%edx), %ebx
	jmp	.L119
.L135:
	movl	$cmdline_val+999, %ecx
	jmp	.L114
.L121:
	movl	%ecx, %edi
	movl	%edi, %ecx
	jmp	.L119
.L125:
	movl	$cmdline_val, %ecx
	xorl	%eax, %eax
	jmp	.L114
	.cfi_endproc
.LFE769:
	.size	parse_opt.constprop.142, .-parse_opt.constprop.142
	.section	.boot.text,"ax",@progbits
	.p2align 4,,15
	.type	alloc_region.constprop.155, @function
alloc_region.constprop.155:
.LFB756:
	.cfi_startproc
	pushl	%ebp
	.cfi_def_cfa_offset 8
	.cfi_offset 5, -8
	pushl	%edi
	.cfi_def_cfa_offset 12
	.cfi_offset 7, -12
	pushl	%esi
	.cfi_def_cfa_offset 16
	.cfi_offset 6, -16
	pushl	%ebx
	.cfi_def_cfa_offset 20
	.cfi_offset 3, -20
	subl	$32, %esp
	.cfi_def_cfa_offset 52
	movl	ndks_boot, %ecx
	movl	ndks_boot+4, %ebx
	leal	-1(%ecx), %eax
	andl	$-4096, %eax
	movl	%ebx, %esi
	leal	4096(%eax), %edx
	movl	%ebx, %eax
	andl	$-4096, %eax
	movl	%edx, %edi
	subl	%ecx, %edi
	subl	%eax, %esi
	cmpl	%esi, %edi
	jb	.L137
	leal	-4096(%eax), %edx
.L138:
	cmpl	%eax, %edx
	jae	.L152
	cmpl	%ecx, %edx
	jae	.L168
.L152:
	xorl	%ebx, %ebx
	xorl	%ecx, %ecx
	movl	$0, 12(%esp)
	xorl	%eax, %eax
	xorl	%edx, %edx
	movl	$0, 8(%esp)
.L139:
	movl	ndks_boot+8, %esi
	movl	ndks_boot+12, %edi
	movl	%esi, 4(%esp)
	subl	$1, %esi
	andl	$-4096, %esi
	movl	%edi, %ebp
	andl	$-4096, %ebp
	addl	$4096, %esi
	movl	%ebp, (%esp)
	movl	%esi, %ebp
	movl	%edi, 16(%esp)
	subl	4(%esp), %ebp
	subl	(%esp), %edi
	cmpl	%edi, %ebp
	jae	.L141
	leal	4096(%esi), %edi
	movl	%edi, (%esp)
.L142:
	cmpl	%esi, (%esp)
	jbe	.L156
	cmpl	%esi, 4(%esp)
	jbe	.L169
.L156:
	xorl	%edi, %edi
.L143:
	cmpl	%eax, %edx
	je	.L162
.L145:
	cmpl	%ebx, 12(%esp)
	movl	$0, ndks_boot(,%edi,8)
	movl	$0, ndks_boot+4(,%edi,8)
	je	.L147
	movl	ndks_boot+4, %eax
	cmpl	%eax, ndks_boot
	je	.L163
	movl	ndks_boot+12, %eax
	cmpl	%eax, ndks_boot+8
	je	.L170
.L147:
	cmpl	8(%esp), %ecx
	movl	%edx, %eax
	je	.L146
	movl	ndks_boot+4, %eax
	cmpl	%eax, ndks_boot
	je	.L165
	movl	ndks_boot+12, %ebx
	movl	%edx, %eax
	cmpl	%ebx, ndks_boot+8
	je	.L171
.L146:
	addl	$32, %esp
	.cfi_remember_state
	.cfi_def_cfa_offset 20
	popl	%ebx
	.cfi_restore 3
	.cfi_def_cfa_offset 16
	popl	%esi
	.cfi_restore 6
	.cfi_def_cfa_offset 12
	popl	%edi
	.cfi_restore 7
	.cfi_def_cfa_offset 8
	popl	%ebp
	.cfi_restore 5
	.cfi_def_cfa_offset 4
	ret
	.p2align 4,,7
	.p2align 3
.L141:
	.cfi_restore_state
	movl	(%esp), %esi
	subl	$4096, %esi
	jmp	.L142
	.p2align 4,,7
	.p2align 3
.L137:
	leal	4096(%edx), %eax
	jmp	.L138
	.p2align 4,,7
	.p2align 3
.L169:
	movl	(%esp), %edi
	cmpl	%edi, 16(%esp)
	jb	.L156
	movl	%esi, %edi
	subl	4(%esp), %edi
	movl	%edi, %ebp
	movl	%edi, 20(%esp)
	movl	16(%esp), %edi
	subl	(%esp), %edi
	cmpl	%edi, %ebp
	jb	.L157
	movl	%eax, %ebp
	movl	20(%esp), %eax
	movl	%eax, 28(%esp)
	movl	4(%esp), %eax
	movl	%eax, 24(%esp)
	movl	16(%esp), %eax
	movl	%esi, 16(%esp)
	movl	%eax, 20(%esp)
	movl	(%esp), %eax
	movl	%eax, 4(%esp)
	movl	%ebp, %eax
.L144:
	cmpl	%eax, %edx
	je	.L159
	movl	8(%esp), %eax
	subl	%ecx, %eax
	cmpl	%edi, %eax
	ja	.L159
	movl	$0, %edi
	jne	.L145
	movl	%ebx, %eax
	subl	12(%esp), %eax
	cmpl	28(%esp), %eax
	jbe	.L145
	movl	24(%esp), %eax
	movl	%esi, %edx
	movw	$1, %di
	movl	16(%esp), %ebx
	movl	4(%esp), %ecx
	movl	%eax, 12(%esp)
	movl	20(%esp), %eax
	movl	%eax, 8(%esp)
	movl	(%esp), %eax
	jmp	.L143
	.p2align 4,,7
	.p2align 3
.L168:
	cmpl	%eax, %ebx
	jb	.L152
	movl	%edx, %edi
	movl	%ebx, %esi
	subl	%ecx, %edi
	subl	%eax, %esi
	cmpl	%esi, %edi
	jb	.L153
	movl	%ecx, 12(%esp)
	movl	%eax, %ecx
	movl	%ebx, 8(%esp)
	movl	%edx, %ebx
	jmp	.L139
	.p2align 4,,7
	.p2align 3
.L159:
	movl	24(%esp), %eax
	movl	%esi, %edx
	movl	$1, %edi
	movl	16(%esp), %ebx
	movl	4(%esp), %ecx
	movl	%eax, 12(%esp)
	movl	20(%esp), %eax
	movl	%eax, 8(%esp)
	movl	(%esp), %eax
	jmp	.L143
	.p2align 4,,7
	.p2align 3
.L162:
	addl	$32, %esp
	.cfi_remember_state
	.cfi_def_cfa_offset 20
	xorl	%eax, %eax
	popl	%ebx
	.cfi_restore 3
	.cfi_def_cfa_offset 16
	popl	%esi
	.cfi_restore 6
	.cfi_def_cfa_offset 12
	popl	%edi
	.cfi_restore 7
	.cfi_def_cfa_offset 8
	popl	%ebp
	.cfi_restore 5
	.cfi_def_cfa_offset 4
	ret
	.p2align 4,,7
	.p2align 3
.L153:
	.cfi_restore_state
	movl	%eax, 12(%esp)
	movl	%edx, 8(%esp)
	jmp	.L139
	.p2align 4,,7
	.p2align 3
.L157:
	movl	(%esp), %ebp
	movl	%edi, 28(%esp)
	movl	20(%esp), %edi
	movl	%esi, 20(%esp)
	movl	%ebp, 24(%esp)
	jmp	.L144
	.p2align 4,,7
	.p2align 3
.L165:
	movl	$ndks_boot, %eax
.L149:
	movl	%ecx, (%eax)
	movl	8(%esp), %ecx
	movl	%ecx, 4(%eax)
	movl	%edx, %eax
	jmp	.L146
	.p2align 4,,7
	.p2align 3
.L163:
	movl	$ndks_boot, %eax
.L148:
	movl	12(%esp), %esi
	movl	%ebx, 4(%eax)
	movl	%esi, (%eax)
	jmp	.L147
	.p2align 4,,7
	.p2align 3
.L171:
	movl	$ndks_boot+8, %eax
	jmp	.L149
	.p2align 4,,7
	.p2align 3
.L170:
	movl	$ndks_boot+8, %eax
	jmp	.L148
	.cfi_endproc
.LFE756:
	.size	alloc_region.constprop.155, .-alloc_region.constprop.155
	.text
	.p2align 4,,15
	.type	pic_mask_irq.constprop.171, @function
pic_mask_irq.constprop.171:
.LFB742:
	.cfi_startproc
	pushl	%esi
	.cfi_def_cfa_offset 8
	.cfi_offset 6, -8
	pushl	%ebx
	.cfi_def_cfa_offset 12
	.cfi_offset 3, -12
	subl	$20, %esp
	.cfi_def_cfa_offset 32
	cmpl	$7, %eax
	jg	.L173
	movl	$1, %esi
	movl	%eax, %ecx
	sall	%cl, %esi
	movl	$33, %ebx
.L174:
	movl	%ebx, (%esp)
	call	in8
	movl	%ebx, (%esp)
	orl	%esi, %eax
	movzbl	%al, %eax
	movl	%eax, 4(%esp)
	call	out8
	addl	$20, %esp
	.cfi_remember_state
	.cfi_def_cfa_offset 12
	popl	%ebx
	.cfi_restore 3
	.cfi_def_cfa_offset 8
	popl	%esi
	.cfi_restore 6
	.cfi_def_cfa_offset 4
	ret
	.p2align 4,,7
	.p2align 3
.L173:
	.cfi_restore_state
	leal	-8(%eax), %ecx
	movl	$1, %edx
	sall	%cl, %edx
	movl	$161, %ebx
	movl	%edx, %esi
	jmp	.L174
	.cfi_endproc
.LFE742:
	.size	pic_mask_irq.constprop.171, .-pic_mask_irq.constprop.171
	.section	.text.unlikely,"ax",@progbits
	.type	makeUserPDE, @function
makeUserPDE:
.LFB341:
	.cfi_startproc
	pushl	%edi
	.cfi_def_cfa_offset 8
	.cfi_offset 7, -8
	pushl	%esi
	.cfi_def_cfa_offset 12
	.cfi_offset 6, -12
	pushl	%ebx
	.cfi_def_cfa_offset 16
	.cfi_offset 3, -16
	movl	16(%esp), %ebx
	cmpl	$2, %ebx
	je	.L181
	cmpl	$3, %ebx
	je	.L179
	cmpl	$1, %ebx
	je	.L179
	call	halt
.L179:
	subl	$2, %ebx
	cmpl	$1, %ebx
	ja	.L183
	movl	$1, %esi
	jmp	.L178
.L181:
	xorl	%esi, %esi
.L178:
	movl	$1, %edi
	jmp	.L180
.L183:
	movl	$1, %esi
	xorl	%edi, %edi
.L180:
	movl	%ecx, %ebx
	andl	$-4194304, %edx
	andl	$1, %ebx
	addl	%esi, %esi
	sall	$3, %ebx
	orb	$-127, %bl
	orl	%edx, %ebx
	movl	%ecx, %edx
	andl	$4, %edx
	andl	$2, %ecx
	shrl	$2, %edx
	sall	$12, %edx
	shrl	%ecx
	orl	%edx, %ebx
	sall	$4, %ecx
	sall	$2, %edi
	orl	%ecx, %ebx
	orl	%edi, %ebx
	orl	%esi, %ebx
	movl	%ebx, (%eax)
	popl	%ebx
	.cfi_restore 3
	.cfi_def_cfa_offset 12
	popl	%esi
	.cfi_restore 6
	.cfi_def_cfa_offset 8
	popl	%edi
	.cfi_restore 7
	.cfi_def_cfa_offset 4
	ret
	.cfi_endproc
.LFE341:
	.size	makeUserPDE, .-makeUserPDE
	.type	makeUserPTE, @function
makeUserPTE:
.LFB342:
	.cfi_startproc
	pushl	%edi
	.cfi_def_cfa_offset 8
	.cfi_offset 7, -8
	pushl	%esi
	.cfi_def_cfa_offset 12
	.cfi_offset 6, -12
	pushl	%ebx
	.cfi_def_cfa_offset 16
	.cfi_offset 3, -16
	movl	16(%esp), %ebx
	cmpl	$2, %ebx
	je	.L197
	cmpl	$3, %ebx
	je	.L195
	cmpl	$1, %ebx
	je	.L195
	call	halt
.L195:
	subl	$2, %ebx
	cmpl	$1, %ebx
	ja	.L199
	movl	$1, %esi
	jmp	.L194
.L197:
	xorl	%esi, %esi
.L194:
	movl	$1, %edi
	jmp	.L196
.L199:
	movl	$1, %esi
	xorl	%edi, %edi
.L196:
	movl	%ecx, %ebx
	andl	$-4096, %edx
	andl	$1, %ebx
	addl	%esi, %esi
	sall	$3, %ebx
	orl	$1, %ebx
	orl	%edx, %ebx
	movl	%ecx, %edx
	andl	$4, %edx
	andl	$2, %ecx
	shrl	$2, %edx
	sall	$7, %edx
	shrl	%ecx
	orl	%edx, %ebx
	sall	$4, %ecx
	sall	$2, %edi
	orl	%ecx, %ebx
	orl	%edi, %ebx
	orl	%esi, %ebx
	movl	%ebx, (%eax)
	popl	%ebx
	.cfi_restore 3
	.cfi_def_cfa_offset 12
	popl	%esi
	.cfi_restore 6
	.cfi_def_cfa_offset 8
	popl	%edi
	.cfi_restore 7
	.cfi_def_cfa_offset 4
	ret
	.cfi_endproc
.LFE342:
	.size	makeUserPTE, .-makeUserPTE
	.text
	.p2align 4,,15
	.type	resetMemMapping, @function
resetMemMapping:
.LFB384:
	.cfi_startproc
	pushl	%edi
	.cfi_def_cfa_offset 8
	.cfi_offset 7, -8
	movl	%edx, %edi
	pushl	%esi
	.cfi_def_cfa_offset 12
	.cfi_offset 6, -12
	andl	$14, %edi
	pushl	%ebx
	.cfi_def_cfa_offset 16
	.cfi_offset 3, -16
	movl	%edx, %ebx
	andl	$15, %ebx
	movzbl	%dl, %esi
	cmpl	$14, %edi
	cmove	%esi, %ebx
	cmpl	$3, %ebx
	je	.L212
	cmpl	$5, %ebx
	je	.L213
	cmpl	$1, %ebx
	je	.L218
	popl	%ebx
	.cfi_remember_state
	.cfi_restore 3
	.cfi_def_cfa_offset 12
	popl	%esi
	.cfi_restore 6
	.cfi_def_cfa_offset 8
	movl	%edx, (%eax)
	movl	%ecx, 4(%eax)
	popl	%edi
	.cfi_restore 7
	.cfi_def_cfa_offset 4
	ret
	.p2align 4,,7
	.p2align 3
.L218:
	.cfi_restore_state
	andl	$67108863, %edx
	andl	$-1072693249, %ecx
	popl	%ebx
	.cfi_remember_state
	.cfi_restore 3
	.cfi_def_cfa_offset 12
	movl	%edx, (%eax)
	popl	%esi
	.cfi_restore 6
	.cfi_def_cfa_offset 8
	movl	%ecx, 4(%eax)
	popl	%edi
	.cfi_restore 7
	.cfi_def_cfa_offset 4
	ret
	.p2align 4,,7
	.p2align 3
.L213:
	.cfi_restore_state
	andl	$-65537, %ecx
	popl	%ebx
	.cfi_remember_state
	.cfi_restore 3
	.cfi_def_cfa_offset 12
	movl	%edx, (%eax)
	popl	%esi
	.cfi_restore 6
	.cfi_def_cfa_offset 8
	movl	%ecx, 4(%eax)
	popl	%edi
	.cfi_restore 7
	.cfi_def_cfa_offset 4
	ret
	.p2align 4,,7
	.p2align 3
.L212:
	.cfi_restore_state
	andl	$-67108865, %ecx
	popl	%ebx
	.cfi_restore 3
	.cfi_def_cfa_offset 12
	movl	%edx, (%eax)
	popl	%esi
	.cfi_restore 6
	.cfi_def_cfa_offset 8
	movl	%ecx, 4(%eax)
	popl	%edi
	.cfi_restore 7
	.cfi_def_cfa_offset 4
	ret
	.cfi_endproc
.LFE384:
	.size	resetMemMapping, .-resetMemMapping
	.section	.boot.text
	.p2align 4,,15
	.type	pci_scan_bars, @function
pci_scan_bars:
.LFB576:
	.cfi_startproc
	pushl	%ebp
	.cfi_def_cfa_offset 8
	.cfi_offset 5, -8
	pushl	%edi
	.cfi_def_cfa_offset 12
	.cfi_offset 7, -12
	pushl	%esi
	.cfi_def_cfa_offset 16
	.cfi_offset 6, -16
	pushl	%ebx
	.cfi_def_cfa_offset 20
	.cfi_offset 3, -20
	subl	$44, %esp
	.cfi_def_cfa_offset 64
	movzbl	64(%esp), %edi
	testl	%edi, %edi
	movl	%edi, 24(%esp)
	je	.L219
	sall	$16, %eax
	xorl	%esi, %esi
	movl	%eax, 20(%esp)
	sall	$11, %edx
	orl	$-2147483648, 20(%esp)
	orl	%edx, 20(%esp)
	sall	$8, %ecx
	orl	%ecx, 20(%esp)
	.p2align 4,,7
	.p2align 3
.L229:
	leal	0(,%esi,4), %ebp
	leal	16(%ebp), %ebx
	movzbl	%bl, %ebx
	orl	20(%esp), %ebx
	movl	$3320, (%esp)
	movl	%ebx, 4(%esp)
	call	out32
	movl	$3324, (%esp)
	call	in32
	movl	%ebx, 4(%esp)
	movl	$3320, (%esp)
	movl	%eax, 16(%esp)
	call	out32
	movl	$-1, 4(%esp)
	movl	$3324, (%esp)
	call	out32
	movl	%ebx, 4(%esp)
	movl	$3320, (%esp)
	call	out32
	movl	$3324, (%esp)
	call	in32
	testl	%eax, %eax
	je	.L221
	testb	$1, %al
	jne	.L222
	movl	%eax, %edi
	movl	$4096, %edx
	andl	$-16, %edi
	negl	%edi
	cmpl	$4095, %edi
	cmovbe	%edx, %edi
	testl	$4080, 16(%esp)
	jne	.L222
	xorl	%ecx, %ecx
	.p2align 4,,7
	.p2align 3
.L225:
	addl	$1, %ecx
	btl	%ecx, %edi
	jnc	.L225
	movl	$1, %edx
	sall	%cl, %edx
	cmpl	%edi, %edx
	je	.L235
	.p2align 4,,7
	.p2align 3
.L222:
	movl	%ebx, 4(%esp)
	movl	$3320, (%esp)
	call	out32
	movl	16(%esp), %eax
	movl	$3324, (%esp)
	movl	%eax, 4(%esp)
	call	out32
.L221:
	addl	$1, %esi
	cmpl	24(%esp), %esi
	jb	.L229
.L219:
	addl	$44, %esp
	.cfi_remember_state
	.cfi_def_cfa_offset 20
	popl	%ebx
	.cfi_restore 3
	.cfi_def_cfa_offset 16
	popl	%esi
	.cfi_restore 6
	.cfi_def_cfa_offset 12
	popl	%edi
	.cfi_restore 7
	.cfi_def_cfa_offset 8
	popl	%ebp
	.cfi_restore 5
	.cfi_def_cfa_offset 4
	ret
	.p2align 4,,7
	.p2align 3
.L235:
	.cfi_restore_state
	movl	16(%esp), %ecx
	andl	$-16, %ecx
	testb	$4, %al
	jne	.L236
	movl	glks+188, %edx
	cmpl	$198, %edx
	ja	.L222
	leal	glks+176(,%edx,8), %eax
	addl	%ecx, %edi
	addl	$1, %edx
	movl	%ecx, 16(%eax)
	movl	%edi, 20(%eax)
	movl	%edx, glks+188
	jmp	.L222
.L236:
	leal	20(%ebp), %eax
	movzbl	%al, %eax
	orl	20(%esp), %eax
	movl	$3320, (%esp)
	movl	%ecx, 28(%esp)
	movl	%eax, 4(%esp)
	call	out32
	movl	$3324, (%esp)
	call	in32
	movl	28(%esp), %ecx
	testl	%eax, %eax
	jne	.L227
	movl	glks+188, %eax
	cmpl	$198, %eax
	ja	.L227
	leal	glks+176(,%eax,8), %edx
	addl	$1, %eax
	movl	%ecx, 16(%edx)
	addl	%edi, %ecx
	movl	%ecx, 20(%edx)
	movl	%eax, glks+188
.L227:
	addl	$1, %esi
	jmp	.L222
	.cfi_endproc
.LFE576:
	.size	pci_scan_bars, .-pci_scan_bars
	.p2align 4,,15
	.type	pci_scan_fun, @function
pci_scan_fun:
.LFB577:
	.cfi_startproc
	pushl	%ebp
	.cfi_def_cfa_offset 8
	.cfi_offset 5, -8
	movzbl	%cl, %ebp
	pushl	%edi
	.cfi_def_cfa_offset 12
	.cfi_offset 7, -12
	movzbl	%dl, %edi
	pushl	%esi
	.cfi_def_cfa_offset 16
	.cfi_offset 6, -16
	movzbl	%al, %esi
	pushl	%ebx
	.cfi_def_cfa_offset 20
	.cfi_offset 3, -20
	movl	%esi, %eax
	movl	%edi, %ebx
	subl	$28, %esp
	.cfi_def_cfa_offset 48
	sall	$16, %eax
	sall	$11, %ebx
	orl	%eax, %ebx
	movl	%ebp, %eax
	sall	$8, %eax
	orl	%eax, %ebx
	movl	%ebx, %edx
	orl	$-2147483648, %edx
	movl	%edx, 4(%esp)
	movl	$3320, (%esp)
	movl	%edx, 12(%esp)
	call	out32
	movl	$3324, (%esp)
	call	in32
	cmpw	$-1, %ax
	je	.L242
	movl	12(%esp), %edx
	orl	$-2147483636, %ebx
	movl	$3320, (%esp)
	movl	%edx, 4(%esp)
	call	out32
	movl	$3324, (%esp)
	call	in32
	movl	%ebx, 4(%esp)
	movl	$3320, (%esp)
	call	out32
	movl	$3324, (%esp)
	call	in32
	shrl	$16, %eax
	andl	$127, %eax
	cmpb	$1, %al
	je	.L239
	jb	.L240
	cmpb	$2, %al
	jne	.L247
	movl	$1, (%esp)
.L246:
	movl	%esi, %eax
	movl	%ebp, %ecx
	movl	%edi, %edx
	call	pci_scan_bars
	addl	$28, %esp
	.cfi_remember_state
	.cfi_def_cfa_offset 20
	movl	$1, %eax
	popl	%ebx
	.cfi_restore 3
	.cfi_def_cfa_offset 16
	popl	%esi
	.cfi_restore 6
	.cfi_def_cfa_offset 12
	popl	%edi
	.cfi_restore 7
	.cfi_def_cfa_offset 8
	popl	%ebp
	.cfi_restore 5
	.cfi_def_cfa_offset 4
	ret
	.p2align 4,,7
	.p2align 3
.L242:
	.cfi_restore_state
	addl	$28, %esp
	.cfi_remember_state
	.cfi_def_cfa_offset 20
	xorl	%eax, %eax
	popl	%ebx
	.cfi_restore 3
	.cfi_def_cfa_offset 16
	popl	%esi
	.cfi_restore 6
	.cfi_def_cfa_offset 12
	popl	%edi
	.cfi_restore 7
	.cfi_def_cfa_offset 8
	popl	%ebp
	.cfi_restore 5
	.cfi_def_cfa_offset 4
	ret
	.p2align 4,,7
	.p2align 3
.L247:
	.cfi_restore_state
	addl	$28, %esp
	.cfi_remember_state
	.cfi_def_cfa_offset 20
	movl	$1, %eax
	popl	%ebx
	.cfi_restore 3
	.cfi_def_cfa_offset 16
	popl	%esi
	.cfi_restore 6
	.cfi_def_cfa_offset 12
	popl	%edi
	.cfi_restore 7
	.cfi_def_cfa_offset 8
	popl	%ebp
	.cfi_restore 5
	.cfi_def_cfa_offset 4
	ret
	.p2align 4,,7
	.p2align 3
.L239:
	.cfi_restore_state
	movl	$2, (%esp)
	jmp	.L246
	.p2align 4,,7
	.p2align 3
.L240:
	movl	$6, (%esp)
	jmp	.L246
	.cfi_endproc
.LFE577:
	.size	pci_scan_fun, .-pci_scan_fun
	.p2align 4,,15
	.type	pci_scan_fun.constprop.145, @function
pci_scan_fun.constprop.145:
.LFB766:
	.cfi_startproc
	pushl	%ebp
	.cfi_def_cfa_offset 8
	.cfi_offset 5, -8
	movzbl	%dl, %ebp
	pushl	%edi
	.cfi_def_cfa_offset 12
	.cfi_offset 7, -12
	movzbl	%al, %edi
	pushl	%esi
	.cfi_def_cfa_offset 16
	.cfi_offset 6, -16
	movl	%edi, %eax
	pushl	%ebx
	.cfi_def_cfa_offset 20
	.cfi_offset 3, -20
	movl	%ebp, %ebx
	sall	$16, %eax
	subl	$28, %esp
	.cfi_def_cfa_offset 48
	sall	$11, %ebx
	orl	%eax, %ebx
	movl	%ebx, %esi
	orl	$-2147483648, %esi
	movl	%esi, 4(%esp)
	movl	$3320, (%esp)
	call	out32
	movl	$3324, (%esp)
	call	in32
	cmpw	$-1, %ax
	je	.L253
	movl	%esi, 4(%esp)
	orl	$-2147483636, %ebx
	movl	$3320, (%esp)
	call	out32
	movl	$3324, (%esp)
	call	in32
	movl	%ebx, 4(%esp)
	movl	$3320, (%esp)
	call	out32
	movl	$3324, (%esp)
	call	in32
	shrl	$16, %eax
	andl	$127, %eax
	cmpb	$1, %al
	je	.L250
	jb	.L251
	cmpb	$2, %al
	jne	.L258
	movl	$1, (%esp)
.L257:
	movl	%edi, %eax
	movl	%ebp, %edx
	xorl	%ecx, %ecx
	call	pci_scan_bars
	addl	$28, %esp
	.cfi_remember_state
	.cfi_def_cfa_offset 20
	movl	$1, %eax
	popl	%ebx
	.cfi_restore 3
	.cfi_def_cfa_offset 16
	popl	%esi
	.cfi_restore 6
	.cfi_def_cfa_offset 12
	popl	%edi
	.cfi_restore 7
	.cfi_def_cfa_offset 8
	popl	%ebp
	.cfi_restore 5
	.cfi_def_cfa_offset 4
	ret
	.p2align 4,,7
	.p2align 3
.L253:
	.cfi_restore_state
	addl	$28, %esp
	.cfi_remember_state
	.cfi_def_cfa_offset 20
	xorl	%eax, %eax
	popl	%ebx
	.cfi_restore 3
	.cfi_def_cfa_offset 16
	popl	%esi
	.cfi_restore 6
	.cfi_def_cfa_offset 12
	popl	%edi
	.cfi_restore 7
	.cfi_def_cfa_offset 8
	popl	%ebp
	.cfi_restore 5
	.cfi_def_cfa_offset 4
	ret
	.p2align 4,,7
	.p2align 3
.L258:
	.cfi_restore_state
	addl	$28, %esp
	.cfi_remember_state
	.cfi_def_cfa_offset 20
	movl	$1, %eax
	popl	%ebx
	.cfi_restore 3
	.cfi_def_cfa_offset 16
	popl	%esi
	.cfi_restore 6
	.cfi_def_cfa_offset 12
	popl	%edi
	.cfi_restore 7
	.cfi_def_cfa_offset 8
	popl	%ebp
	.cfi_restore 5
	.cfi_def_cfa_offset 4
	ret
	.p2align 4,,7
	.p2align 3
.L250:
	.cfi_restore_state
	movl	$2, (%esp)
	jmp	.L257
	.p2align 4,,7
	.p2align 3
.L251:
	movl	$6, (%esp)
	jmp	.L257
	.cfi_endproc
.LFE766:
	.size	pci_scan_fun.constprop.145, .-pci_scan_fun.constprop.145
	.text
	.p2align 4,,15
	.globl	restore_user_context
	.type	restore_user_context, @function
restore_user_context:
.LFB261:
	.cfi_startproc
	movl	ksCurThread, %eax
	leal	76(%eax), %edx
	movl	%edx, ia32KStss+4
	movl	ia32KSfpuOwner, %edx
	cmpl	%edx, %eax
	je	.L267
	testl	%edx, %edx
	jne	.L268
.L261:
	cmpl	$-1, 52(%eax)
	jne	.L262
	andl	$-513, 64(%eax)
#APP
# 37 "/home/mscapero/Desktop/seL4/seL4test/kernel/src/arch/ia32/c_traps.c" 1
	movl %eax, %esp
popl %eax
popl %ebx
addl $8, %esp
popl %esi
popl %edi
popl %ebp
cmpl $0x23, (%esp)
je 1f
popl %ds
jmp 2f
1: addl $4, %esp
2:
cmpl $0x23, (%esp)
je 1f
popl %es
jmp 2f
1: addl $4, %esp
2:
popl %fs
popl %gs
addl $12, %esp
popl %edx
addl $4,  %esp
popfl
orl $0x200, -4(%esp)
pop %ecx
sti
sysexit

# 0 "" 2
#NO_APP
.L264:
.L263:
	jmp	.L263
.L262:
#APP
# 89 "/home/mscapero/Desktop/seL4/seL4test/kernel/src/arch/ia32/c_traps.c" 1
	movl %eax, %esp
popl %eax
popl %ebx
popl %ecx
popl %edx
popl %esi
popl %edi
popl %ebp
popl %ds
popl %es
popl %fs
popl %gs
addl $12, %esp
iret

# 0 "" 2
#NO_APP
	jmp	.L264
.L268:
#APP
# 41 "/home/mscapero/Desktop/seL4/seL4test/kernel/include/arch/ia32/arch/machine/cpu_registers.h" 1
	movl %cr0, %edx
# 0 "" 2
#NO_APP
	orl	$8, %edx
#APP
# 47 "/home/mscapero/Desktop/seL4/seL4test/kernel/include/arch/ia32/arch/machine/cpu_registers.h" 1
	movl %edx, %cr0
# 0 "" 2
#NO_APP
	jmp	.L261
.L267:
#APP
# 45 "/home/mscapero/Desktop/seL4/seL4test/kernel/include/arch/ia32/arch/machine/fpu.h" 1
	clts
# 0 "" 2
#NO_APP
	.p2align 4,,8
	jmp	.L261
	.cfi_endproc
.LFE261:
	.size	restore_user_context, .-restore_user_context
	.section	.boot.text
	.p2align 4,,15
	.globl	apic_get_base_paddr
	.type	apic_get_base_paddr, @function
apic_get_base_paddr:
.LFB287:
	.cfi_startproc
	subl	$28, %esp
	.cfi_def_cfa_offset 32
	movl	$27, (%esp)
	call	ia32_rdmsr_low
	addl	$28, %esp
	.cfi_def_cfa_offset 4
	andl	$-4096, %eax
	ret
	.cfi_endproc
.LFE287:
	.size	apic_get_base_paddr, .-apic_get_base_paddr
	.p2align 4,,15
	.globl	apic_init
	.type	apic_init, @function
apic_init:
.LFB288:
	.cfi_startproc
	movl	-65488, %ecx
	xorl	%eax, %eax
	movzbl	%cl, %edx
	shrl	$4, %edx
	cmpl	$1, %edx
	je	.L275
.L272:
	rep ret
	.p2align 4,,7
	.p2align 3
.L275:
	andl	$16711680, %ecx
	shrl	$16, %ecx
	addl	$1, %ecx
	cmpl	$2, %ecx
	jbe	.L272
	movl	$11, -64544
	movl	4(%esp), %eax
	leal	(%eax,%eax,4), %eax
	addl	%eax, %eax
	movl	%eax, -64640
	movl	$511, -65296
	movl	8(%esp), %eax
	andl	$1, %eax
	sall	$16, %eax
	orb	$7, %ah
	movl	%eax, -64688
	movl	$1, %eax
	movl	$65536, -64672
	movl	$131135, -64736
	ret
	.cfi_endproc
.LFE288:
	.size	apic_init, .-apic_init
	.text
	.p2align 4,,15
	.globl	apic_is_interrupt_pending
	.type	apic_is_interrupt_pending, @function
apic_is_interrupt_pending:
.LFB289:
	.cfi_startproc
	movl	-65008, %eax
	testl	%eax, %eax
	setne	%al
	movzbl	%al, %eax
	ret
	.cfi_endproc
.LFE289:
	.size	apic_is_interrupt_pending, .-apic_is_interrupt_pending
	.p2align 4,,15
	.globl	apic_ack_active_interrupt
	.type	apic_ack_active_interrupt, @function
apic_ack_active_interrupt:
.LFB290:
	.cfi_startproc
	movl	$0, -65360
	ret
	.cfi_endproc
.LFE290:
	.size	apic_ack_active_interrupt, .-apic_ack_active_interrupt
	.section	.boot.text
	.p2align 4,,15
	.globl	apic_send_init_ipi
	.type	apic_send_init_ipi, @function
apic_send_init_ipi:
.LFB291:
	.cfi_startproc
	movl	4(%esp), %eax
	sall	$24, %eax
	movl	%eax, -64752
	movl	$50432, -64768
	movl	%eax, -64752
	movl	$34048, -64768
	ret
	.cfi_endproc
.LFE291:
	.size	apic_send_init_ipi, .-apic_send_init_ipi
	.p2align 4,,15
	.globl	apic_send_startup_ipi
	.type	apic_send_startup_ipi, @function
apic_send_startup_ipi:
.LFB292:
	.cfi_startproc
	movl	8(%esp), %eax
	movl	4(%esp), %edx
	shrl	$12, %eax
	movzbl	%al, %eax
	sall	$24, %edx
	orb	$6, %ah
	movl	%edx, -64752
	movl	%eax, -64768
	ret
	.cfi_endproc
.LFE292:
	.size	apic_send_startup_ipi, .-apic_send_startup_ipi
	.p2align 4,,15
	.globl	create_unmapped_it_frame_cap
	.type	create_unmapped_it_frame_cap, @function
create_unmapped_it_frame_cap:
.LFB296:
	.cfi_startproc
	movl	8(%esp), %edx
	movl	4(%esp), %eax
	movl	12(%esp), %ecx
	andl	$-4096, %edx
	shrl	$8, %edx
	orl	$50331649, %edx
	movl	%edx, (%eax)
	xorl	%edx, %edx
	testl	%ecx, %ecx
	setne	%dl
	sall	$31, %edx
	movl	%edx, 4(%eax)
	ret	$4
	.cfi_endproc
.LFE296:
	.size	create_unmapped_it_frame_cap, .-create_unmapped_it_frame_cap
	.p2align 4,,15
	.globl	create_mapped_it_frame_cap
	.type	create_mapped_it_frame_cap, @function
create_mapped_it_frame_cap:
.LFB297:
	.cfi_startproc
	pushl	%ebp
	.cfi_def_cfa_offset 8
	.cfi_offset 5, -8
	xorl	%ecx, %ecx
	pushl	%edi
	.cfi_def_cfa_offset 12
	.cfi_offset 7, -12
	pushl	%esi
	.cfi_def_cfa_offset 16
	.cfi_offset 6, -16
	pushl	%ebx
	.cfi_def_cfa_offset 20
	.cfi_offset 3, -20
	subl	$28, %esp
	.cfi_def_cfa_offset 48
	movl	68(%esp), %esi
	movl	72(%esp), %ebp
	movl	60(%esp), %eax
	movl	64(%esp), %edx
	movl	%esi, %ebx
	movl	48(%esp), %edi
	andl	$1023, %ebx
	sall	$20, %ebx
	testl	%ebp, %ebp
	setne	%cl
	andl	$-4096, %eax
	sall	$31, %ecx
	shrl	$10, %esi
	orl	%ecx, %ebx
	movl	52(%esp), %ecx
	sall	$26, %esi
	shrl	$8, %eax
	orl	$50331649, %esi
	orl	%eax, %esi
	movl	56(%esp), %eax
	shrl	$12, %edx
	movl	%ecx, %ebp
	orl	%edx, %ebx
	andl	$14, %ebp
	movl	%ecx, %edx
	andl	$15, %edx
	cmpl	$14, %ebp
	movl	%eax, 12(%esp)
	movzbl	%cl, %eax
	cmove	%eax, %edx
	cmpl	$62, %edx
	ja	.L284
	jmp	*.L286(,%edx,4)
	.section	.rodata
	.align 4
	.align 4
.L286:
	.long	.L298
	.long	.L293
	.long	.L292
	.long	.L293
	.long	.L292
	.long	.L293
	.long	.L292
	.long	.L298
	.long	.L298
	.long	.L293
	.long	.L294
	.long	.L298
	.long	.L295
	.long	.L284
	.long	.L298
	.long	.L284
	.long	.L284
	.long	.L284
	.long	.L284
	.long	.L284
	.long	.L284
	.long	.L284
	.long	.L284
	.long	.L284
	.long	.L284
	.long	.L284
	.long	.L284
	.long	.L284
	.long	.L284
	.long	.L284
	.long	.L298
	.long	.L284
	.long	.L284
	.long	.L284
	.long	.L284
	.long	.L284
	.long	.L284
	.long	.L284
	.long	.L284
	.long	.L284
	.long	.L284
	.long	.L284
	.long	.L284
	.long	.L284
	.long	.L284
	.long	.L284
	.long	.L296
	.long	.L284
	.long	.L284
	.long	.L284
	.long	.L284
	.long	.L284
	.long	.L284
	.long	.L284
	.long	.L284
	.long	.L284
	.long	.L284
	.long	.L284
	.long	.L284
	.long	.L284
	.long	.L284
	.long	.L284
	.long	.L298
	.section	.boot.text
	.p2align 4,,7
	.p2align 3
.L293:
	andl	$16777200, %ecx
	sall	$8, %ecx
.L285:
	movl	%ebx, %edx
	sall	$12, %edx
	movl	%edx, %eax
	andl	$4194303, %edx
	shrl	$22, %eax
	movl	(%ecx,%eax,4), %eax
	movl	%esi, %ecx
	andl	$16777200, %ecx
	sall	$8, %ecx
	addl	$536870912, %ecx
	andl	$-4096, %eax
	orl	$7, %ecx
	shrl	$12, %edx
	movl	%ecx, -536870912(%eax,%edx,4)
	call	invalidatePageStructureCache
	movl	%edi, %eax
	movl	%esi, (%edi)
	movl	%ebx, 4(%edi)
	addl	$28, %esp
	.cfi_remember_state
	.cfi_def_cfa_offset 20
	popl	%ebx
	.cfi_restore 3
	.cfi_def_cfa_offset 16
	popl	%esi
	.cfi_restore 6
	.cfi_def_cfa_offset 12
	popl	%edi
	.cfi_restore 7
	.cfi_def_cfa_offset 8
	popl	%ebp
	.cfi_restore 5
	.cfi_def_cfa_offset 4
	ret	$4
	.p2align 4,,7
	.p2align 3
.L292:
	.cfi_restore_state
	andl	$-16, %ecx
	jmp	.L285
	.p2align 4,,7
	.p2align 3
.L298:
	xorl	%ecx, %ecx
	jmp	.L285
	.p2align 4,,7
	.p2align 3
.L296:
	andl	$16128, %ecx
	shrl	$8, %ecx
	cmpl	$32, %ecx
	je	.L299
	addl	$1, %ecx
	movl	$-1, %eax
	sall	%cl, %eax
.L297:
	movl	12(%esp), %ecx
	andl	%eax, %ecx
	jmp	.L285
	.p2align 4,,7
	.p2align 3
.L295:
	andl	$-1024, %ecx
	jmp	.L285
	.p2align 4,,7
	.p2align 3
.L294:
	andl	$2147483632, %ecx
	addl	%ecx, %ecx
	jmp	.L285
	.p2align 4,,7
	.p2align 3
.L284:
	call	halt
	.p2align 4,,7
	.p2align 3
.L299:
	movl	$-16, %eax
	jmp	.L297
	.cfi_endproc
.LFE297:
	.size	create_mapped_it_frame_cap, .-create_mapped_it_frame_cap
	.p2align 4,,15
	.globl	init_node_cpu
	.type	init_node_cpu, @function
init_node_cpu:
.LFB302:
	.cfi_startproc
	pushl	%ebx
	.cfi_def_cfa_offset 8
	.cfi_offset 3, -8
	movl	$63, %eax
	subl	$24, %esp
	.cfi_def_cfa_offset 32
	movw	%ax, gdt_idt_ptr
	movl	$ia32KSgdt, %eax
	movw	%ax, gdt_idt_ptr+2
	shrl	$16, %eax
	movl	$gdt_idt_ptr, (%esp)
	movw	%ax, gdt_idt_ptr+4
	call	ia32_install_gdt
	movl	$ia32KSidt, %eax
	movl	$2047, %edx
	movw	%ax, gdt_idt_ptr+2
	shrl	$16, %eax
	movl	$gdt_idt_ptr, (%esp)
	movw	%dx, gdt_idt_ptr
	movw	%ax, gdt_idt_ptr+4
	call	ia32_install_idt
	movl	$0, (%esp)
	call	ia32_install_ldt
	movl	$40, (%esp)
	call	ia32_install_tss
	movl	$8, 8(%esp)
	movl	$0, 4(%esp)
	movl	$372, (%esp)
	call	ia32_wrmsr
	movl	$handle_syscall, 8(%esp)
	movl	$0, 4(%esp)
	movl	$374, (%esp)
	call	ia32_wrmsr
	movl	$ia32KStss+4, 8(%esp)
	movl	$0, 4(%esp)
	movl	$373, (%esp)
	call	ia32_wrmsr
	movl	$0, 4(%esp)
	movl	$1, (%esp)
	call	ia32_cpuid_edx
	xorl	%edx, %edx
	testl	$65536, %eax
	je	.L302
	movl	$631, (%esp)
	call	ia32_rdmsr_low
	movl	$631, (%esp)
	movl	%eax, %ebx
	call	ia32_rdmsr_high
	movl	$631, (%esp)
	movl	%eax, %edx
	movl	%ebx, %eax
	andl	$-117901064, %eax
	andl	$-8, %edx
	orl	$1, %edx
	orl	$459782, %eax
	movl	%edx, 4(%esp)
	movl	%eax, 8(%esp)
	call	ia32_wrmsr
	call	read_cr4
	orb	$2, %ah
	movl	%eax, (%esp)
	call	write_cr4
#APP
# 41 "/home/mscapero/Desktop/seL4/seL4test/kernel/include/arch/ia32/arch/machine/cpu_registers.h" 1
	movl %cr0, %eax
# 0 "" 2
#NO_APP
	andl	$-47, %eax
	orl	$42, %eax
#APP
# 47 "/home/mscapero/Desktop/seL4/seL4test/kernel/include/arch/ia32/arch/machine/cpu_registers.h" 1
	movl %eax, %cr0
# 0 "" 2
#NO_APP
	movl	36(%esp), %eax
	movl	%eax, 4(%esp)
	movl	32(%esp), %eax
	movl	%eax, (%esp)
	call	apic_init
	xorl	%edx, %edx
	testl	%eax, %eax
	setne	%dl
.L302:
	addl	$24, %esp
	.cfi_def_cfa_offset 8
	movl	%edx, %eax
	popl	%ebx
	.cfi_restore 3
	.cfi_def_cfa_offset 4
	ret
	.cfi_endproc
.LFE302:
	.size	init_node_cpu, .-init_node_cpu
	.p2align 4,,15
	.globl	insert_dev_p_reg
	.type	insert_dev_p_reg, @function
insert_dev_p_reg:
.LFB304:
	.cfi_startproc
	movl	glks+188, %ecx
	cmpl	$198, %ecx
	ja	.L306
	movl	4(%esp), %eax
	movl	8(%esp), %edx
	movl	%eax, glks+192(,%ecx,8)
	movl	%edx, glks+196(,%ecx,8)
	addl	$1, %ecx
	movl	%ecx, glks+188
.L306:
	rep ret
	.cfi_endproc
.LFE304:
	.size	insert_dev_p_reg, .-insert_dev_p_reg
	.p2align 4,,15
	.globl	cur_cpu_id
	.type	cur_cpu_id, @function
cur_cpu_id:
.LFB305:
	.cfi_startproc
	subl	$12, %esp
	.cfi_def_cfa_offset 16
	call	get_current_esp
	addl	$536870912, %eax
	cmpl	$_boot_stack_top, %eax
	ja	.L309
	cmpl	$_boot_stack_bottom, %eax
	ja	.L312
.L309:
	shrl	$11, %eax
	addl	$12, %esp
	.cfi_remember_state
	.cfi_def_cfa_offset 4
	ret
	.p2align 4,,7
	.p2align 3
.L312:
	.cfi_restore_state
	movl	glks+28, %eax
	addl	$12, %esp
	.cfi_def_cfa_offset 4
	ret
	.cfi_endproc
.LFE305:
	.size	cur_cpu_id, .-cur_cpu_id
	.p2align 4,,15
	.globl	node_of_cpu
	.type	node_of_cpu, @function
node_of_cpu:
.LFB306:
	.cfi_startproc
	subl	$12, %esp
	.cfi_def_cfa_offset 16
	movl	glks+24, %edx
	movl	16(%esp), %eax
	testl	%edx, %edx
	je	.L314
	cmpl	%eax, glks+28
	je	.L332
	cmpl	$1, %edx
	jbe	.L314
	cmpl	%eax, glks+32
	je	.L319
	cmpl	$2, %edx
	jbe	.L314
	cmpl	%eax, glks+36
	je	.L320
	cmpl	$3, %edx
	jbe	.L314
	cmpl	%eax, glks+40
	je	.L321
	cmpl	$4, %edx
	jbe	.L314
	cmpl	%eax, glks+44
	je	.L322
	cmpl	$5, %edx
	jbe	.L314
	cmpl	%eax, glks+48
	je	.L323
	cmpl	$6, %edx
	jbe	.L314
	cmpl	%eax, glks+52
	je	.L324
	cmpl	$7, %edx
	jbe	.L314
	cmpl	%eax, glks+56
	je	.L325
.L314:
	call	halt
	.p2align 4,,7
	.p2align 3
.L332:
	xorl	%eax, %eax
	.p2align 4,,7
	.p2align 3
.L330:
	addl	$12, %esp
	.cfi_remember_state
	.cfi_def_cfa_offset 4
	ret
	.p2align 4,,7
	.p2align 3
.L319:
	.cfi_restore_state
	movl	$1, %eax
	jmp	.L330
	.p2align 4,,7
	.p2align 3
.L321:
	movl	$3, %eax
	jmp	.L330
	.p2align 4,,7
	.p2align 3
.L320:
	movl	$2, %eax
	jmp	.L330
	.p2align 4,,7
	.p2align 3
.L325:
	movl	$7, %eax
	jmp	.L330
	.p2align 4,,7
	.p2align 3
.L324:
	movl	$6, %eax
	jmp	.L330
	.p2align 4,,7
	.p2align 3
.L323:
	movl	$5, %eax
	jmp	.L330
	.p2align 4,,7
	.p2align 3
.L322:
	movl	$4, %eax
	jmp	.L330
	.cfi_endproc
.LFE306:
	.size	node_of_cpu, .-node_of_cpu
	.p2align 4,,15
	.globl	elf32_checkFile
	.type	elf32_checkFile, @function
elf32_checkFile:
.LFB318:
	.cfi_startproc
	movl	4(%esp), %edx
	xorl	%eax, %eax
	cmpl	$1179403647, (%edx)
	je	.L336
	rep ret
	.p2align 4,,7
	.p2align 3
.L336:
	xorl	%eax, %eax
	cmpb	$1, 4(%edx)
	sete	%al
	ret
	.cfi_endproc
.LFE318:
	.size	elf32_checkFile, .-elf32_checkFile
	.p2align 4,,15
	.globl	elf32_getMemoryBounds
	.type	elf32_getMemoryBounds, @function
elf32_getMemoryBounds:
.LFB319:
	.cfi_startproc
	pushl	%ebp
	.cfi_def_cfa_offset 8
	.cfi_offset 5, -8
	pushl	%edi
	.cfi_def_cfa_offset 12
	.cfi_offset 7, -12
	pushl	%esi
	.cfi_def_cfa_offset 16
	.cfi_offset 6, -16
	pushl	%ebx
	.cfi_def_cfa_offset 20
	.cfi_offset 3, -20
	movl	24(%esp), %edx
	movl	20(%esp), %eax
	movl	28(%edx), %ebx
	movzwl	44(%edx), %ecx
	addl	%edx, %ebx
	testw	%cx, %cx
	je	.L341
	sall	$5, %ecx
	movl	$-1, %edi
	leal	20(%ebx), %edx
	xorl	%esi, %esi
	leal	20(%ebx,%ecx), %ebp
	.p2align 4,,7
	.p2align 3
.L340:
	movl	(%edx), %ecx
	testl	%ecx, %ecx
	je	.L339
	movl	-12(%edx), %ebx
	addl	%ebx, %ecx
	cmpl	%ebx, %edi
	cmova	%ebx, %edi
	cmpl	%ecx, %esi
	cmovb	%ecx, %esi
.L339:
	addl	$32, %edx
	cmpl	%ebp, %edx
	jne	.L340
.L338:
	movl	%edi, (%eax)
	movl	%esi, 4(%eax)
	popl	%ebx
	.cfi_remember_state
	.cfi_restore 3
	.cfi_def_cfa_offset 16
	popl	%esi
	.cfi_restore 6
	.cfi_def_cfa_offset 12
	popl	%edi
	.cfi_restore 7
	.cfi_def_cfa_offset 8
	popl	%ebp
	.cfi_restore 5
	.cfi_def_cfa_offset 4
	ret	$4
.L341:
	.cfi_restore_state
	movl	$-1, %edi
	xorl	%esi, %esi
	jmp	.L338
	.cfi_endproc
.LFE319:
	.size	elf32_getMemoryBounds, .-elf32_getMemoryBounds
	.p2align 4,,15
	.globl	elf32_load
	.type	elf32_load, @function
elf32_load:
.LFB320:
	.cfi_startproc
	pushl	%ebp
	.cfi_def_cfa_offset 8
	.cfi_offset 5, -8
	pushl	%edi
	.cfi_def_cfa_offset 12
	.cfi_offset 7, -12
	pushl	%esi
	.cfi_def_cfa_offset 16
	.cfi_offset 6, -16
	pushl	%ebx
	.cfi_def_cfa_offset 20
	.cfi_offset 3, -20
	subl	$44, %esp
	.cfi_def_cfa_offset 64
	movl	64(%esp), %eax
	movl	$0, 24(%esp)
	movl	28(%eax), %esi
	addl	%eax, %esi
	cmpw	$0, 44(%eax)
	je	.L346
	.p2align 4,,7
	.p2align 3
.L375:
	movl	16(%esi), %edx
	movl	64(%esp), %ecx
	movl	68(%esp), %ebx
	addl	4(%esi), %ecx
	addl	8(%esi), %ebx
	testl	%edx, %edx
	movl	%ecx, 28(%esp)
	movl	%ebx, 20(%esp)
	je	.L356
	leal	4(%ecx), %edi
	cmpl	%edi, %ebx
	leal	4(%ebx), %ebp
	setae	%al
	cmpl	%ebp, %ecx
	movl	%eax, %edi
	setae	%al
	movl	%eax, %ebp
	orl	%ebp, %edi
	cmpl	$9, %edx
	seta	%al
	movl	%eax, %ebp
	movl	%edi, %eax
	movl	%ebp, %ebx
	testb	%bl, %al
	je	.L351
	movl	20(%esp), %ebx
	movl	%ecx, %edi
	orl	%ebx, %edi
	andl	$3, %edi
	jne	.L351
	movl	%edx, %ebp
	xorl	%eax, %eax
	shrl	$2, %ebp
	leal	0(,%ebp,4), %edi
	movl	%edx, 28(%esp)
.L357:
	movl	(%ecx,%eax,4), %edx
	movl	%edx, (%ebx,%eax,4)
	addl	$1, %eax
	cmpl	%eax, %ebp
	ja	.L357
	movl	28(%esp), %edx
	movl	%ebx, %eax
	addl	%edi, %ecx
	addl	%edi, %eax
	movl	%ebx, 20(%esp)
	movl	%edx, %ebp
	subl	%edi, %ebp
	cmpl	%edi, %edx
	je	.L356
	movzbl	(%ecx), %ebx
	cmpl	$1, %ebp
	movb	%bl, (%eax)
	je	.L356
	movzbl	1(%ecx), %ebx
	cmpl	$2, %ebp
	movb	%bl, 1(%eax)
	je	.L356
	movzbl	2(%ecx), %ecx
	movb	%cl, 2(%eax)
.L356:
	movl	20(%esp), %ebx
	movl	20(%esi), %eax
	addl	%edx, %ebx
	subl	%edx, %eax
	movl	%ebx, %ecx
	orl	%eax, %ecx
	movl	%ebx, %edx
	andl	$3, %ecx
	jne	.L386
	testl	%eax, %eax
	je	.L364
	.p2align 4,,7
	.p2align 3
.L376:
	movl	$0, (%edx)
	addl	$4, %edx
	subl	$4, %eax
	jne	.L376
.L364:
	movl	64(%esp), %eax
	addl	$32, %esi
	addl	$1, 24(%esp)
	movzwl	44(%eax), %eax
	cmpl	24(%esp), %eax
	ja	.L375
.L346:
	addl	$44, %esp
	.cfi_remember_state
	.cfi_def_cfa_offset 20
	popl	%ebx
	.cfi_restore 3
	.cfi_def_cfa_offset 16
	popl	%esi
	.cfi_restore 6
	.cfi_def_cfa_offset 12
	popl	%edi
	.cfi_restore 7
	.cfi_def_cfa_offset 8
	popl	%ebp
	.cfi_restore 5
	.cfi_def_cfa_offset 4
	ret
.L386:
	.cfi_restore_state
	testl	%eax, %eax
	je	.L364
	movl	%eax, 8(%esp)
	movl	$0, 4(%esp)
	movl	%ebx, (%esp)
	call	memset
	jmp	.L364
	.p2align 4,,7
	.p2align 3
.L351:
	movl	20(%esp), %ebx
	leal	(%ecx,%edx), %edi
	movl	%edx, %ebp
	movl	%ebx, %eax
	subl	%ecx, %eax
	movl	%eax, %ecx
	movl	28(%esp), %eax
	.p2align 4,,7
	.p2align 3
.L359:
	movzbl	(%eax), %edx
	addl	$1, %eax
	movb	%dl, -1(%eax,%ecx)
	cmpl	%edi, %eax
	jne	.L359
	movl	%ebx, 20(%esp)
	movl	%ebp, %edx
	jmp	.L356
	.cfi_endproc
.LFE320:
	.size	elf32_load, .-elf32_load
	.p2align 4,,15
	.type	load_boot_module.isra.140, @function
load_boot_module.isra.140:
.LFB731:
	.cfi_startproc
	pushl	%ebp
	.cfi_def_cfa_offset 8
	.cfi_offset 5, -8
	pushl	%edi
	.cfi_def_cfa_offset 12
	.cfi_offset 7, -12
	pushl	%esi
	.cfi_def_cfa_offset 16
	.cfi_offset 6, -16
	pushl	%ebx
	.cfi_def_cfa_offset 20
	.cfi_offset 3, -20
	subl	$28, %esp
	.cfi_def_cfa_offset 48
	cmpl	$1179403647, (%edx)
	movl	%eax, 8(%esp)
	movl	%ecx, 12(%esp)
	je	.L388
.L391:
	xorl	%eax, %eax
.L411:
	addl	$28, %esp
	.cfi_remember_state
	.cfi_def_cfa_offset 20
	popl	%ebx
	.cfi_restore 3
	.cfi_def_cfa_offset 16
	popl	%esi
	.cfi_restore 6
	.cfi_def_cfa_offset 12
	popl	%edi
	.cfi_restore 7
	.cfi_def_cfa_offset 8
	popl	%ebp
	.cfi_restore 5
	.cfi_def_cfa_offset 4
	ret
	.p2align 4,,7
	.p2align 3
.L388:
	.cfi_restore_state
	cmpb	$1, 4(%edx)
	jne	.L391
	movl	28(%edx), %ebx
	movzwl	44(%edx), %ecx
	addl	%edx, %ebx
	testl	%ecx, %ecx
	je	.L391
	sall	$5, %ecx
	xorl	%esi, %esi
	leal	20(%ebx), %eax
	movl	$-1, %edi
	leal	20(%ebx,%ecx), %ebp
	.p2align 4,,7
	.p2align 3
.L397:
	movl	(%eax), %ecx
	testl	%ecx, %ecx
	je	.L392
	movl	-12(%eax), %ebx
	addl	%ebx, %ecx
	cmpl	%ebx, %edi
	cmova	%ebx, %edi
	cmpl	%ecx, %esi
	cmovb	%ecx, %esi
.L392:
	addl	$32, %eax
	cmpl	%ebp, %eax
	jne	.L397
	testl	%esi, %esi
	je	.L391
	testl	$4095, %edi
	jne	.L391
	subl	$1, %esi
	andl	$-4096, %esi
	leal	12288(%esi), %ecx
	cmpl	$-536870912, %ecx
	leal	4096(%esi), %eax
	ja	.L391
	movl	24(%edx), %ecx
	cmpl	%edi, %ecx
	jb	.L391
	cmpl	%ecx, %eax
	jbe	.L391
	movl	12(%esp), %ebp
	movl	8(%esp), %esi
	movl	%ebp, %ebx
	addl	$3, %esi
	subl	%edi, %ebx
	movl	%esi, %edi
	sall	$4, %edi
	movl	%ebx, glks+20(%edi)
	addl	%eax, %ebx
	cmpl	glks+4, %ebx
	movl	%ebp, glks+12(%edi)
	movl	%ebx, glks+16(%edi)
	movl	%ecx, glks+24(%edi)
	ja	.L391
	movl	%ebx, %eax
	movl	%ebp, %ecx
	subl	%ebp, %eax
	je	.L395
	.p2align 4,,7
	.p2align 3
.L406:
	movl	$0, (%ecx)
	addl	$4, %ecx
	subl	$4, %eax
	jne	.L406
.L395:
	sall	$4, %esi
	movl	glks+20(%esi), %eax
	movl	%edx, (%esp)
	movl	%eax, 4(%esp)
	call	elf32_load
	movl	%ebx, %eax
	jmp	.L411
	.cfi_endproc
.LFE731:
	.size	load_boot_module.isra.140, .-load_boot_module.isra.140
	.p2align 4,,15
	.globl	Arch_configureIdleThread
	.type	Arch_configureIdleThread, @function
Arch_configureIdleThread:
.LFB322:
	.cfi_startproc
	movl	4(%esp), %eax
	movl	$514, 64(%eax)
	movl	$idle_thread, 56(%eax)
	movl	$8, 60(%eax)
	movl	$16, 28(%eax)
	movl	$16, 32(%eax)
	movl	$16, 36(%eax)
	movl	$16, 40(%eax)
	movl	$16, 72(%eax)
	ret
	.cfi_endproc
.LFE322:
	.size	Arch_configureIdleThread, .-Arch_configureIdleThread
	.text
	.p2align 4,,15
	.globl	Arch_switchToIdleThread
	.type	Arch_switchToIdleThread, @function
Arch_switchToIdleThread:
.LFB323:
	.cfi_startproc
	rep ret
	.cfi_endproc
.LFE323:
	.size	Arch_switchToIdleThread, .-Arch_switchToIdleThread
	.p2align 4,,15
	.globl	Arch_activateIdleThread
	.type	Arch_activateIdleThread, @function
Arch_activateIdleThread:
.LFB324:
	.cfi_startproc
	rep ret
	.cfi_endproc
.LFE324:
	.size	Arch_activateIdleThread, .-Arch_activateIdleThread
	.section	.phys.text,"ax",@progbits
	.p2align 4,,15
	.globl	init_boot_pd
	.type	init_boot_pd, @function
init_boot_pd:
.LFB326:
	.cfi_startproc
	xorl	%eax, %eax
	.p2align 4,,7
	.p2align 3
.L419:
	movl	%eax, %edx
	sall	$22, %edx
	orl	$387, %edx
	movl	%edx, _boot_pd(,%eax,4)
	addl	$1, %eax
	cmpl	$896, %eax
	jne	.L419
	xorw	%ax, %ax
	.p2align 4,,7
	.p2align 3
.L421:
	movl	%eax, %edx
	sall	$22, %edx
	orl	$387, %edx
	movl	%edx, _boot_pd+3584(,%eax,4)
	addl	$1, %eax
	cmpl	$128, %eax
	jne	.L421
	rep ret
	.cfi_endproc
.LFE326:
	.size	init_boot_pd, .-init_boot_pd
	.section	.boot.text
	.p2align 4,,15
	.globl	map_kernel_window
	.type	map_kernel_window, @function
map_kernel_window:
.LFB331:
	.cfi_startproc
	pushl	%ebp
	.cfi_def_cfa_offset 8
	.cfi_offset 5, -8
	pushl	%edi
	.cfi_def_cfa_offset 12
	.cfi_offset 7, -12
	pushl	%esi
	.cfi_def_cfa_offset 16
	.cfi_offset 6, -16
	pushl	%ebx
	.cfi_def_cfa_offset 20
	.cfi_offset 3, -20
	subl	$28, %esp
	.cfi_def_cfa_offset 48
	movl	48(%esp), %eax
	movl	56(%esp), %edi
	movl	52(%esp), %esi
	movl	60(%esp), %ebp
	leal	3584(%eax), %ecx
	xorl	%eax, %eax
	movl	%edi, %ebx
	.p2align 4,,7
	.p2align 3
.L424:
	movl	%eax, %edx
	addl	$4194304, %eax
	andl	$-4194304, %edx
	addl	$4, %ecx
	orl	$387, %edx
	movl	%edx, -4(%ecx)
	cmpl	$532676608, %eax
	jne	.L424
	movl	48(%esp), %ecx
	subl	%edi, %ebp
	leal	536870912(%esi), %eax
	andl	$-4096, %eax
	shrl	$12, %ebp
	orl	$7, %eax
	testl	%ebp, %ebp
	movl	%eax, 4092(%ecx)
	leal	4(%esi), %eax
	movl	$0, (%esi)
	leal	4(%esi,%ebp,4), %ecx
	je	.L438
	.p2align 4,,7
	.p2align 3
.L428:
	movl	%ebx, %edx
	addl	$4, %eax
	andl	$-4096, %edx
	addl	$4096, %ebx
	orl	$259, %edx
	movl	%edx, -4(%eax)
	cmpl	%ecx, %eax
	jne	.L428
	leal	1(%ebp), %ebx
	cmpl	$1007, %ebx
	ja	.L430
	.p2align 4,,7
	.p2align 3
.L426:
	movl	$0, (%esi,%ebx,4)
	addl	$1, %ebx
	cmpl	$1007, %ebx
	jbe	.L426
.L430:
	movl	$27, (%esp)
	call	ia32_rdmsr_low
	movl	%eax, %edx
	xorl	%eax, %eax
	andl	$-4096, %edx
	je	.L431
	leal	1(%ebx), %eax
	orl	$283, %edx
	cmpl	$1023, %eax
	leal	0(,%ebx,4), %ecx
	movl	%edx, (%esi,%ebx,4)
	ja	.L433
	negl	%ebx
	leal	4092(,%ebx,4), %edx
	leal	4(%esi,%ecx), %eax
	movl	%edx, 8(%esp)
	movl	$0, 4(%esp)
	movl	%eax, (%esp)
	call	memset
.L433:
	call	invalidatePageStructureCache
	movl	$1, %eax
.L431:
	addl	$28, %esp
	.cfi_remember_state
	.cfi_def_cfa_offset 20
	popl	%ebx
	.cfi_restore 3
	.cfi_def_cfa_offset 16
	popl	%esi
	.cfi_restore 6
	.cfi_def_cfa_offset 12
	popl	%edi
	.cfi_restore 7
	.cfi_def_cfa_offset 8
	popl	%ebp
	.cfi_restore 5
	.cfi_def_cfa_offset 4
	ret
.L438:
	.cfi_restore_state
	movl	$1, %ebx
	jmp	.L426
	.cfi_endproc
.LFE331:
	.size	map_kernel_window, .-map_kernel_window
	.p2align 4,,15
	.globl	map_temp_boot_page
	.type	map_temp_boot_page, @function
map_temp_boot_page:
.LFB332:
	.cfi_startproc
	pushl	%ebp
	.cfi_def_cfa_offset 8
	.cfi_offset 5, -8
	pushl	%edi
	.cfi_def_cfa_offset 12
	.cfi_offset 7, -12
	movl	$896, %edi
	pushl	%esi
	.cfi_def_cfa_offset 16
	.cfi_offset 6, -16
	movl	$-536870912, %esi
	pushl	%ebx
	.cfi_def_cfa_offset 20
	.cfi_offset 3, -20
	xorl	%ebx, %ebx
	subl	$28, %esp
	.cfi_def_cfa_offset 48
	movl	52(%esp), %eax
	movl	48(%esp), %ebp
	subl	52(%esp), %edi
	sall	$22, %eax
	subl	%eax, %esi
	movl	52(%esp), %eax
	andl	$-4194304, %ebp
	testl	%eax, %eax
	je	.L441
	.p2align 4,,7
	.p2align 3
.L443:
	movl	%ebx, %edx
	sall	$22, %edx
	leal	(%edx,%ebp), %eax
	addl	%esi, %edx
	leal	(%ebx,%edi), %ecx
	orl	$387, %eax
	movl	%edx, (%esp)
	addl	$1, %ebx
	movl	%eax, _boot_pd(,%ecx,4)
	call	invalidateTLBentry
	cmpl	52(%esp), %ebx
	jne	.L443
.L441:
	call	invalidatePageStructureCache
	movl	48(%esp), %eax
	addl	$28, %esp
	.cfi_def_cfa_offset 20
	popl	%ebx
	.cfi_restore 3
	.cfi_def_cfa_offset 16
	andl	$4194303, %eax
	addl	%esi, %eax
	popl	%esi
	.cfi_restore 6
	.cfi_def_cfa_offset 12
	popl	%edi
	.cfi_restore 7
	.cfi_def_cfa_offset 8
	popl	%ebp
	.cfi_restore 5
	.cfi_def_cfa_offset 4
	ret
	.cfi_endproc
.LFE332:
	.size	map_temp_boot_page, .-map_temp_boot_page
	.p2align 4,,15
	.globl	init_vm_state
	.type	init_vm_state, @function
init_vm_state:
.LFB333:
	.cfi_startproc
	subl	$12, %esp
	.cfi_def_cfa_offset 16
	call	getCacheLineSize
	testl	%eax, %eax
	je	.L448
	xorl	%edx, %edx
	testb	$1, %al
	jne	.L449
	.p2align 4,,7
	.p2align 3
.L450:
	shrl	%eax
	addl	$1, %edx
	testb	$1, %al
	je	.L450
.L449:
	cmpl	$1, %eax
	je	.L460
.L448:
	movl	$0, ia32KScacheLineSizeBits
.L459:
	xorl	%eax, %eax
	addl	$12, %esp
	.cfi_remember_state
	.cfi_def_cfa_offset 4
	ret
	.p2align 4,,7
	.p2align 3
.L460:
	.cfi_restore_state
	testl	%edx, %edx
	movl	%edx, ia32KScacheLineSizeBits
	je	.L459
	movl	16(%esp), %eax
	movl	$ia32KStss, %edx
	movl	$0, ia32KStss
	movl	$0, ia32KStss+4
	movl	$0, ia32KStss+12
	movl	%eax, ia32KSkernelPD
	movl	20(%esp), %eax
	movl	$0, ia32KStss+16
	movl	$0, ia32KStss+20
	movl	$0, ia32KStss+24
	movl	%eax, ia32KSkernelPT
	movl	%edx, %eax
	sall	$16, %eax
	orl	$103, %eax
	movl	$0, ia32KStss+28
	movl	$0, ia32KStss+32
	movl	$0, ia32KStss+36
	movl	$0, ia32KStss+40
	movl	$0, ia32KStss+44
	movl	$0, ia32KStss+48
	movl	$0, ia32KStss+52
	movl	$0, ia32KStss+56
	movl	$0, ia32KStss+60
	movl	$0, ia32KStss+64
	movl	$0, ia32KStss+68
	movl	$0, ia32KStss+72
	movl	$0, ia32KStss+76
	movl	$0, ia32KStss+80
	movl	$0, ia32KStss+84
	movl	$0, ia32KStss+88
	movl	$0, ia32KStss+92
	movl	$0, ia32KStss+96
	movl	$0, ia32KStss+100
	movl	$16, ia32KStss+8
	movl	$0, ia32KSgdt
	movl	$0, ia32KSgdt+4
	movl	$65535, ia32KSgdt+8
	movl	$13605632, ia32KSgdt+12
	movl	%eax, ia32KSgdt+40
	movl	%edx, %eax
	shrl	$16, %edx
	andl	$-16777216, %eax
	movzbl	%dl, %edx
	orl	%edx, %eax
	orb	$137, %ah
	movl	%eax, ia32KSgdt+44
	movl	$int_00, %eax
	movzwl	%ax, %edx
	xorw	%ax, %ax
	orb	$142, %ah
	orl	$524288, %edx
	movl	%eax, ia32KSidt+4
	movl	$int_01, %eax
	movl	%edx, ia32KSidt
	movzwl	%ax, %edx
	xorw	%ax, %ax
	orb	$142, %ah
	orl	$524288, %edx
	movl	%eax, ia32KSidt+12
	movl	$int_02, %eax
	movl	%edx, ia32KSidt+8
	movzwl	%ax, %edx
	xorw	%ax, %ax
	orb	$142, %ah
	orl	$524288, %edx
	movl	%eax, ia32KSidt+20
	movl	$int_03, %eax
	movl	%edx, ia32KSidt+16
	movzwl	%ax, %edx
	xorw	%ax, %ax
	orb	$142, %ah
	orl	$524288, %edx
	movl	%eax, ia32KSidt+28
	movl	$int_04, %eax
	movl	%edx, ia32KSidt+24
	movzwl	%ax, %edx
	xorw	%ax, %ax
	orb	$142, %ah
	orl	$524288, %edx
	movl	%eax, ia32KSidt+36
	movl	$int_05, %eax
	movl	%edx, ia32KSidt+32
	movzwl	%ax, %edx
	xorw	%ax, %ax
	orb	$142, %ah
	orl	$524288, %edx
	movl	%eax, ia32KSidt+44
	movl	$int_06, %eax
	movl	%edx, ia32KSidt+40
	movzwl	%ax, %edx
	xorw	%ax, %ax
	orb	$142, %ah
	orl	$524288, %edx
	movl	%eax, ia32KSidt+52
	movl	$int_07, %eax
	movl	%edx, ia32KSidt+48
	movzwl	%ax, %edx
	xorw	%ax, %ax
	orb	$142, %ah
	orl	$524288, %edx
	movl	%eax, ia32KSidt+60
	movl	$int_08, %eax
	movl	%edx, ia32KSidt+56
	movzwl	%ax, %edx
	xorw	%ax, %ax
	orb	$142, %ah
	orl	$524288, %edx
	movl	%eax, ia32KSidt+68
	movl	$int_09, %eax
	movl	%edx, ia32KSidt+64
	movzwl	%ax, %edx
	orl	$524288, %edx
	xorw	%ax, %ax
	orb	$142, %ah
	movl	%eax, ia32KSidt+76
	movl	$int_0a, %eax
	movl	%edx, ia32KSidt+72
	movzwl	%ax, %edx
	xorw	%ax, %ax
	orl	$524288, %edx
	orb	$142, %ah
	movl	%edx, ia32KSidt+80
	movl	$65535, ia32KSgdt+16
	movl	$13603584, ia32KSgdt+20
	movl	$65535, ia32KSgdt+24
	movl	$13630208, ia32KSgdt+28
	movl	$65535, ia32KSgdt+32
	movl	$13628160, ia32KSgdt+36
	movl	$65535, ia32KSgdt+48
	movl	$13628160, ia32KSgdt+52
	movl	$65535, ia32KSgdt+56
	movl	$13628160, ia32KSgdt+60
	movl	%eax, ia32KSidt+84
	movl	$int_0b, %eax
	movzwl	%ax, %edx
	xorw	%ax, %ax
	orb	$142, %ah
	orl	$524288, %edx
	movl	%eax, ia32KSidt+92
	movl	$int_0c, %eax
	movl	%edx, ia32KSidt+88
	movzwl	%ax, %edx
	xorw	%ax, %ax
	orb	$142, %ah
	orl	$524288, %edx
	movl	%eax, ia32KSidt+100
	movl	$int_0d, %eax
	movl	%edx, ia32KSidt+96
	movzwl	%ax, %edx
	xorw	%ax, %ax
	orb	$142, %ah
	orl	$524288, %edx
	movl	%eax, ia32KSidt+108
	movl	$int_0e, %eax
	movl	%edx, ia32KSidt+104
	movzwl	%ax, %edx
	xorw	%ax, %ax
	orb	$142, %ah
	orl	$524288, %edx
	movl	%eax, ia32KSidt+116
	movl	$int_0f, %eax
	movl	%edx, ia32KSidt+112
	movzwl	%ax, %edx
	xorw	%ax, %ax
	orb	$142, %ah
	orl	$524288, %edx
	movl	%eax, ia32KSidt+124
	movl	$int_10, %eax
	movl	%edx, ia32KSidt+120
	movzwl	%ax, %edx
	xorw	%ax, %ax
	orb	$142, %ah
	orl	$524288, %edx
	movl	%eax, ia32KSidt+132
	movl	$int_11, %eax
	movl	%edx, ia32KSidt+128
	movzwl	%ax, %edx
	xorw	%ax, %ax
	orb	$142, %ah
	orl	$524288, %edx
	movl	%eax, ia32KSidt+140
	movl	$int_12, %eax
	movl	%edx, ia32KSidt+136
	movzwl	%ax, %edx
	xorw	%ax, %ax
	orb	$142, %ah
	orl	$524288, %edx
	movl	%eax, ia32KSidt+148
	movl	$int_13, %eax
	movl	%edx, ia32KSidt+144
	movzwl	%ax, %edx
	xorw	%ax, %ax
	orb	$142, %ah
	orl	$524288, %edx
	movl	%eax, ia32KSidt+156
	movl	$int_14, %eax
	movl	%edx, ia32KSidt+152
	movzwl	%ax, %edx
	orl	$524288, %edx
	xorw	%ax, %ax
	orb	$142, %ah
	movl	%eax, ia32KSidt+164
	movl	$int_15, %eax
	movl	%edx, ia32KSidt+160
	movzwl	%ax, %edx
	xorw	%ax, %ax
	orb	$142, %ah
	orl	$524288, %edx
	movl	%eax, ia32KSidt+172
	movl	$int_16, %eax
	movl	%edx, ia32KSidt+168
	movzwl	%ax, %edx
	xorw	%ax, %ax
	orb	$142, %ah
	orl	$524288, %edx
	movl	%eax, ia32KSidt+180
	movl	$int_17, %eax
	movl	%edx, ia32KSidt+176
	movzwl	%ax, %edx
	xorw	%ax, %ax
	orb	$142, %ah
	orl	$524288, %edx
	movl	%eax, ia32KSidt+188
	movl	$int_18, %eax
	movl	%edx, ia32KSidt+184
	movzwl	%ax, %edx
	xorw	%ax, %ax
	orb	$142, %ah
	orl	$524288, %edx
	movl	%eax, ia32KSidt+196
	movl	$int_19, %eax
	movl	%edx, ia32KSidt+192
	movzwl	%ax, %edx
	xorw	%ax, %ax
	orb	$142, %ah
	orl	$524288, %edx
	movl	%eax, ia32KSidt+204
	movl	$int_1a, %eax
	movl	%edx, ia32KSidt+200
	movzwl	%ax, %edx
	xorw	%ax, %ax
	orb	$142, %ah
	orl	$524288, %edx
	movl	%eax, ia32KSidt+212
	movl	$int_1b, %eax
	movl	%edx, ia32KSidt+208
	movzwl	%ax, %edx
	xorw	%ax, %ax
	orl	$524288, %edx
	orb	$142, %ah
	movl	%edx, ia32KSidt+216
	movl	%eax, ia32KSidt+220
	movl	$int_1c, %eax
	movzwl	%ax, %edx
	xorw	%ax, %ax
	orb	$142, %ah
	orl	$524288, %edx
	movl	%eax, ia32KSidt+228
	movl	$int_1d, %eax
	movl	%edx, ia32KSidt+224
	movzwl	%ax, %edx
	xorw	%ax, %ax
	orb	$142, %ah
	orl	$524288, %edx
	movl	%eax, ia32KSidt+236
	movl	$int_1e, %eax
	movl	%edx, ia32KSidt+232
	movzwl	%ax, %edx
	xorw	%ax, %ax
	orb	$142, %ah
	orl	$524288, %edx
	movl	%eax, ia32KSidt+244
	movl	$int_1f, %eax
	movl	%edx, ia32KSidt+240
	movzwl	%ax, %edx
	orl	$524288, %edx
	xorw	%ax, %ax
	orb	$142, %ah
	movl	%eax, ia32KSidt+252
	movl	$int_20, %eax
	movl	%edx, ia32KSidt+248
	movzwl	%ax, %edx
	xorw	%ax, %ax
	orb	$142, %ah
	orl	$524288, %edx
	movl	%eax, ia32KSidt+260
	movl	$int_21, %eax
	movl	%edx, ia32KSidt+256
	movzwl	%ax, %edx
	xorw	%ax, %ax
	orb	$142, %ah
	orl	$524288, %edx
	movl	%eax, ia32KSidt+268
	movl	$int_22, %eax
	movl	%edx, ia32KSidt+264
	movzwl	%ax, %edx
	xorw	%ax, %ax
	orb	$142, %ah
	orl	$524288, %edx
	movl	%eax, ia32KSidt+276
	movl	$int_23, %eax
	movl	%edx, ia32KSidt+272
	movzwl	%ax, %edx
	xorw	%ax, %ax
	orb	$142, %ah
	orl	$524288, %edx
	movl	%eax, ia32KSidt+284
	movl	$int_24, %eax
	movl	%edx, ia32KSidt+280
	movzwl	%ax, %edx
	xorw	%ax, %ax
	orb	$142, %ah
	orl	$524288, %edx
	movl	%eax, ia32KSidt+292
	movl	$int_25, %eax
	movl	%edx, ia32KSidt+288
	movzwl	%ax, %edx
	xorw	%ax, %ax
	orb	$142, %ah
	orl	$524288, %edx
	movl	%eax, ia32KSidt+300
	movl	$int_26, %eax
	movl	%edx, ia32KSidt+296
	movzwl	%ax, %edx
	xorw	%ax, %ax
	orb	$142, %ah
	orl	$524288, %edx
	movl	%eax, ia32KSidt+308
	movl	$int_27, %eax
	movl	%edx, ia32KSidt+304
	movzwl	%ax, %edx
	xorw	%ax, %ax
	orb	$142, %ah
	orl	$524288, %edx
	movl	%eax, ia32KSidt+316
	movl	$int_28, %eax
	movl	%edx, ia32KSidt+312
	movzwl	%ax, %edx
	xorw	%ax, %ax
	orb	$142, %ah
	orl	$524288, %edx
	movl	%eax, ia32KSidt+324
	movl	$int_29, %eax
	movl	%edx, ia32KSidt+320
	movzwl	%ax, %edx
	xorw	%ax, %ax
	orb	$142, %ah
	orl	$524288, %edx
	movl	%eax, ia32KSidt+332
	movl	$int_2a, %eax
	movl	%edx, ia32KSidt+328
	movzwl	%ax, %edx
	orl	$524288, %edx
	xorw	%ax, %ax
	orb	$142, %ah
	movl	%eax, ia32KSidt+340
	movl	$int_2b, %eax
	movl	%edx, ia32KSidt+336
	movzwl	%ax, %edx
	xorw	%ax, %ax
	orb	$142, %ah
	orl	$524288, %edx
	movl	%eax, ia32KSidt+348
	movl	$int_2c, %eax
	movl	%edx, ia32KSidt+344
	movzwl	%ax, %edx
	xorw	%ax, %ax
	orl	$524288, %edx
	orb	$142, %ah
	movl	%edx, ia32KSidt+352
	movl	%eax, ia32KSidt+356
	movl	$int_2d, %eax
	movzwl	%ax, %edx
	xorw	%ax, %ax
	orb	$142, %ah
	orl	$524288, %edx
	movl	%eax, ia32KSidt+364
	movl	$int_2e, %eax
	movl	%edx, ia32KSidt+360
	movzwl	%ax, %edx
	xorw	%ax, %ax
	orb	$142, %ah
	orl	$524288, %edx
	movl	%eax, ia32KSidt+372
	movl	$int_2f, %eax
	movl	%edx, ia32KSidt+368
	movzwl	%ax, %edx
	xorw	%ax, %ax
	orb	$142, %ah
	orl	$524288, %edx
	movl	%eax, ia32KSidt+380
	movl	$int_30, %eax
	movl	%edx, ia32KSidt+376
	movzwl	%ax, %edx
	xorw	%ax, %ax
	orb	$142, %ah
	orl	$524288, %edx
	movl	%eax, ia32KSidt+388
	movl	$int_31, %eax
	movl	%edx, ia32KSidt+384
	movzwl	%ax, %edx
	xorw	%ax, %ax
	orb	$142, %ah
	orl	$524288, %edx
	movl	%eax, ia32KSidt+396
	movl	$int_32, %eax
	movl	%edx, ia32KSidt+392
	movzwl	%ax, %edx
	xorw	%ax, %ax
	orb	$142, %ah
	orl	$524288, %edx
	movl	%eax, ia32KSidt+404
	movl	$int_33, %eax
	movl	%edx, ia32KSidt+400
	movzwl	%ax, %edx
	xorw	%ax, %ax
	orb	$142, %ah
	orl	$524288, %edx
	movl	%eax, ia32KSidt+412
	movl	$int_34, %eax
	movl	%edx, ia32KSidt+408
	movzwl	%ax, %edx
	xorw	%ax, %ax
	orb	$142, %ah
	orl	$524288, %edx
	movl	%eax, ia32KSidt+420
	movl	$int_35, %eax
	movl	%edx, ia32KSidt+416
	movzwl	%ax, %edx
	orl	$524288, %edx
	xorw	%ax, %ax
	orb	$142, %ah
	movl	%eax, ia32KSidt+428
	movl	$int_36, %eax
	movl	%edx, ia32KSidt+424
	movzwl	%ax, %edx
	xorw	%ax, %ax
	orb	$142, %ah
	orl	$524288, %edx
	movl	%eax, ia32KSidt+436
	movl	$int_37, %eax
	movl	%edx, ia32KSidt+432
	movzwl	%ax, %edx
	xorw	%ax, %ax
	orb	$142, %ah
	orl	$524288, %edx
	movl	%eax, ia32KSidt+444
	movl	$int_38, %eax
	movl	%edx, ia32KSidt+440
	movzwl	%ax, %edx
	xorw	%ax, %ax
	orb	$142, %ah
	orl	$524288, %edx
	movl	%eax, ia32KSidt+452
	movl	$int_39, %eax
	movl	%edx, ia32KSidt+448
	movzwl	%ax, %edx
	xorw	%ax, %ax
	orb	$142, %ah
	orl	$524288, %edx
	movl	%eax, ia32KSidt+460
	movl	$int_3a, %eax
	movl	%edx, ia32KSidt+456
	movzwl	%ax, %edx
	xorw	%ax, %ax
	orb	$142, %ah
	orl	$524288, %edx
	movl	%eax, ia32KSidt+468
	movl	$int_3b, %eax
	movl	%edx, ia32KSidt+464
	movzwl	%ax, %edx
	xorw	%ax, %ax
	orb	$142, %ah
	orl	$524288, %edx
	movl	%eax, ia32KSidt+476
	movl	$int_3c, %eax
	movl	%edx, ia32KSidt+472
	movzwl	%ax, %edx
	xorw	%ax, %ax
	orb	$142, %ah
	orl	$524288, %edx
	movl	%eax, ia32KSidt+484
	movl	$int_3d, %eax
	movl	%edx, ia32KSidt+480
	movzwl	%ax, %edx
	xorw	%ax, %ax
	orl	$524288, %edx
	orb	$142, %ah
	movl	%edx, ia32KSidt+488
	movl	%eax, ia32KSidt+492
	movl	$int_3e, %eax
	movzwl	%ax, %edx
	xorw	%ax, %ax
	orb	$142, %ah
	orl	$524288, %edx
	movl	%eax, ia32KSidt+500
	movl	$int_3f, %eax
	movl	%edx, ia32KSidt+496
	movzwl	%ax, %edx
	xorw	%ax, %ax
	orb	$142, %ah
	orl	$524288, %edx
	movl	%eax, ia32KSidt+508
	movl	$int_40, %eax
	movl	%edx, ia32KSidt+504
	movzwl	%ax, %edx
	orl	$524288, %edx
	xorw	%ax, %ax
	orb	$238, %ah
	movl	%eax, ia32KSidt+516
	movl	$int_41, %eax
	movl	%edx, ia32KSidt+512
	movzwl	%ax, %edx
	xorw	%ax, %ax
	orb	$238, %ah
	orl	$524288, %edx
	movl	%eax, ia32KSidt+524
	movl	$int_42, %eax
	movl	%edx, ia32KSidt+520
	movzwl	%ax, %edx
	xorw	%ax, %ax
	orb	$238, %ah
	orl	$524288, %edx
	movl	%eax, ia32KSidt+532
	movl	$int_43, %eax
	movl	%edx, ia32KSidt+528
	movzwl	%ax, %edx
	xorw	%ax, %ax
	orb	$238, %ah
	orl	$524288, %edx
	movl	%eax, ia32KSidt+540
	movl	$int_44, %eax
	movl	%edx, ia32KSidt+536
	movzwl	%ax, %edx
	xorw	%ax, %ax
	orb	$238, %ah
	orl	$524288, %edx
	movl	%eax, ia32KSidt+548
	movl	$int_45, %eax
	movl	%edx, ia32KSidt+544
	movzwl	%ax, %edx
	xorw	%ax, %ax
	orb	$238, %ah
	orl	$524288, %edx
	movl	%eax, ia32KSidt+556
	movl	$int_46, %eax
	movl	%edx, ia32KSidt+552
	movzwl	%ax, %edx
	xorw	%ax, %ax
	orb	$238, %ah
	orl	$524288, %edx
	movl	%eax, ia32KSidt+564
	movl	$int_47, %eax
	movl	%edx, ia32KSidt+560
	movzwl	%ax, %edx
	xorw	%ax, %ax
	orb	$238, %ah
	orl	$524288, %edx
	movl	%eax, ia32KSidt+572
	movl	$int_48, %eax
	movl	%edx, ia32KSidt+568
	movzwl	%ax, %edx
	xorw	%ax, %ax
	orb	$238, %ah
	orl	$524288, %edx
	movl	%eax, ia32KSidt+580
	movl	$int_49, %eax
	movl	%edx, ia32KSidt+576
	movzwl	%ax, %edx
	xorw	%ax, %ax
	orb	$238, %ah
	orl	$524288, %edx
	movl	%eax, ia32KSidt+588
	movl	$int_4a, %eax
	movl	%edx, ia32KSidt+584
	movzwl	%ax, %edx
	xorw	%ax, %ax
	orb	$238, %ah
	orl	$524288, %edx
	movl	%eax, ia32KSidt+596
	movl	$int_4b, %eax
	movl	%edx, ia32KSidt+592
	movzwl	%ax, %edx
	orl	$524288, %edx
	xorw	%ax, %ax
	orb	$238, %ah
	movl	%eax, ia32KSidt+604
	movl	$int_4c, %eax
	movl	%edx, ia32KSidt+600
	movzwl	%ax, %edx
	xorw	%ax, %ax
	orb	$238, %ah
	orl	$524288, %edx
	movl	%eax, ia32KSidt+612
	movl	$int_4d, %eax
	movl	%edx, ia32KSidt+608
	movzwl	%ax, %edx
	xorw	%ax, %ax
	orb	$238, %ah
	orl	$524288, %edx
	movl	%eax, ia32KSidt+620
	movl	$int_4e, %eax
	movl	%edx, ia32KSidt+616
	movzwl	%ax, %edx
	xorw	%ax, %ax
	orl	$524288, %edx
	orb	$238, %ah
	movl	%edx, ia32KSidt+624
	movl	%eax, ia32KSidt+628
	movl	$int_4f, %eax
	movzwl	%ax, %edx
	xorw	%ax, %ax
	orb	$238, %ah
	orl	$524288, %edx
	movl	%eax, ia32KSidt+636
	movl	$int_50, %eax
	movl	%edx, ia32KSidt+632
	movzwl	%ax, %edx
	xorw	%ax, %ax
	orb	$238, %ah
	orl	$524288, %edx
	movl	%eax, ia32KSidt+644
	movl	$int_51, %eax
	movl	%edx, ia32KSidt+640
	movzwl	%ax, %edx
	xorw	%ax, %ax
	orb	$238, %ah
	orl	$524288, %edx
	movl	%eax, ia32KSidt+652
	movl	$int_52, %eax
	movl	%edx, ia32KSidt+648
	movzwl	%ax, %edx
	xorw	%ax, %ax
	orb	$238, %ah
	orl	$524288, %edx
	movl	%eax, ia32KSidt+660
	movl	$int_53, %eax
	movl	%edx, ia32KSidt+656
	movzwl	%ax, %edx
	xorw	%ax, %ax
	orb	$238, %ah
	orl	$524288, %edx
	movl	%eax, ia32KSidt+668
	movl	$int_54, %eax
	movl	%edx, ia32KSidt+664
	movzwl	%ax, %edx
	xorw	%ax, %ax
	orb	$238, %ah
	orl	$524288, %edx
	movl	%eax, ia32KSidt+676
	movl	$int_55, %eax
	movl	%edx, ia32KSidt+672
	movzwl	%ax, %edx
	xorw	%ax, %ax
	orb	$238, %ah
	orl	$524288, %edx
	movl	%eax, ia32KSidt+684
	movl	$int_56, %eax
	movl	%edx, ia32KSidt+680
	movzwl	%ax, %edx
	orl	$524288, %edx
	xorw	%ax, %ax
	orb	$238, %ah
	movl	%eax, ia32KSidt+692
	movl	$int_57, %eax
	movl	%edx, ia32KSidt+688
	movzwl	%ax, %edx
	xorw	%ax, %ax
	orb	$238, %ah
	orl	$524288, %edx
	movl	%eax, ia32KSidt+700
	movl	$int_58, %eax
	movl	%edx, ia32KSidt+696
	movzwl	%ax, %edx
	xorw	%ax, %ax
	orb	$238, %ah
	orl	$524288, %edx
	movl	%eax, ia32KSidt+708
	movl	$int_59, %eax
	movl	%edx, ia32KSidt+704
	movzwl	%ax, %edx
	xorw	%ax, %ax
	orb	$238, %ah
	orl	$524288, %edx
	movl	%eax, ia32KSidt+716
	movl	$int_5a, %eax
	movl	%edx, ia32KSidt+712
	movzwl	%ax, %edx
	xorw	%ax, %ax
	orb	$238, %ah
	orl	$524288, %edx
	movl	%eax, ia32KSidt+724
	movl	$int_5b, %eax
	movl	%edx, ia32KSidt+720
	movzwl	%ax, %edx
	xorw	%ax, %ax
	orb	$238, %ah
	orl	$524288, %edx
	movl	%eax, ia32KSidt+732
	movl	$int_5c, %eax
	movl	%edx, ia32KSidt+728
	movzwl	%ax, %edx
	xorw	%ax, %ax
	orb	$238, %ah
	orl	$524288, %edx
	movl	%eax, ia32KSidt+740
	movl	$int_5d, %eax
	movl	%edx, ia32KSidt+736
	movzwl	%ax, %edx
	xorw	%ax, %ax
	orb	$238, %ah
	orl	$524288, %edx
	movl	%eax, ia32KSidt+748
	movl	$int_5e, %eax
	movl	%edx, ia32KSidt+744
	movzwl	%ax, %edx
	xorw	%ax, %ax
	orb	$238, %ah
	orl	$524288, %edx
	movl	%eax, ia32KSidt+756
	movl	$int_5f, %eax
	movl	%edx, ia32KSidt+752
	movzwl	%ax, %edx
	xorw	%ax, %ax
	orl	$524288, %edx
	orb	$238, %ah
	movl	%edx, ia32KSidt+760
	movl	%eax, ia32KSidt+764
	movl	$int_60, %eax
	movzwl	%ax, %edx
	xorw	%ax, %ax
	orb	$238, %ah
	orl	$524288, %edx
	movl	%eax, ia32KSidt+772
	movl	$int_61, %eax
	movl	%edx, ia32KSidt+768
	movzwl	%ax, %edx
	orl	$524288, %edx
	xorw	%ax, %ax
	orb	$238, %ah
	movl	%eax, ia32KSidt+780
	movl	$int_62, %eax
	movl	%edx, ia32KSidt+776
	movzwl	%ax, %edx
	xorw	%ax, %ax
	orb	$238, %ah
	orl	$524288, %edx
	movl	%eax, ia32KSidt+788
	movl	$int_63, %eax
	movl	%edx, ia32KSidt+784
	movzwl	%ax, %edx
	xorw	%ax, %ax
	orb	$238, %ah
	orl	$524288, %edx
	movl	%eax, ia32KSidt+796
	movl	$int_64, %eax
	movl	%edx, ia32KSidt+792
	movzwl	%ax, %edx
	xorw	%ax, %ax
	orb	$238, %ah
	orl	$524288, %edx
	movl	%eax, ia32KSidt+804
	movl	$int_65, %eax
	movl	%edx, ia32KSidt+800
	movzwl	%ax, %edx
	xorw	%ax, %ax
	orb	$238, %ah
	orl	$524288, %edx
	movl	%eax, ia32KSidt+812
	movl	$int_66, %eax
	movl	%edx, ia32KSidt+808
	movzwl	%ax, %edx
	xorw	%ax, %ax
	orb	$238, %ah
	orl	$524288, %edx
	movl	%eax, ia32KSidt+820
	movl	$int_67, %eax
	movl	%edx, ia32KSidt+816
	movzwl	%ax, %edx
	xorw	%ax, %ax
	orb	$238, %ah
	orl	$524288, %edx
	movl	%eax, ia32KSidt+828
	movl	$int_68, %eax
	movl	%edx, ia32KSidt+824
	movzwl	%ax, %edx
	xorw	%ax, %ax
	orb	$238, %ah
	orl	$524288, %edx
	movl	%eax, ia32KSidt+836
	movl	$int_69, %eax
	movl	%edx, ia32KSidt+832
	movzwl	%ax, %edx
	xorw	%ax, %ax
	orb	$238, %ah
	orl	$524288, %edx
	movl	%eax, ia32KSidt+844
	movl	$int_6a, %eax
	movl	%edx, ia32KSidt+840
	movzwl	%ax, %edx
	xorw	%ax, %ax
	orb	$238, %ah
	orl	$524288, %edx
	movl	%eax, ia32KSidt+852
	movl	$int_6b, %eax
	movl	%edx, ia32KSidt+848
	movzwl	%ax, %edx
	xorw	%ax, %ax
	orb	$238, %ah
	orl	$524288, %edx
	movl	%eax, ia32KSidt+860
	movl	$int_6c, %eax
	movl	%edx, ia32KSidt+856
	movzwl	%ax, %edx
	orl	$524288, %edx
	xorw	%ax, %ax
	orb	$238, %ah
	movl	%eax, ia32KSidt+868
	movl	$int_6d, %eax
	movl	%edx, ia32KSidt+864
	movzwl	%ax, %edx
	xorw	%ax, %ax
	orb	$238, %ah
	orl	$524288, %edx
	movl	%eax, ia32KSidt+876
	movl	$int_6e, %eax
	movl	%edx, ia32KSidt+872
	movzwl	%ax, %edx
	xorw	%ax, %ax
	orb	$238, %ah
	orl	$524288, %edx
	movl	%eax, ia32KSidt+884
	movl	$int_6f, %eax
	movl	%edx, ia32KSidt+880
	movzwl	%ax, %edx
	xorw	%ax, %ax
	orb	$238, %ah
	orl	$524288, %edx
	movl	%eax, ia32KSidt+892
	movl	$int_70, %eax
	movl	%edx, ia32KSidt+888
	movzwl	%ax, %edx
	xorw	%ax, %ax
	orl	$524288, %edx
	orb	$238, %ah
	movl	%edx, ia32KSidt+896
	movl	%eax, ia32KSidt+900
	movl	$int_71, %eax
	movzwl	%ax, %edx
	xorw	%ax, %ax
	orb	$238, %ah
	orl	$524288, %edx
	movl	%eax, ia32KSidt+908
	movl	$int_72, %eax
	movl	%edx, ia32KSidt+904
	movzwl	%ax, %edx
	xorw	%ax, %ax
	orb	$238, %ah
	orl	$524288, %edx
	movl	%eax, ia32KSidt+916
	movl	$int_73, %eax
	movl	%edx, ia32KSidt+912
	movzwl	%ax, %edx
	xorw	%ax, %ax
	orb	$238, %ah
	orl	$524288, %edx
	movl	%eax, ia32KSidt+924
	movl	$int_74, %eax
	movl	%edx, ia32KSidt+920
	movzwl	%ax, %edx
	xorw	%ax, %ax
	orb	$238, %ah
	orl	$524288, %edx
	movl	%eax, ia32KSidt+932
	movl	$int_75, %eax
	movl	%edx, ia32KSidt+928
	movzwl	%ax, %edx
	xorw	%ax, %ax
	orb	$238, %ah
	orl	$524288, %edx
	movl	%eax, ia32KSidt+940
	movl	$int_76, %eax
	movl	%edx, ia32KSidt+936
	movzwl	%ax, %edx
	xorw	%ax, %ax
	orb	$238, %ah
	orl	$524288, %edx
	movl	%eax, ia32KSidt+948
	movl	$int_77, %eax
	movl	%edx, ia32KSidt+944
	movzwl	%ax, %edx
	orl	$524288, %edx
	xorw	%ax, %ax
	orb	$238, %ah
	movl	%eax, ia32KSidt+956
	movl	$int_78, %eax
	movl	%edx, ia32KSidt+952
	movzwl	%ax, %edx
	xorw	%ax, %ax
	orb	$238, %ah
	orl	$524288, %edx
	movl	%eax, ia32KSidt+964
	movl	$int_79, %eax
	movl	%edx, ia32KSidt+960
	movzwl	%ax, %edx
	xorw	%ax, %ax
	orb	$238, %ah
	orl	$524288, %edx
	movl	%eax, ia32KSidt+972
	movl	$int_7a, %eax
	movl	%edx, ia32KSidt+968
	movzwl	%ax, %edx
	xorw	%ax, %ax
	orb	$238, %ah
	orl	$524288, %edx
	movl	%eax, ia32KSidt+980
	movl	$int_7b, %eax
	movl	%edx, ia32KSidt+976
	movzwl	%ax, %edx
	xorw	%ax, %ax
	orb	$238, %ah
	orl	$524288, %edx
	movl	%eax, ia32KSidt+988
	movl	$int_7c, %eax
	movl	%edx, ia32KSidt+984
	movzwl	%ax, %edx
	xorw	%ax, %ax
	orb	$238, %ah
	orl	$524288, %edx
	movl	%eax, ia32KSidt+996
	movl	$int_7d, %eax
	movl	%edx, ia32KSidt+992
	movzwl	%ax, %edx
	xorw	%ax, %ax
	orb	$238, %ah
	orl	$524288, %edx
	movl	%eax, ia32KSidt+1004
	movl	$int_7e, %eax
	movl	%edx, ia32KSidt+1000
	movzwl	%ax, %edx
	xorw	%ax, %ax
	orb	$238, %ah
	orl	$524288, %edx
	movl	%eax, ia32KSidt+1012
	movl	$int_7f, %eax
	movl	%edx, ia32KSidt+1008
	movzwl	%ax, %edx
	xorw	%ax, %ax
	orb	$238, %ah
	orl	$524288, %edx
	movl	%eax, ia32KSidt+1020
	movl	$int_80, %eax
	movl	%edx, ia32KSidt+1016
	movzwl	%ax, %edx
	xorw	%ax, %ax
	orb	$238, %ah
	orl	$524288, %edx
	movl	%eax, ia32KSidt+1028
	movl	$int_81, %eax
	movl	%edx, ia32KSidt+1024
	movzwl	%ax, %edx
	xorw	%ax, %ax
	orl	$524288, %edx
	orb	$238, %ah
	movl	%edx, ia32KSidt+1032
	movl	%eax, ia32KSidt+1036
	movl	$int_82, %eax
	movzwl	%ax, %edx
	orl	$524288, %edx
	xorw	%ax, %ax
	orb	$238, %ah
	movl	%eax, ia32KSidt+1044
	movl	$int_83, %eax
	movl	%edx, ia32KSidt+1040
	movzwl	%ax, %edx
	xorw	%ax, %ax
	orb	$238, %ah
	orl	$524288, %edx
	movl	%eax, ia32KSidt+1052
	movl	$int_84, %eax
	movl	%edx, ia32KSidt+1048
	movzwl	%ax, %edx
	xorw	%ax, %ax
	orb	$238, %ah
	orl	$524288, %edx
	movl	%eax, ia32KSidt+1060
	movl	$int_85, %eax
	movl	%edx, ia32KSidt+1056
	movzwl	%ax, %edx
	xorw	%ax, %ax
	orb	$238, %ah
	orl	$524288, %edx
	movl	%eax, ia32KSidt+1068
	movl	$int_86, %eax
	movl	%edx, ia32KSidt+1064
	movzwl	%ax, %edx
	xorw	%ax, %ax
	orb	$238, %ah
	orl	$524288, %edx
	movl	%eax, ia32KSidt+1076
	movl	$int_87, %eax
	movl	%edx, ia32KSidt+1072
	movzwl	%ax, %edx
	xorw	%ax, %ax
	orb	$238, %ah
	orl	$524288, %edx
	movl	%eax, ia32KSidt+1084
	movl	$int_88, %eax
	movl	%edx, ia32KSidt+1080
	movzwl	%ax, %edx
	xorw	%ax, %ax
	orb	$238, %ah
	orl	$524288, %edx
	movl	%eax, ia32KSidt+1092
	movl	$int_89, %eax
	movl	%edx, ia32KSidt+1088
	movzwl	%ax, %edx
	xorw	%ax, %ax
	orb	$238, %ah
	orl	$524288, %edx
	movl	%eax, ia32KSidt+1100
	movl	$int_8a, %eax
	movl	%edx, ia32KSidt+1096
	movzwl	%ax, %edx
	xorw	%ax, %ax
	orb	$238, %ah
	orl	$524288, %edx
	movl	%eax, ia32KSidt+1108
	movl	$int_8b, %eax
	movl	%edx, ia32KSidt+1104
	movzwl	%ax, %edx
	xorw	%ax, %ax
	orb	$238, %ah
	orl	$524288, %edx
	movl	%eax, ia32KSidt+1116
	movl	$int_8c, %eax
	movl	%edx, ia32KSidt+1112
	movzwl	%ax, %edx
	xorw	%ax, %ax
	orb	$238, %ah
	orl	$524288, %edx
	movl	%eax, ia32KSidt+1124
	movl	$int_8d, %eax
	movl	%edx, ia32KSidt+1120
	movzwl	%ax, %edx
	orl	$524288, %edx
	xorw	%ax, %ax
	orb	$238, %ah
	movl	%eax, ia32KSidt+1132
	movl	$int_8e, %eax
	movl	%edx, ia32KSidt+1128
	movzwl	%ax, %edx
	xorw	%ax, %ax
	orb	$238, %ah
	orl	$524288, %edx
	movl	%eax, ia32KSidt+1140
	movl	$int_8f, %eax
	movl	%edx, ia32KSidt+1136
	movzwl	%ax, %edx
	xorw	%ax, %ax
	orb	$238, %ah
	orl	$524288, %edx
	movl	%eax, ia32KSidt+1148
	movl	$int_90, %eax
	movl	%edx, ia32KSidt+1144
	movzwl	%ax, %edx
	xorw	%ax, %ax
	orb	$238, %ah
	orl	$524288, %edx
	movl	%eax, ia32KSidt+1156
	movl	$int_91, %eax
	movl	%edx, ia32KSidt+1152
	movzwl	%ax, %edx
	xorw	%ax, %ax
	orb	$238, %ah
	orl	$524288, %edx
	movl	%eax, ia32KSidt+1164
	movl	$int_92, %eax
	movl	%edx, ia32KSidt+1160
	movzwl	%ax, %edx
	xorw	%ax, %ax
	orl	$524288, %edx
	orb	$238, %ah
	movl	%edx, ia32KSidt+1168
	movl	%eax, ia32KSidt+1172
	movl	$int_93, %eax
	movzwl	%ax, %edx
	xorw	%ax, %ax
	orb	$238, %ah
	orl	$524288, %edx
	movl	%eax, ia32KSidt+1180
	movl	$int_94, %eax
	movl	%edx, ia32KSidt+1176
	movzwl	%ax, %edx
	xorw	%ax, %ax
	orb	$238, %ah
	orl	$524288, %edx
	movl	%eax, ia32KSidt+1188
	movl	$int_95, %eax
	movl	%edx, ia32KSidt+1184
	movzwl	%ax, %edx
	xorw	%ax, %ax
	orb	$238, %ah
	orl	$524288, %edx
	movl	%eax, ia32KSidt+1196
	movl	$int_96, %eax
	movl	%edx, ia32KSidt+1192
	movzwl	%ax, %edx
	xorw	%ax, %ax
	orb	$238, %ah
	orl	$524288, %edx
	movl	%eax, ia32KSidt+1204
	movl	$int_97, %eax
	movl	%edx, ia32KSidt+1200
	movzwl	%ax, %edx
	xorw	%ax, %ax
	orb	$238, %ah
	orl	$524288, %edx
	movl	%eax, ia32KSidt+1212
	movl	$int_98, %eax
	movl	%edx, ia32KSidt+1208
	movzwl	%ax, %edx
	orl	$524288, %edx
	xorw	%ax, %ax
	orb	$238, %ah
	movl	%eax, ia32KSidt+1220
	movl	$int_99, %eax
	movl	%edx, ia32KSidt+1216
	movzwl	%ax, %edx
	xorw	%ax, %ax
	orb	$238, %ah
	orl	$524288, %edx
	movl	%eax, ia32KSidt+1228
	movl	$int_9a, %eax
	movl	%edx, ia32KSidt+1224
	movzwl	%ax, %edx
	xorw	%ax, %ax
	orb	$238, %ah
	orl	$524288, %edx
	movl	%eax, ia32KSidt+1236
	movl	$int_9b, %eax
	movl	%edx, ia32KSidt+1232
	movzwl	%ax, %edx
	xorw	%ax, %ax
	orb	$238, %ah
	orl	$524288, %edx
	movl	%eax, ia32KSidt+1244
	movl	$int_9c, %eax
	movl	%edx, ia32KSidt+1240
	movzwl	%ax, %edx
	xorw	%ax, %ax
	orb	$238, %ah
	orl	$524288, %edx
	movl	%eax, ia32KSidt+1252
	movl	$int_9d, %eax
	movl	%edx, ia32KSidt+1248
	movzwl	%ax, %edx
	xorw	%ax, %ax
	orb	$238, %ah
	orl	$524288, %edx
	movl	%eax, ia32KSidt+1260
	movl	$int_9e, %eax
	movl	%edx, ia32KSidt+1256
	movzwl	%ax, %edx
	xorw	%ax, %ax
	orb	$238, %ah
	orl	$524288, %edx
	movl	%eax, ia32KSidt+1268
	movl	$int_9f, %eax
	movl	%edx, ia32KSidt+1264
	movzwl	%ax, %edx
	xorw	%ax, %ax
	orb	$238, %ah
	orl	$524288, %edx
	movl	%eax, ia32KSidt+1276
	movl	$int_a0, %eax
	movl	%edx, ia32KSidt+1272
	movzwl	%ax, %edx
	xorw	%ax, %ax
	orb	$238, %ah
	orl	$524288, %edx
	movl	%eax, ia32KSidt+1284
	movl	$int_a1, %eax
	movl	%edx, ia32KSidt+1280
	movzwl	%ax, %edx
	xorw	%ax, %ax
	orb	$238, %ah
	orl	$524288, %edx
	movl	%eax, ia32KSidt+1292
	movl	$int_a2, %eax
	movl	%edx, ia32KSidt+1288
	movzwl	%ax, %edx
	xorw	%ax, %ax
	orb	$238, %ah
	orl	$524288, %edx
	movl	%eax, ia32KSidt+1300
	movl	$int_a3, %eax
	movl	%edx, ia32KSidt+1296
	movzwl	%ax, %edx
	orl	$524288, %edx
	xorw	%ax, %ax
	orb	$238, %ah
	movl	%edx, ia32KSidt+1304
	movl	%eax, ia32KSidt+1308
	movl	$int_a4, %eax
	movzwl	%ax, %edx
	xorw	%ax, %ax
	orb	$238, %ah
	orl	$524288, %edx
	movl	%eax, ia32KSidt+1316
	movl	$int_a5, %eax
	movl	%edx, ia32KSidt+1312
	movzwl	%ax, %edx
	xorw	%ax, %ax
	orb	$238, %ah
	orl	$524288, %edx
	movl	%eax, ia32KSidt+1324
	movl	$int_a6, %eax
	movl	%edx, ia32KSidt+1320
	movzwl	%ax, %edx
	xorw	%ax, %ax
	orb	$238, %ah
	orl	$524288, %edx
	movl	%eax, ia32KSidt+1332
	movl	$int_a7, %eax
	movl	%edx, ia32KSidt+1328
	movzwl	%ax, %edx
	xorw	%ax, %ax
	orb	$238, %ah
	orl	$524288, %edx
	movl	%eax, ia32KSidt+1340
	movl	$int_a8, %eax
	movl	%edx, ia32KSidt+1336
	movzwl	%ax, %edx
	xorw	%ax, %ax
	orb	$238, %ah
	orl	$524288, %edx
	movl	%eax, ia32KSidt+1348
	movl	$int_a9, %eax
	movl	%edx, ia32KSidt+1344
	movzwl	%ax, %edx
	xorw	%ax, %ax
	orb	$238, %ah
	orl	$524288, %edx
	movl	%eax, ia32KSidt+1356
	movl	$int_aa, %eax
	movl	%edx, ia32KSidt+1352
	movzwl	%ax, %edx
	xorw	%ax, %ax
	orb	$238, %ah
	orl	$524288, %edx
	movl	%eax, ia32KSidt+1364
	movl	$int_ab, %eax
	movl	%edx, ia32KSidt+1360
	movzwl	%ax, %edx
	xorw	%ax, %ax
	orb	$238, %ah
	orl	$524288, %edx
	movl	%eax, ia32KSidt+1372
	movl	$int_ac, %eax
	movl	%edx, ia32KSidt+1368
	movzwl	%ax, %edx
	xorw	%ax, %ax
	orb	$238, %ah
	orl	$524288, %edx
	movl	%eax, ia32KSidt+1380
	movl	$int_ad, %eax
	movl	%edx, ia32KSidt+1376
	movzwl	%ax, %edx
	xorw	%ax, %ax
	orb	$238, %ah
	orl	$524288, %edx
	movl	%eax, ia32KSidt+1388
	movl	$int_ae, %eax
	movl	%edx, ia32KSidt+1384
	movzwl	%ax, %edx
	orl	$524288, %edx
	xorw	%ax, %ax
	orb	$238, %ah
	movl	%eax, ia32KSidt+1396
	movl	$int_af, %eax
	movl	%edx, ia32KSidt+1392
	movzwl	%ax, %edx
	xorw	%ax, %ax
	orb	$238, %ah
	orl	$524288, %edx
	movl	%eax, ia32KSidt+1404
	movl	$int_b0, %eax
	movl	%edx, ia32KSidt+1400
	movzwl	%ax, %edx
	xorw	%ax, %ax
	orb	$238, %ah
	orl	$524288, %edx
	movl	%eax, ia32KSidt+1412
	movl	$int_b1, %eax
	movl	%edx, ia32KSidt+1408
	movzwl	%ax, %edx
	xorw	%ax, %ax
	orb	$238, %ah
	orl	$524288, %edx
	movl	%eax, ia32KSidt+1420
	movl	$int_b2, %eax
	movl	%edx, ia32KSidt+1416
	movzwl	%ax, %edx
	xorw	%ax, %ax
	orb	$238, %ah
	orl	$524288, %edx
	movl	%eax, ia32KSidt+1428
	movl	$int_b3, %eax
	movl	%edx, ia32KSidt+1424
	movzwl	%ax, %edx
	xorw	%ax, %ax
	orb	$238, %ah
	orl	$524288, %edx
	movl	%eax, ia32KSidt+1436
	movl	$int_b4, %eax
	movl	%edx, ia32KSidt+1432
	movzwl	%ax, %edx
	xorw	%ax, %ax
	orl	$524288, %edx
	orb	$238, %ah
	movl	%edx, ia32KSidt+1440
	movl	%eax, ia32KSidt+1444
	movl	$int_b5, %eax
	movzwl	%ax, %edx
	xorw	%ax, %ax
	orb	$238, %ah
	orl	$524288, %edx
	movl	%eax, ia32KSidt+1452
	movl	$int_b6, %eax
	movl	%edx, ia32KSidt+1448
	movzwl	%ax, %edx
	xorw	%ax, %ax
	orb	$238, %ah
	orl	$524288, %edx
	movl	%eax, ia32KSidt+1460
	movl	$int_b7, %eax
	movl	%edx, ia32KSidt+1456
	movzwl	%ax, %edx
	xorw	%ax, %ax
	orb	$238, %ah
	orl	$524288, %edx
	movl	%eax, ia32KSidt+1468
	movl	$int_b8, %eax
	movl	%edx, ia32KSidt+1464
	movzwl	%ax, %edx
	xorw	%ax, %ax
	orb	$238, %ah
	orl	$524288, %edx
	movl	%eax, ia32KSidt+1476
	movl	$int_b9, %eax
	movl	%edx, ia32KSidt+1472
	movzwl	%ax, %edx
	orl	$524288, %edx
	xorw	%ax, %ax
	orb	$238, %ah
	movl	%eax, ia32KSidt+1484
	movl	$int_ba, %eax
	movl	%edx, ia32KSidt+1480
	movzwl	%ax, %edx
	xorw	%ax, %ax
	orb	$238, %ah
	orl	$524288, %edx
	movl	%eax, ia32KSidt+1492
	movl	$int_bb, %eax
	movl	%edx, ia32KSidt+1488
	movzwl	%ax, %edx
	xorw	%ax, %ax
	orb	$238, %ah
	orl	$524288, %edx
	movl	%eax, ia32KSidt+1500
	movl	$int_bc, %eax
	movl	%edx, ia32KSidt+1496
	movzwl	%ax, %edx
	xorw	%ax, %ax
	orb	$238, %ah
	orl	$524288, %edx
	movl	%eax, ia32KSidt+1508
	movl	$int_bd, %eax
	movl	%edx, ia32KSidt+1504
	movzwl	%ax, %edx
	xorw	%ax, %ax
	orb	$238, %ah
	orl	$524288, %edx
	movl	%eax, ia32KSidt+1516
	movl	$int_be, %eax
	movl	%edx, ia32KSidt+1512
	movzwl	%ax, %edx
	xorw	%ax, %ax
	orb	$238, %ah
	orl	$524288, %edx
	movl	%eax, ia32KSidt+1524
	movl	$int_bf, %eax
	movl	%edx, ia32KSidt+1520
	movzwl	%ax, %edx
	xorw	%ax, %ax
	orb	$238, %ah
	orl	$524288, %edx
	movl	%eax, ia32KSidt+1532
	movl	$int_c0, %eax
	movl	%edx, ia32KSidt+1528
	movzwl	%ax, %edx
	xorw	%ax, %ax
	orb	$238, %ah
	orl	$524288, %edx
	movl	%eax, ia32KSidt+1540
	movl	$int_c1, %eax
	movl	%edx, ia32KSidt+1536
	movzwl	%ax, %edx
	xorw	%ax, %ax
	orb	$238, %ah
	orl	$524288, %edx
	movl	%eax, ia32KSidt+1548
	movl	$int_c2, %eax
	movl	%edx, ia32KSidt+1544
	movzwl	%ax, %edx
	xorw	%ax, %ax
	orb	$238, %ah
	orl	$524288, %edx
	movl	%eax, ia32KSidt+1556
	movl	$int_c3, %eax
	movl	%edx, ia32KSidt+1552
	movzwl	%ax, %edx
	xorw	%ax, %ax
	orb	$238, %ah
	orl	$524288, %edx
	movl	%eax, ia32KSidt+1564
	movl	$int_c4, %eax
	movl	%edx, ia32KSidt+1560
	movzwl	%ax, %edx
	orl	$524288, %edx
	xorw	%ax, %ax
	orb	$238, %ah
	movl	%eax, ia32KSidt+1572
	movl	$int_c5, %eax
	movl	%edx, ia32KSidt+1568
	movzwl	%ax, %edx
	xorw	%ax, %ax
	orl	$524288, %edx
	orb	$238, %ah
	movl	%edx, ia32KSidt+1576
	movl	%eax, ia32KSidt+1580
	movl	$int_c6, %eax
	movzwl	%ax, %edx
	xorw	%ax, %ax
	orb	$238, %ah
	orl	$524288, %edx
	movl	%eax, ia32KSidt+1588
	movl	$int_c7, %eax
	movl	%edx, ia32KSidt+1584
	movzwl	%ax, %edx
	xorw	%ax, %ax
	orb	$238, %ah
	orl	$524288, %edx
	movl	%eax, ia32KSidt+1596
	movl	$int_c8, %eax
	movl	%edx, ia32KSidt+1592
	movzwl	%ax, %edx
	xorw	%ax, %ax
	orb	$238, %ah
	orl	$524288, %edx
	movl	%eax, ia32KSidt+1604
	movl	$int_c9, %eax
	movl	%edx, ia32KSidt+1600
	movzwl	%ax, %edx
	xorw	%ax, %ax
	orb	$238, %ah
	orl	$524288, %edx
	movl	%eax, ia32KSidt+1612
	movl	$int_ca, %eax
	movl	%edx, ia32KSidt+1608
	movzwl	%ax, %edx
	xorw	%ax, %ax
	orb	$238, %ah
	orl	$524288, %edx
	movl	%eax, ia32KSidt+1620
	movl	$int_cb, %eax
	movl	%edx, ia32KSidt+1616
	movzwl	%ax, %edx
	xorw	%ax, %ax
	orb	$238, %ah
	orl	$524288, %edx
	movl	%eax, ia32KSidt+1628
	movl	$int_cc, %eax
	movl	%edx, ia32KSidt+1624
	movzwl	%ax, %edx
	xorw	%ax, %ax
	orb	$238, %ah
	orl	$524288, %edx
	movl	%eax, ia32KSidt+1636
	movl	$int_cd, %eax
	movl	%edx, ia32KSidt+1632
	movzwl	%ax, %edx
	xorw	%ax, %ax
	orb	$238, %ah
	orl	$524288, %edx
	movl	%eax, ia32KSidt+1644
	movl	$int_ce, %eax
	movl	%edx, ia32KSidt+1640
	movzwl	%ax, %edx
	xorw	%ax, %ax
	orb	$238, %ah
	orl	$524288, %edx
	movl	%eax, ia32KSidt+1652
	movl	$int_cf, %eax
	movl	%edx, ia32KSidt+1648
	movzwl	%ax, %edx
	orl	$524288, %edx
	xorw	%ax, %ax
	orb	$238, %ah
	movl	%eax, ia32KSidt+1660
	movl	$int_d0, %eax
	movl	%edx, ia32KSidt+1656
	movzwl	%ax, %edx
	xorw	%ax, %ax
	orb	$238, %ah
	orl	$524288, %edx
	movl	%eax, ia32KSidt+1668
	movl	$int_d1, %eax
	movl	%edx, ia32KSidt+1664
	movzwl	%ax, %edx
	xorw	%ax, %ax
	orb	$238, %ah
	orl	$524288, %edx
	movl	%eax, ia32KSidt+1676
	movl	$int_d2, %eax
	movl	%edx, ia32KSidt+1672
	movzwl	%ax, %edx
	xorw	%ax, %ax
	orb	$238, %ah
	orl	$524288, %edx
	movl	%eax, ia32KSidt+1684
	movl	$int_d3, %eax
	movl	%edx, ia32KSidt+1680
	movzwl	%ax, %edx
	xorw	%ax, %ax
	orb	$238, %ah
	orl	$524288, %edx
	movl	%eax, ia32KSidt+1692
	movl	$int_d4, %eax
	movl	%edx, ia32KSidt+1688
	movzwl	%ax, %edx
	xorw	%ax, %ax
	orb	$238, %ah
	orl	$524288, %edx
	movl	%eax, ia32KSidt+1700
	movl	$int_d5, %eax
	movl	%edx, ia32KSidt+1696
	movzwl	%ax, %edx
	xorw	%ax, %ax
	orb	$238, %ah
	orl	$524288, %edx
	movl	%eax, ia32KSidt+1708
	movl	$int_d6, %eax
	movl	%edx, ia32KSidt+1704
	movzwl	%ax, %edx
	xorw	%ax, %ax
	orl	$524288, %edx
	orb	$238, %ah
	movl	%edx, ia32KSidt+1712
	movl	%eax, ia32KSidt+1716
	movl	$int_d7, %eax
	movzwl	%ax, %edx
	xorw	%ax, %ax
	orb	$238, %ah
	orl	$524288, %edx
	movl	%eax, ia32KSidt+1724
	movl	$int_d8, %eax
	movl	%edx, ia32KSidt+1720
	movzwl	%ax, %edx
	xorw	%ax, %ax
	orb	$238, %ah
	orl	$524288, %edx
	movl	%eax, ia32KSidt+1732
	movl	$int_d9, %eax
	movl	%edx, ia32KSidt+1728
	movzwl	%ax, %edx
	xorw	%ax, %ax
	orb	$238, %ah
	orl	$524288, %edx
	movl	%eax, ia32KSidt+1740
	movl	$int_da, %eax
	movl	%edx, ia32KSidt+1736
	movzwl	%ax, %edx
	orl	$524288, %edx
	xorw	%ax, %ax
	orb	$238, %ah
	movl	%eax, ia32KSidt+1748
	movl	$int_db, %eax
	movl	%edx, ia32KSidt+1744
	movzwl	%ax, %edx
	xorw	%ax, %ax
	orb	$238, %ah
	orl	$524288, %edx
	movl	%eax, ia32KSidt+1756
	movl	$int_dc, %eax
	movl	%edx, ia32KSidt+1752
	movzwl	%ax, %edx
	xorw	%ax, %ax
	orb	$238, %ah
	orl	$524288, %edx
	movl	%eax, ia32KSidt+1764
	movl	$int_dd, %eax
	movl	%edx, ia32KSidt+1760
	movzwl	%ax, %edx
	xorw	%ax, %ax
	orb	$238, %ah
	orl	$524288, %edx
	movl	%eax, ia32KSidt+1772
	movl	$int_de, %eax
	movl	%edx, ia32KSidt+1768
	movzwl	%ax, %edx
	xorw	%ax, %ax
	orb	$238, %ah
	orl	$524288, %edx
	movl	%eax, ia32KSidt+1780
	movl	$int_df, %eax
	movl	%edx, ia32KSidt+1776
	movzwl	%ax, %edx
	xorw	%ax, %ax
	orb	$238, %ah
	orl	$524288, %edx
	movl	%eax, ia32KSidt+1788
	movl	$int_e0, %eax
	movl	%edx, ia32KSidt+1784
	movzwl	%ax, %edx
	xorw	%ax, %ax
	orb	$238, %ah
	orl	$524288, %edx
	movl	%eax, ia32KSidt+1796
	movl	$int_e1, %eax
	movl	%edx, ia32KSidt+1792
	movzwl	%ax, %edx
	xorw	%ax, %ax
	orb	$238, %ah
	orl	$524288, %edx
	movl	%eax, ia32KSidt+1804
	movl	$int_e2, %eax
	movl	%edx, ia32KSidt+1800
	movzwl	%ax, %edx
	xorw	%ax, %ax
	orb	$238, %ah
	orl	$524288, %edx
	movl	%eax, ia32KSidt+1812
	movl	$int_e3, %eax
	movl	%edx, ia32KSidt+1808
	movzwl	%ax, %edx
	xorw	%ax, %ax
	orb	$238, %ah
	orl	$524288, %edx
	movl	%eax, ia32KSidt+1820
	movl	$int_e4, %eax
	movl	%edx, ia32KSidt+1816
	movzwl	%ax, %edx
	xorw	%ax, %ax
	orb	$238, %ah
	orl	$524288, %edx
	movl	%eax, ia32KSidt+1828
	movl	$int_e5, %eax
	movl	%edx, ia32KSidt+1824
	movzwl	%ax, %edx
	orl	$524288, %edx
	xorw	%ax, %ax
	orb	$238, %ah
	movl	%eax, ia32KSidt+1836
	movl	$int_e6, %eax
	movl	%edx, ia32KSidt+1832
	movzwl	%ax, %edx
	xorw	%ax, %ax
	orb	$238, %ah
	orl	$524288, %edx
	movl	%eax, ia32KSidt+1844
	movl	$int_e7, %eax
	movl	%edx, ia32KSidt+1840
	movzwl	%ax, %edx
	xorw	%ax, %ax
	orl	$524288, %edx
	orb	$238, %ah
	movl	%edx, ia32KSidt+1848
	movl	%eax, ia32KSidt+1852
	movl	$int_e8, %eax
	movzwl	%ax, %edx
	xorw	%ax, %ax
	orb	$238, %ah
	orl	$524288, %edx
	movl	%eax, ia32KSidt+1860
	movl	$int_e9, %eax
	movl	%edx, ia32KSidt+1856
	movzwl	%ax, %edx
	xorw	%ax, %ax
	orb	$238, %ah
	orl	$524288, %edx
	movl	%eax, ia32KSidt+1868
	movl	$int_ea, %eax
	movl	%edx, ia32KSidt+1864
	movzwl	%ax, %edx
	xorw	%ax, %ax
	orb	$238, %ah
	orl	$524288, %edx
	movl	%eax, ia32KSidt+1876
	movl	$int_eb, %eax
	movl	%edx, ia32KSidt+1872
	movzwl	%ax, %edx
	xorw	%ax, %ax
	orb	$238, %ah
	orl	$524288, %edx
	movl	%eax, ia32KSidt+1884
	movl	$int_ec, %eax
	movl	%edx, ia32KSidt+1880
	movzwl	%ax, %edx
	xorw	%ax, %ax
	orb	$238, %ah
	orl	$524288, %edx
	movl	%eax, ia32KSidt+1892
	movl	$int_ed, %eax
	movl	%edx, ia32KSidt+1888
	movzwl	%ax, %edx
	xorw	%ax, %ax
	orb	$238, %ah
	orl	$524288, %edx
	movl	%eax, ia32KSidt+1900
	movl	$int_ee, %eax
	movl	%edx, ia32KSidt+1896
	movzwl	%ax, %edx
	xorw	%ax, %ax
	orb	$238, %ah
	orl	$524288, %edx
	movl	%eax, ia32KSidt+1908
	movl	$int_ef, %eax
	movl	%edx, ia32KSidt+1904
	movzwl	%ax, %edx
	xorw	%ax, %ax
	orb	$238, %ah
	orl	$524288, %edx
	movl	%eax, ia32KSidt+1916
	movl	$int_f0, %eax
	movl	%edx, ia32KSidt+1912
	movzwl	%ax, %edx
	orl	$524288, %edx
	xorw	%ax, %ax
	orb	$238, %ah
	movl	%eax, ia32KSidt+1924
	movl	$int_f1, %eax
	movl	%edx, ia32KSidt+1920
	movzwl	%ax, %edx
	xorw	%ax, %ax
	orb	$238, %ah
	orl	$524288, %edx
	movl	%eax, ia32KSidt+1932
	movl	$int_f2, %eax
	movl	%edx, ia32KSidt+1928
	movzwl	%ax, %edx
	xorw	%ax, %ax
	orb	$238, %ah
	orl	$524288, %edx
	movl	%eax, ia32KSidt+1940
	movl	$int_f3, %eax
	movl	%edx, ia32KSidt+1936
	movzwl	%ax, %edx
	xorw	%ax, %ax
	orb	$238, %ah
	orl	$524288, %edx
	movl	%eax, ia32KSidt+1948
	movl	$int_f4, %eax
	movl	%edx, ia32KSidt+1944
	movzwl	%ax, %edx
	xorw	%ax, %ax
	orb	$238, %ah
	orl	$524288, %edx
	movl	%eax, ia32KSidt+1956
	movl	$int_f5, %eax
	movl	%edx, ia32KSidt+1952
	movzwl	%ax, %edx
	xorw	%ax, %ax
	orb	$238, %ah
	orl	$524288, %edx
	movl	%eax, ia32KSidt+1964
	movl	$int_f6, %eax
	movl	%edx, ia32KSidt+1960
	movzwl	%ax, %edx
	xorw	%ax, %ax
	orb	$238, %ah
	orl	$524288, %edx
	movl	%eax, ia32KSidt+1972
	movl	$int_f7, %eax
	movl	%edx, ia32KSidt+1968
	movzwl	%ax, %edx
	xorw	%ax, %ax
	orb	$238, %ah
	orl	$524288, %edx
	movl	%eax, ia32KSidt+1980
	movl	$int_f8, %eax
	movl	%edx, ia32KSidt+1976
	movzwl	%ax, %edx
	xorw	%ax, %ax
	orl	$524288, %edx
	orb	$238, %ah
	movl	%edx, ia32KSidt+1984
	movl	%eax, ia32KSidt+1988
	movl	$int_f9, %eax
	movzwl	%ax, %edx
	xorw	%ax, %ax
	orb	$238, %ah
	orl	$524288, %edx
	movl	%eax, ia32KSidt+1996
	movl	$int_fa, %eax
	movl	%edx, ia32KSidt+1992
	movzwl	%ax, %edx
	xorw	%ax, %ax
	orb	$238, %ah
	orl	$524288, %edx
	movl	%eax, ia32KSidt+2004
	movl	$int_fb, %eax
	movl	%edx, ia32KSidt+2000
	movzwl	%ax, %edx
	orl	$524288, %edx
	xorw	%ax, %ax
	orb	$238, %ah
	movl	%eax, ia32KSidt+2012
	movl	$int_fc, %eax
	movl	%edx, ia32KSidt+2008
	movzwl	%ax, %edx
	xorw	%ax, %ax
	orb	$238, %ah
	orl	$524288, %edx
	movl	%eax, ia32KSidt+2020
	movl	$int_fd, %eax
	movl	%edx, ia32KSidt+2016
	movzwl	%ax, %edx
	xorw	%ax, %ax
	orb	$238, %ah
	orl	$524288, %edx
	movl	%eax, ia32KSidt+2028
	movl	$int_fe, %eax
	movl	%edx, ia32KSidt+2024
	movzwl	%ax, %edx
	xorw	%ax, %ax
	orb	$238, %ah
	orl	$524288, %edx
	movl	%eax, ia32KSidt+2036
	movl	$int_ff, %eax
	movl	%edx, ia32KSidt+2032
	movzwl	%ax, %edx
	xorw	%ax, %ax
	orb	$238, %ah
	orl	$524288, %edx
	movl	%eax, ia32KSidt+2044
	movl	$1, %eax
	movl	%edx, ia32KSidt+2040
	addl	$12, %esp
	.cfi_def_cfa_offset 4
	ret
	.cfi_endproc
.LFE333:
	.size	init_vm_state, .-init_vm_state
	.p2align 4,,15
	.globl	init_dtrs
	.type	init_dtrs, @function
init_dtrs:
.LFB334:
	.cfi_startproc
	movl	$63, %eax
	subl	$28, %esp
	.cfi_def_cfa_offset 32
	movw	%ax, gdt_idt_ptr
	movl	$ia32KSgdt, %eax
	movw	%ax, gdt_idt_ptr+2
	shrl	$16, %eax
	movl	$gdt_idt_ptr, (%esp)
	movw	%ax, gdt_idt_ptr+4
	call	ia32_install_gdt
	movl	$ia32KSidt, %eax
	movl	$2047, %edx
	movw	%ax, gdt_idt_ptr+2
	shrl	$16, %eax
	movl	$gdt_idt_ptr, (%esp)
	movw	%dx, gdt_idt_ptr
	movw	%ax, gdt_idt_ptr+4
	call	ia32_install_idt
	movl	$0, (%esp)
	call	ia32_install_ldt
	movl	$40, (%esp)
	call	ia32_install_tss
	addl	$28, %esp
	.cfi_def_cfa_offset 4
	ret
	.cfi_endproc
.LFE334:
	.size	init_dtrs, .-init_dtrs
	.p2align 4,,15
	.globl	map_it_pt_cap
	.type	map_it_pt_cap, @function
map_it_pt_cap:
.LFB335:
	.cfi_startproc
	pushl	%ebp
	.cfi_def_cfa_offset 8
	.cfi_offset 5, -8
	pushl	%edi
	.cfi_def_cfa_offset 12
	.cfi_offset 7, -12
	pushl	%esi
	.cfi_def_cfa_offset 16
	.cfi_offset 6, -16
	pushl	%ebx
	.cfi_def_cfa_offset 20
	.cfi_offset 3, -20
	subl	$12, %esp
	.cfi_def_cfa_offset 32
	movl	32(%esp), %ecx
	movl	36(%esp), %edi
	movl	40(%esp), %ebx
	movl	44(%esp), %esi
	movl	%ecx, %ebp
	movl	%ecx, %eax
	andl	$14, %ebp
	andl	$15, %eax
	movzbl	%cl, %edx
	cmpl	$14, %ebp
	cmove	%edx, %eax
	cmpl	$62, %eax
	ja	.L466
	jmp	*.L468(,%eax,4)
	.section	.rodata
	.align 4
	.align 4
.L468:
	.long	.L480
	.long	.L475
	.long	.L474
	.long	.L475
	.long	.L474
	.long	.L475
	.long	.L474
	.long	.L480
	.long	.L480
	.long	.L475
	.long	.L476
	.long	.L480
	.long	.L477
	.long	.L466
	.long	.L480
	.long	.L466
	.long	.L466
	.long	.L466
	.long	.L466
	.long	.L466
	.long	.L466
	.long	.L466
	.long	.L466
	.long	.L466
	.long	.L466
	.long	.L466
	.long	.L466
	.long	.L466
	.long	.L466
	.long	.L466
	.long	.L480
	.long	.L466
	.long	.L466
	.long	.L466
	.long	.L466
	.long	.L466
	.long	.L466
	.long	.L466
	.long	.L466
	.long	.L466
	.long	.L466
	.long	.L466
	.long	.L466
	.long	.L466
	.long	.L466
	.long	.L466
	.long	.L478
	.long	.L466
	.long	.L466
	.long	.L466
	.long	.L466
	.long	.L466
	.long	.L466
	.long	.L466
	.long	.L466
	.long	.L466
	.long	.L466
	.long	.L466
	.long	.L466
	.long	.L466
	.long	.L466
	.long	.L466
	.long	.L480
	.section	.boot.text
	.p2align 4,,7
	.p2align 3
.L475:
	andl	$16777200, %ecx
	sall	$8, %ecx
.L467:
	movl	%ebx, %eax
	andl	$1023, %esi
	andl	$16777200, %eax
	sall	$8, %eax
	addl	$536870912, %eax
	orl	$7, %eax
	movl	%eax, (%ecx,%esi,4)
	addl	$12, %esp
	.cfi_remember_state
	.cfi_def_cfa_offset 20
	popl	%ebx
	.cfi_restore 3
	.cfi_def_cfa_offset 16
	popl	%esi
	.cfi_restore 6
	.cfi_def_cfa_offset 12
	popl	%edi
	.cfi_restore 7
	.cfi_def_cfa_offset 8
	popl	%ebp
	.cfi_restore 5
	.cfi_def_cfa_offset 4
	jmp	invalidatePageStructureCache
	.p2align 4,,7
	.p2align 3
.L474:
	.cfi_restore_state
	andl	$-16, %ecx
	jmp	.L467
	.p2align 4,,7
	.p2align 3
.L480:
	xorl	%ecx, %ecx
	jmp	.L467
	.p2align 4,,7
	.p2align 3
.L478:
	andl	$16128, %ecx
	shrl	$8, %ecx
	cmpl	$32, %ecx
	je	.L481
	addl	$1, %ecx
	movl	$-1, %eax
	sall	%cl, %eax
.L479:
	andl	%edi, %eax
	movl	%eax, %ecx
	jmp	.L467
	.p2align 4,,7
	.p2align 3
.L477:
	andl	$-1024, %ecx
	jmp	.L467
	.p2align 4,,7
	.p2align 3
.L476:
	andl	$2147483632, %ecx
	addl	%ecx, %ecx
	jmp	.L467
	.p2align 4,,7
	.p2align 3
.L466:
	call	halt
	.p2align 4,,7
	.p2align 3
.L481:
	movl	$-16, %eax
	jmp	.L479
	.cfi_endproc
.LFE335:
	.size	map_it_pt_cap, .-map_it_pt_cap
	.p2align 4,,15
	.globl	map_it_frame_cap
	.type	map_it_frame_cap, @function
map_it_frame_cap:
.LFB336:
	.cfi_startproc
	pushl	%ebp
	.cfi_def_cfa_offset 8
	.cfi_offset 5, -8
	pushl	%edi
	.cfi_def_cfa_offset 12
	.cfi_offset 7, -12
	pushl	%esi
	.cfi_def_cfa_offset 16
	.cfi_offset 6, -16
	pushl	%ebx
	.cfi_def_cfa_offset 20
	.cfi_offset 3, -20
	subl	$12, %esp
	.cfi_def_cfa_offset 32
	movl	32(%esp), %ecx
	movl	36(%esp), %edi
	movl	40(%esp), %ebx
	movl	44(%esp), %edx
	movl	%ecx, %ebp
	movl	%ecx, %eax
	andl	$14, %ebp
	andl	$15, %eax
	movzbl	%cl, %esi
	cmpl	$14, %ebp
	cmove	%esi, %eax
	cmpl	$62, %eax
	ja	.L486
	jmp	*.L488(,%eax,4)
	.section	.rodata
	.align 4
	.align 4
.L488:
	.long	.L500
	.long	.L495
	.long	.L494
	.long	.L495
	.long	.L494
	.long	.L495
	.long	.L494
	.long	.L500
	.long	.L500
	.long	.L495
	.long	.L496
	.long	.L500
	.long	.L497
	.long	.L486
	.long	.L500
	.long	.L486
	.long	.L486
	.long	.L486
	.long	.L486
	.long	.L486
	.long	.L486
	.long	.L486
	.long	.L486
	.long	.L486
	.long	.L486
	.long	.L486
	.long	.L486
	.long	.L486
	.long	.L486
	.long	.L486
	.long	.L500
	.long	.L486
	.long	.L486
	.long	.L486
	.long	.L486
	.long	.L486
	.long	.L486
	.long	.L486
	.long	.L486
	.long	.L486
	.long	.L486
	.long	.L486
	.long	.L486
	.long	.L486
	.long	.L486
	.long	.L486
	.long	.L498
	.long	.L486
	.long	.L486
	.long	.L486
	.long	.L486
	.long	.L486
	.long	.L486
	.long	.L486
	.long	.L486
	.long	.L486
	.long	.L486
	.long	.L486
	.long	.L486
	.long	.L486
	.long	.L486
	.long	.L486
	.long	.L500
	.section	.boot.text
	.p2align 4,,7
	.p2align 3
.L495:
	andl	$16777200, %ecx
	sall	$8, %ecx
.L487:
	sall	$12, %edx
	andl	$16777200, %ebx
	movl	%edx, %eax
	andl	$4194303, %edx
	shrl	$22, %eax
	movl	(%ecx,%eax,4), %eax
	movl	%ebx, %ecx
	sall	$8, %ecx
	addl	$536870912, %ecx
	shrl	$12, %edx
	orl	$7, %ecx
	andl	$-4096, %eax
	movl	%ecx, -536870912(%eax,%edx,4)
	addl	$12, %esp
	.cfi_remember_state
	.cfi_def_cfa_offset 20
	popl	%ebx
	.cfi_restore 3
	.cfi_def_cfa_offset 16
	popl	%esi
	.cfi_restore 6
	.cfi_def_cfa_offset 12
	popl	%edi
	.cfi_restore 7
	.cfi_def_cfa_offset 8
	popl	%ebp
	.cfi_restore 5
	.cfi_def_cfa_offset 4
	jmp	invalidatePageStructureCache
	.p2align 4,,7
	.p2align 3
.L494:
	.cfi_restore_state
	andl	$-16, %ecx
	jmp	.L487
	.p2align 4,,7
	.p2align 3
.L500:
	xorl	%ecx, %ecx
	jmp	.L487
	.p2align 4,,7
	.p2align 3
.L498:
	andl	$16128, %ecx
	shrl	$8, %ecx
	cmpl	$32, %ecx
	je	.L501
	addl	$1, %ecx
	movl	$-1, %eax
	sall	%cl, %eax
.L499:
	andl	%edi, %eax
	movl	%eax, %ecx
	jmp	.L487
	.p2align 4,,7
	.p2align 3
.L497:
	andl	$-1024, %ecx
	jmp	.L487
	.p2align 4,,7
	.p2align 3
.L496:
	andl	$2147483632, %ecx
	addl	%ecx, %ecx
	jmp	.L487
	.p2align 4,,7
	.p2align 3
.L486:
	call	halt
	.p2align 4,,7
	.p2align 3
.L501:
	movl	$-16, %eax
	jmp	.L499
	.cfi_endproc
.LFE336:
	.size	map_it_frame_cap, .-map_it_frame_cap
	.p2align 4,,15
	.globl	write_it_asid_pool
	.type	write_it_asid_pool, @function
write_it_asid_pool:
.LFB337:
	.cfi_startproc
	pushl	%ebp
	.cfi_def_cfa_offset 8
	.cfi_offset 5, -8
	pushl	%edi
	.cfi_def_cfa_offset 12
	.cfi_offset 7, -12
	pushl	%esi
	.cfi_def_cfa_offset 16
	.cfi_offset 6, -16
	pushl	%ebx
	.cfi_def_cfa_offset 20
	.cfi_offset 3, -20
	subl	$12, %esp
	.cfi_def_cfa_offset 32
	movl	32(%esp), %ecx
	movl	36(%esp), %ebx
	movl	40(%esp), %edx
	movl	44(%esp), %esi
	movl	%ecx, %ebp
	movl	%ecx, %eax
	andl	$14, %ebp
	andl	$15, %eax
	movzbl	%cl, %edi
	cmpl	$14, %ebp
	cmove	%edi, %eax
	cmpl	$62, %eax
	ja	.L522
	jmp	*.L508(,%eax,4)
	.section	.rodata
	.align 4
	.align 4
.L508:
	.long	.L536
	.long	.L515
	.long	.L514
	.long	.L515
	.long	.L514
	.long	.L515
	.long	.L514
	.long	.L536
	.long	.L536
	.long	.L515
	.long	.L516
	.long	.L536
	.long	.L517
	.long	.L522
	.long	.L536
	.long	.L522
	.long	.L522
	.long	.L522
	.long	.L522
	.long	.L522
	.long	.L522
	.long	.L522
	.long	.L522
	.long	.L522
	.long	.L522
	.long	.L522
	.long	.L522
	.long	.L522
	.long	.L522
	.long	.L522
	.long	.L536
	.long	.L522
	.long	.L522
	.long	.L522
	.long	.L522
	.long	.L522
	.long	.L522
	.long	.L522
	.long	.L522
	.long	.L522
	.long	.L522
	.long	.L522
	.long	.L522
	.long	.L522
	.long	.L522
	.long	.L522
	.long	.L518
	.long	.L522
	.long	.L522
	.long	.L522
	.long	.L522
	.long	.L522
	.long	.L522
	.long	.L522
	.long	.L522
	.long	.L522
	.long	.L522
	.long	.L522
	.long	.L522
	.long	.L522
	.long	.L522
	.long	.L522
	.long	.L536
	.section	.boot.text
	.p2align 4,,7
	.p2align 3
.L515:
	movl	%ecx, %ebx
	andl	$16777200, %ebx
	sall	$8, %ebx
.L507:
	movl	%edx, %edi
	movl	%edx, %eax
	andl	$14, %edi
	andl	$15, %eax
	movzbl	%dl, %ecx
	cmpl	$14, %edi
	cmove	%ecx, %eax
	cmpl	$62, %eax
	ja	.L522
	jmp	*.L524(,%eax,4)
	.section	.rodata
	.align 4
	.align 4
.L524:
	.long	.L538
	.long	.L531
	.long	.L530
	.long	.L531
	.long	.L530
	.long	.L531
	.long	.L530
	.long	.L538
	.long	.L538
	.long	.L531
	.long	.L532
	.long	.L538
	.long	.L533
	.long	.L522
	.long	.L538
	.long	.L522
	.long	.L522
	.long	.L522
	.long	.L522
	.long	.L522
	.long	.L522
	.long	.L522
	.long	.L522
	.long	.L522
	.long	.L522
	.long	.L522
	.long	.L522
	.long	.L522
	.long	.L522
	.long	.L522
	.long	.L538
	.long	.L522
	.long	.L522
	.long	.L522
	.long	.L522
	.long	.L522
	.long	.L522
	.long	.L522
	.long	.L522
	.long	.L522
	.long	.L522
	.long	.L522
	.long	.L522
	.long	.L522
	.long	.L522
	.long	.L522
	.long	.L534
	.long	.L522
	.long	.L522
	.long	.L522
	.long	.L522
	.long	.L522
	.long	.L522
	.long	.L522
	.long	.L522
	.long	.L522
	.long	.L522
	.long	.L522
	.long	.L522
	.long	.L522
	.long	.L522
	.long	.L522
	.long	.L538
	.section	.boot.text
	.p2align 4,,7
	.p2align 3
.L531:
	andl	$16777200, %edx
	sall	$8, %edx
.L523:
	movl	%edx, 4(%ebx)
	movl	%ebx, ia32KSASIDTable
	addl	$12, %esp
	.cfi_remember_state
	.cfi_def_cfa_offset 20
	popl	%ebx
	.cfi_restore 3
	.cfi_def_cfa_offset 16
	popl	%esi
	.cfi_restore 6
	.cfi_def_cfa_offset 12
	popl	%edi
	.cfi_restore 7
	.cfi_def_cfa_offset 8
	popl	%ebp
	.cfi_restore 5
	.cfi_def_cfa_offset 4
	ret
	.p2align 4,,7
	.p2align 3
.L514:
	.cfi_restore_state
	movl	%ecx, %ebx
	andl	$-16, %ebx
	jmp	.L507
	.p2align 4,,7
	.p2align 3
.L530:
	andl	$-16, %edx
	jmp	.L523
	.p2align 4,,7
	.p2align 3
.L536:
	xorl	%ebx, %ebx
	jmp	.L507
	.p2align 4,,7
	.p2align 3
.L518:
	andl	$16128, %ecx
	shrl	$8, %ecx
	cmpl	$32, %ecx
	je	.L537
	addl	$1, %ecx
	movl	$-1, %eax
	sall	%cl, %eax
	andl	%eax, %ebx
	jmp	.L507
	.p2align 4,,7
	.p2align 3
.L517:
	movl	%ecx, %ebx
	andl	$-1024, %ebx
	jmp	.L507
	.p2align 4,,7
	.p2align 3
.L516:
	andl	$2147483632, %ecx
	leal	(%ecx,%ecx), %ebx
	jmp	.L507
	.p2align 4,,7
	.p2align 3
.L538:
	xorl	%edx, %edx
	jmp	.L523
	.p2align 4,,7
	.p2align 3
.L532:
	andl	$2147483632, %edx
	addl	%edx, %edx
	jmp	.L523
	.p2align 4,,7
	.p2align 3
.L533:
	andl	$-1024, %edx
	jmp	.L523
	.p2align 4,,7
	.p2align 3
.L534:
	andl	$16128, %edx
	shrl	$8, %edx
	cmpl	$32, %edx
	je	.L539
	leal	1(%edx), %ecx
	movl	$-1, %edx
	sall	%cl, %edx
	andl	%esi, %edx
	jmp	.L523
	.p2align 4,,7
	.p2align 3
.L522:
	call	halt
	.p2align 4,,7
	.p2align 3
.L537:
	movl	$-16, %eax
	andl	%eax, %ebx
	jmp	.L507
	.p2align 4,,7
	.p2align 3
.L539:
	movl	$-16, %edx
	andl	%esi, %edx
	jmp	.L523
	.cfi_endproc
.LFE337:
	.size	write_it_asid_pool, .-write_it_asid_pool
	.p2align 4,,15
	.globl	init_pat_msr
	.type	init_pat_msr, @function
init_pat_msr:
.LFB338:
	.cfi_startproc
	pushl	%ebx
	.cfi_def_cfa_offset 8
	.cfi_offset 3, -8
	subl	$24, %esp
	.cfi_def_cfa_offset 32
	movl	$0, 4(%esp)
	movl	$1, (%esp)
	call	ia32_cpuid_edx
	xorl	%edx, %edx
	testl	$65536, %eax
	je	.L542
	movl	$631, (%esp)
	call	ia32_rdmsr_low
	movl	$631, (%esp)
	movl	%eax, %ebx
	call	ia32_rdmsr_high
	movl	$631, (%esp)
	movl	%eax, %edx
	movl	%ebx, %eax
	andl	$-117901064, %eax
	andl	$-8, %edx
	orl	$1, %edx
	orl	$459782, %eax
	movl	%edx, 4(%esp)
	movl	%eax, 8(%esp)
	call	ia32_wrmsr
	movl	$1, %edx
.L542:
	addl	$24, %esp
	.cfi_def_cfa_offset 8
	movl	%edx, %eax
	popl	%ebx
	.cfi_restore 3
	.cfi_def_cfa_offset 4
	ret
	.cfi_endproc
.LFE338:
	.size	init_pat_msr, .-init_pat_msr
	.text
	.p2align 4,,15
	.globl	lookupIPCBuffer
	.type	lookupIPCBuffer, @function
lookupIPCBuffer:
.LFB343:
	.cfi_startproc
	pushl	%edi
	.cfi_def_cfa_offset 8
	.cfi_offset 7, -8
	pushl	%esi
	.cfi_def_cfa_offset 12
	.cfi_offset 6, -12
	pushl	%ebx
	.cfi_def_cfa_offset 16
	.cfi_offset 3, -16
	movl	20(%esp), %eax
	movl	636(%eax), %ebx
	andl	$-1024, %eax
	movl	64(%eax), %edx
	movl	68(%eax), %edi
	movl	%edx, %esi
	movl	%edx, %eax
	andl	$14, %esi
	andl	$15, %eax
	movzbl	%dl, %ecx
	cmpl	$14, %esi
	cmove	%ecx, %eax
	cmpl	$1, %eax
	jne	.L555
	movl	%edx, %eax
	andl	$50331648, %eax
	shrl	$24, %eax
	cmpl	$3, %eax
	je	.L550
	cmpl	$2, %eax
	jne	.L555
	movl	16(%esp), %eax
	testl	%eax, %eax
	jne	.L555
.L550:
	movl	%edi, %eax
	shrl	$31, %eax
	testl	%eax, %eax
	je	.L552
	cmpl	$1, %eax
	je	.L556
	call	halt
	.p2align 4,,7
	.p2align 3
.L552:
	movl	$4095, %eax
.L553:
	andl	$16777200, %edx
	andl	%eax, %ebx
	sall	$8, %edx
	leal	(%ebx,%edx), %eax
	popl	%ebx
	.cfi_remember_state
	.cfi_restore 3
	.cfi_def_cfa_offset 12
	popl	%esi
	.cfi_restore 6
	.cfi_def_cfa_offset 8
	popl	%edi
	.cfi_restore 7
	.cfi_def_cfa_offset 4
	ret
	.p2align 4,,7
	.p2align 3
.L555:
	.cfi_restore_state
	popl	%ebx
	.cfi_remember_state
	.cfi_restore 3
	.cfi_def_cfa_offset 12
	xorl	%eax, %eax
	popl	%esi
	.cfi_restore 6
	.cfi_def_cfa_offset 8
	popl	%edi
	.cfi_restore 7
	.cfi_def_cfa_offset 4
	ret
	.p2align 4,,7
	.p2align 3
.L556:
	.cfi_restore_state
	movl	$4194303, %eax
	jmp	.L553
	.cfi_endproc
.LFE343:
	.size	lookupIPCBuffer, .-lookupIPCBuffer
	.p2align 4,,15
	.globl	handleFaultReply
	.type	handleFaultReply, @function
handleFaultReply:
.LFB258:
	.cfi_startproc
	pushl	%ebp
	.cfi_def_cfa_offset 8
	.cfi_offset 5, -8
	pushl	%edi
	.cfi_def_cfa_offset 12
	.cfi_offset 7, -12
	pushl	%esi
	.cfi_def_cfa_offset 16
	.cfi_offset 6, -16
	pushl	%ebx
	.cfi_def_cfa_offset 20
	.cfi_offset 3, -20
	subl	$28, %esp
	.cfi_def_cfa_offset 48
	movl	52(%esp), %ebx
	movl	48(%esp), %edi
	movl	16(%ebx), %eax
	movl	%eax, %esi
	andl	$127, %esi
	cmpl	$120, %esi
	jbe	.L568
	andl	$-128, %eax
	movl	$120, %esi
	orl	$120, %eax
.L568:
	shrl	$12, %eax
	movl	%eax, 8(%esp)
	movl	604(%edi), %eax
	andl	$7, %eax
	cmpl	$3, %eax
	je	.L570
	ja	.L571
	cmpl	$1, %eax
	jb	.L569
	addl	$28, %esp
	.cfi_remember_state
	.cfi_def_cfa_offset 20
	movl	$1, %eax
	popl	%ebx
	.cfi_restore 3
	.cfi_def_cfa_offset 16
	popl	%esi
	.cfi_restore 6
	.cfi_def_cfa_offset 12
	popl	%edi
	.cfi_restore 7
	.cfi_def_cfa_offset 8
	popl	%ebp
	.cfi_restore 5
	.cfi_def_cfa_offset 4
	ret
	.p2align 4,,7
	.p2align 3
.L571:
	.cfi_restore_state
	cmpl	$4, %eax
	jne	.L569
	movl	%ebx, 4(%esp)
	movl	$0, (%esp)
	call	lookupIPCBuffer
	xorl	%ecx, %ecx
	testl	%esi, %esi
	je	.L581
	movl	20(%ebx), %edx
	cmpl	$1, %esi
	movb	$1, %cl
	movl	%edx, 44(%edi)
	jbe	.L581
	movl	24(%ebx), %edx
	movb	$2, %cl
	movl	%edx, 68(%edi)
.L581:
	testl	%eax, %eax
	je	.L584
	cmpl	%esi, %ecx
	jae	.L584
	movl	exceptionMessage(,%ecx,4), %ebx
	leal	1(%ecx), %edx
	movl	(%eax,%edx,4), %ebp
	cmpl	$16, %ebx
	movl	%ebp, 12(%esp)
	je	.L585
	leal	-9(%ebx), %ebp
	cmpl	$1, %ebp
	ja	.L586
	movl	12(%esp), %ebp
	andl	$-9, %ebp
	cmpl	$51, %ebp
	movl	$0, %ebp
	cmove	12(%esp), %ebp
	movl	%ebp, 12(%esp)
.L586:
	movl	12(%esp), %ebp
	cmpl	%esi, %edx
	movl	%ebp, (%edi,%ebx,4)
	jae	.L584
	cmpl	$2, %edx
	ja	.L584
	movl	exceptionMessage(,%edx,4), %ebx
	addl	$2, %ecx
	movl	(%eax,%ecx,4), %edx
	cmpl	$16, %ebx
	je	.L587
	leal	-9(%ebx), %ebp
	cmpl	$1, %ebp
	ja	.L588
	movl	%edx, %ebp
	andl	$-9, %ebp
	cmpl	$51, %ebp
	movl	$0, %ebp
	cmovne	%ebp, %edx
.L588:
	cmpl	%esi, %ecx
	movl	%edx, (%edi,%ebx,4)
	jae	.L584
	cmpl	$2, %ecx
	ja	.L584
	movl	12(%eax), %eax
	andl	$4055, %eax
	orl	$514, %eax
	movl	%eax, 64(%edi)
.L584:
	movl	8(%esp), %edx
	xorl	%eax, %eax
	testl	%edx, %edx
	sete	%al
	addl	$28, %esp
	.cfi_remember_state
	.cfi_def_cfa_offset 20
	popl	%ebx
	.cfi_restore 3
	.cfi_def_cfa_offset 16
	popl	%esi
	.cfi_restore 6
	.cfi_def_cfa_offset 12
	popl	%edi
	.cfi_restore 7
	.cfi_def_cfa_offset 8
	popl	%ebp
	.cfi_restore 5
	.cfi_def_cfa_offset 4
	ret
	.p2align 4,,7
	.p2align 3
.L570:
	.cfi_restore_state
	movl	%ebx, 4(%esp)
	movl	$0, (%esp)
	call	lookupIPCBuffer
	xorl	%edx, %edx
	testl	%esi, %esi
	je	.L574
	movl	20(%ebx), %edx
	cmpl	$1, %esi
	movl	%edx, (%edi)
	movl	$1, %edx
	jbe	.L574
	movl	24(%ebx), %edx
	movl	%edx, 4(%edi)
	movl	$2, %edx
.L574:
	testl	%eax, %eax
	jne	.L576
	jmp	.L577
	.p2align 4,,7
	.p2align 3
.L578:
	leal	-9(%ebx), %ebp
	cmpl	$1, %ebp
	ja	.L579
	movl	%ecx, %ebp
	andl	$-9, %ebp
	cmpl	$51, %ebp
	movl	$0, %ebp
	cmovne	%ebp, %ecx
.L579:
	cmpl	$9, %edx
	movl	%ecx, (%edi,%ebx,4)
	ja	.L577
.L576:
	cmpl	%esi, %edx
	jae	.L577
	movl	syscallMessage(,%edx,4), %ebx
	addl	$1, %edx
	movl	(%eax,%edx,4), %ecx
	cmpl	$16, %ebx
	jne	.L578
	andl	$4055, %ecx
	orl	$514, %ecx
	cmpl	$9, %edx
	movl	%ecx, (%edi,%ebx,4)
	jbe	.L576
	.p2align 4,,7
	.p2align 3
.L577:
	movl	56(%edi), %eax
	movl	8(%esp), %ecx
	movl	%eax, 44(%edi)
	xorl	%eax, %eax
	testl	%ecx, %ecx
	sete	%al
	addl	$28, %esp
	.cfi_remember_state
	.cfi_def_cfa_offset 20
	popl	%ebx
	.cfi_restore 3
	.cfi_def_cfa_offset 16
	popl	%esi
	.cfi_restore 6
	.cfi_def_cfa_offset 12
	popl	%edi
	.cfi_restore 7
	.cfi_def_cfa_offset 8
	popl	%ebp
	.cfi_restore 5
	.cfi_def_cfa_offset 4
	ret
	.p2align 4,,7
	.p2align 3
.L569:
	.cfi_restore_state
	call	halt
	.p2align 4,,7
	.p2align 3
.L587:
	andl	$4055, %edx
	orl	$514, %edx
	jmp	.L588
	.p2align 4,,7
	.p2align 3
.L585:
	andl	$4055, 12(%esp)
	orl	$514, 12(%esp)
	jmp	.L586
	.cfi_endproc
.LFE258:
	.size	handleFaultReply, .-handleFaultReply
	.p2align 4,,15
	.globl	handleVMFault
	.type	handleVMFault, @function
handleVMFault:
.LFB346:
	.cfi_startproc
	pushl	%ebx
	.cfi_def_cfa_offset 8
	.cfi_offset 3, -8
	subl	$8, %esp
	.cfi_def_cfa_offset 16
	movl	20(%esp), %ebx
	call	getFaultAddr
	movl	16(%esp), %edx
	testl	%ebx, %ebx
	movl	52(%edx), %edx
	je	.L622
	cmpl	$1, %ebx
	jne	.L627
	sall	$27, %edx
	orl	$524290, %edx
	movl	%eax, current_fault+4
	movl	$1, %eax
	movl	%edx, current_fault
	addl	$8, %esp
	.cfi_remember_state
	.cfi_def_cfa_offset 8
	popl	%ebx
	.cfi_restore 3
	.cfi_def_cfa_offset 4
	ret
	.p2align 4,,7
	.p2align 3
.L627:
	.cfi_restore_state
	call	halt
	.p2align 4,,7
	.p2align 3
.L622:
	sall	$27, %edx
	orl	$2, %edx
	movl	%eax, current_fault+4
	movl	$1, %eax
	movl	%edx, current_fault
	addl	$8, %esp
	.cfi_def_cfa_offset 8
	popl	%ebx
	.cfi_restore 3
	.cfi_def_cfa_offset 4
	ret
	.cfi_endproc
.LFE346:
	.size	handleVMFault, .-handleVMFault
	.p2align 4,,15
	.globl	isValidVTableRoot
	.type	isValidVTableRoot, @function
isValidVTableRoot:
.LFB347:
	.cfi_startproc
	pushl	%ebx
	.cfi_def_cfa_offset 8
	.cfi_offset 3, -8
	movl	8(%esp), %eax
	movl	12(%esp), %ebx
	movl	%eax, %ecx
	movl	%eax, %edx
	andl	$14, %ecx
	andl	$15, %edx
	movzbl	%al, %eax
	cmpl	$14, %ecx
	cmove	%eax, %edx
	xorl	%eax, %eax
	cmpl	$5, %edx
	je	.L634
	popl	%ebx
	.cfi_remember_state
	.cfi_restore 3
	.cfi_def_cfa_offset 4
	ret
	.p2align 4,,7
	.p2align 3
.L634:
	.cfi_restore_state
	xorl	%eax, %eax
	andl	$65536, %ebx
	setne	%al
	popl	%ebx
	.cfi_restore 3
	.cfi_def_cfa_offset 4
	ret
	.cfi_endproc
.LFE347:
	.size	isValidVTableRoot, .-isValidVTableRoot
	.p2align 4,,15
	.globl	checkValidIPCBuffer
	.type	checkValidIPCBuffer, @function
checkValidIPCBuffer:
.LFB348:
	.cfi_startproc
	movl	8(%esp), %edx
	movl	%edx, %ecx
	movl	%edx, %eax
	andl	$14, %ecx
	andl	$15, %eax
	movzbl	%dl, %edx
	cmpl	$14, %ecx
	cmove	%edx, %eax
	cmpl	$1, %eax
	je	.L638
	movl	$3, current_syscall_error+24
	movl	$3, %eax
	ret
	.p2align 4,,7
	.p2align 3
.L638:
	xorl	%eax, %eax
	testl	$511, 4(%esp)
	je	.L639
	movl	$5, current_syscall_error+24
	movb	$3, %al
.L639:
	rep ret
	.cfi_endproc
.LFE348:
	.size	checkValidIPCBuffer, .-checkValidIPCBuffer
	.p2align 4,,15
	.globl	maskVMRights
	.type	maskVMRights, @function
maskVMRights:
.LFB349:
	.cfi_startproc
	movl	4(%esp), %edx
	cmpl	$2, %edx
	je	.L651
	cmpl	$3, %edx
	movl	$1, %eax
	je	.L652
.L645:
	rep ret
	.p2align 4,,7
	.p2align 3
.L652:
	testb	$2, 8(%esp)
	je	.L645
	movl	8(%esp), %eax
	andl	$1, %eax
	cmpl	$1, %eax
	sbbl	%eax, %eax
	addl	$3, %eax
	ret
	.p2align 4,,7
	.p2align 3
.L651:
	movl	8(%esp), %eax
	andl	$2, %eax
	shrl	%eax
	cmpl	$1, %eax
	sbbl	%eax, %eax
	addl	$2, %eax
	ret
	.cfi_endproc
.LFE349:
	.size	maskVMRights, .-maskVMRights
	.p2align 4,,15
	.globl	setVMRoot
	.type	setVMRoot, @function
setVMRoot:
.LFB352:
	.cfi_startproc
	pushl	%esi
	.cfi_def_cfa_offset 8
	.cfi_offset 6, -8
	pushl	%ebx
	.cfi_def_cfa_offset 12
	.cfi_offset 3, -12
	movl	12(%esp), %eax
	andl	$-1024, %eax
	movl	16(%eax), %edx
	movl	20(%eax), %esi
	movl	%edx, %ebx
	movl	%edx, %eax
	andl	$14, %ebx
	andl	$15, %eax
	movzbl	%dl, %ecx
	cmpl	$14, %ebx
	cmove	%ecx, %eax
	cmpl	$5, %eax
	je	.L669
.L660:
	movl	ia32KSkernelPD, %eax
	addl	$536870912, %eax
	movl	%eax, ia32KSCurrentPD
#APP
# 35 "/home/mscapero/Desktop/seL4/seL4test/kernel/include/arch/ia32/arch/machine/cpu_registers.h" 1
	movl %eax, %cr3
# 0 "" 2
#NO_APP
.L653:
	popl	%ebx
	.cfi_remember_state
	.cfi_restore 3
	.cfi_def_cfa_offset 8
	popl	%esi
	.cfi_restore 6
	.cfi_def_cfa_offset 4
	ret
	.p2align 4,,7
	.p2align 3
.L669:
	.cfi_restore_state
	testl	$65536, %esi
	je	.L660
	movzwl	%si, %eax
	andl	$16777200, %edx
	shrl	$10, %eax
	movl	ia32KSASIDTable(,%eax,4), %eax
	sall	$8, %edx
	testl	%eax, %eax
	je	.L661
	andl	$1023, %esi
	movl	(%eax,%esi,4), %eax
	testl	%eax, %eax
	je	.L661
	cmpl	%eax, %edx
	jne	.L660
	addl	$536870912, %edx
	cmpl	%edx, ia32KSCurrentPD
	je	.L653
	movl	%edx, ia32KSCurrentPD
#APP
# 35 "/home/mscapero/Desktop/seL4/seL4test/kernel/include/arch/ia32/arch/machine/cpu_registers.h" 1
	movl %edx, %cr3
# 0 "" 2
#NO_APP
	jmp	.L653
	.p2align 4,,7
	.p2align 3
.L661:
	movl	$0, current_lookup_fault
	movl	$0, current_lookup_fault+4
	jmp	.L660
	.cfi_endproc
.LFE352:
	.size	setVMRoot, .-setVMRoot
	.p2align 4,,15
	.globl	Arch_switchToThread
	.type	Arch_switchToThread, @function
Arch_switchToThread:
.LFB321:
	.cfi_startproc
	pushl	%ebx
	.cfi_def_cfa_offset 8
	.cfi_offset 3, -8
	subl	$4, %esp
	.cfi_def_cfa_offset 12
	movl	12(%esp), %ebx
	movl	%ebx, (%esp)
	call	setVMRoot
	movl	48(%ebx), %edx
	movl	ia32KSgdt+52, %eax
	movl	%edx, %ecx
	shrl	$16, %ecx
	andl	$16776960, %eax
	movzbl	%cl, %ecx
	movw	%dx, ia32KSgdt+50
	orl	%ecx, %eax
	andl	$-16777216, %edx
	orl	%edx, %eax
	movl	636(%ebx), %edx
	movl	%eax, ia32KSgdt+52
	movl	ia32KSgdt+60, %eax
	movl	%edx, %ecx
	shrl	$16, %ecx
	andl	$16776960, %eax
	movzbl	%cl, %ecx
	movw	%dx, ia32KSgdt+58
	orl	%ecx, %eax
	andl	$-16777216, %edx
	orl	%edx, %eax
	movl	%eax, ia32KSgdt+60
	addl	$4, %esp
	.cfi_def_cfa_offset 8
	popl	%ebx
	.cfi_restore 3
	.cfi_def_cfa_offset 4
	ret
	.cfi_endproc
.LFE321:
	.size	Arch_switchToThread, .-Arch_switchToThread
	.p2align 4,,15
	.globl	deleteASIDPool
	.type	deleteASIDPool, @function
deleteASIDPool:
.LFB353:
	.cfi_startproc
	movl	4(%esp), %eax
	movl	8(%esp), %edx
	shrl	$10, %eax
	cmpl	%edx, ia32KSASIDTable(,%eax,4)
	je	.L674
	rep ret
	.p2align 4,,7
	.p2align 3
.L674:
	movl	$0, ia32KSASIDTable(,%eax,4)
	movl	ksCurThread, %eax
	movl	%eax, 4(%esp)
	jmp	setVMRoot
	.cfi_endproc
.LFE353:
	.size	deleteASIDPool, .-deleteASIDPool
	.p2align 4,,15
	.globl	deleteASID
	.type	deleteASID, @function
deleteASID:
.LFB354:
	.cfi_startproc
	movl	4(%esp), %edx
	movl	8(%esp), %ecx
	movl	%edx, %eax
	shrl	$10, %eax
	movl	ia32KSASIDTable(,%eax,4), %eax
	testl	%eax, %eax
	je	.L675
	andl	$1023, %edx
	leal	(%eax,%edx,4), %eax
	cmpl	%ecx, (%eax)
	je	.L680
.L675:
	rep ret
	.p2align 4,,7
	.p2align 3
.L680:
	movl	$0, (%eax)
	movl	ksCurThread, %eax
	movl	%eax, 4(%esp)
	jmp	setVMRoot
	.cfi_endproc
.LFE354:
	.size	deleteASID, .-deleteASID
	.p2align 4,,15
	.globl	unmapPageTable
	.type	unmapPageTable, @function
unmapPageTable:
.LFB355:
	.cfi_startproc
	pushl	%ebp
	.cfi_def_cfa_offset 8
	.cfi_offset 5, -8
	pushl	%edi
	.cfi_def_cfa_offset 12
	.cfi_offset 7, -12
	pushl	%esi
	.cfi_def_cfa_offset 16
	.cfi_offset 6, -16
	pushl	%ebx
	.cfi_def_cfa_offset 20
	.cfi_offset 3, -20
	subl	$28, %esp
	.cfi_def_cfa_offset 48
	movl	48(%esp), %edx
	movl	52(%esp), %edi
	movl	56(%esp), %esi
	movl	%edx, %eax
	shrl	$10, %eax
	movl	ia32KSASIDTable(,%eax,4), %eax
	testl	%eax, %eax
	je	.L684
	andl	$1023, %edx
	movl	(%eax,%edx,4), %ebx
	testl	%ebx, %ebx
	je	.L684
	movl	ksCurThread, %edx
	andl	$-1024, %edx
	movl	16(%edx), %eax
	movl	20(%edx), %ecx
	movl	%eax, %ebp
	movl	%eax, %edx
	andl	$14, %ebp
	andl	$15, %edx
	movl	%ecx, 12(%esp)
	cmpl	$14, %ebp
	movzbl	%al, %ecx
	cmove	%ecx, %edx
	cmpl	$5, %edx
	je	.L687
.L688:
	shrl	$22, %edi
	movl	$0, (%ebx,%edi,4)
	addl	$28, %esp
	.cfi_remember_state
	.cfi_def_cfa_offset 20
	popl	%ebx
	.cfi_restore 3
	.cfi_def_cfa_offset 16
	popl	%esi
	.cfi_restore 6
	.cfi_def_cfa_offset 12
	popl	%edi
	.cfi_restore 7
	.cfi_def_cfa_offset 8
	popl	%ebp
	.cfi_restore 5
	.cfi_def_cfa_offset 4
	jmp	invalidatePageStructureCache
	.p2align 4,,7
	.p2align 3
.L684:
	.cfi_restore_state
	movl	$0, current_lookup_fault
	movl	$0, current_lookup_fault+4
	addl	$28, %esp
	.cfi_remember_state
	.cfi_def_cfa_offset 20
	popl	%ebx
	.cfi_restore 3
	.cfi_def_cfa_offset 16
	popl	%esi
	.cfi_restore 6
	.cfi_def_cfa_offset 12
	popl	%edi
	.cfi_restore 7
	.cfi_def_cfa_offset 8
	popl	%ebp
	.cfi_restore 5
	.cfi_def_cfa_offset 4
	ret
	.p2align 4,,7
	.p2align 3
.L687:
	.cfi_restore_state
	testl	$65536, 12(%esp)
	je	.L688
	andl	$16777200, %eax
	sall	$8, %eax
	cmpl	%eax, %ebx
	jne	.L688
	xorl	%ebp, %ebp
	jmp	.L690
	.p2align 4,,7
	.p2align 3
.L689:
	addl	$1, %ebp
	cmpl	$1024, %ebp
	je	.L688
.L690:
	testb	$1, (%esi,%ebp,4)
	je	.L689
	movl	%ebp, %eax
	sall	$12, %eax
	addl	%edi, %eax
	movl	%eax, (%esp)
	call	invalidateTLBentry
	jmp	.L689
	.cfi_endproc
.LFE355:
	.size	unmapPageTable, .-unmapPageTable
	.p2align 4,,15
	.globl	unmapPage
	.type	unmapPage, @function
unmapPage:
.LFB356:
	.cfi_startproc
	pushl	%ebp
	.cfi_def_cfa_offset 8
	.cfi_offset 5, -8
	pushl	%edi
	.cfi_def_cfa_offset 12
	.cfi_offset 7, -12
	pushl	%esi
	.cfi_def_cfa_offset 16
	.cfi_offset 6, -16
	pushl	%ebx
	.cfi_def_cfa_offset 20
	.cfi_offset 3, -20
	subl	$28, %esp
	.cfi_def_cfa_offset 48
	movl	60(%esp), %eax
	movl	52(%esp), %edx
	movl	48(%esp), %esi
	movl	56(%esp), %ebp
	movl	%eax, 8(%esp)
	movl	%edx, %eax
	shrl	$10, %eax
	movl	ia32KSASIDTable(,%eax,4), %eax
	testl	%eax, %eax
	je	.L708
	andl	$1023, %edx
	movl	(%eax,%edx,4), %ebx
	testl	%ebx, %ebx
	je	.L708
	movl	ksCurThread, %edx
	andl	$-1024, %edx
	movl	16(%edx), %eax
	movl	20(%edx), %ecx
	movl	%eax, %edi
	movl	%eax, %edx
	andl	$14, %edi
	andl	$15, %edx
	movl	%ecx, 12(%esp)
	cmpl	$14, %edi
	movzbl	%al, %ecx
	cmove	%ecx, %edx
	cmpl	$5, %edx
	je	.L732
.L711:
	testl	%esi, %esi
	je	.L713
	cmpl	$1, %esi
	jne	.L733
	movl	%ebp, %eax
	shrl	$22, %eax
	leal	(%ebx,%eax,4), %edx
	movl	(%edx), %eax
	testb	$-128, %al
	jne	.L734
.L705:
	addl	$28, %esp
	.cfi_remember_state
	.cfi_def_cfa_offset 20
	popl	%ebx
	.cfi_restore 3
	.cfi_def_cfa_offset 16
	popl	%esi
	.cfi_restore 6
	.cfi_def_cfa_offset 12
	popl	%edi
	.cfi_restore 7
	.cfi_def_cfa_offset 8
	popl	%ebp
	.cfi_restore 5
	.cfi_def_cfa_offset 4
	ret
	.p2align 4,,7
	.p2align 3
.L733:
	.cfi_restore_state
	call	halt
	.p2align 4,,7
	.p2align 3
.L713:
	movl	%ebp, %eax
	shrl	$22, %eax
	movl	(%ebx,%eax,4), %eax
	testb	$-128, %al
	jne	.L715
	testb	$1, %al
	je	.L715
	movl	%ebp, %edx
	andl	$-4096, %eax
	shrl	$10, %edx
	andl	$4092, %edx
	leal	-536870912(%eax,%edx), %edx
	movl	(%edx), %eax
	testb	$1, %al
	je	.L705
	movl	8(%esp), %ecx
	andl	$-4096, %eax
	addl	$536870912, %ecx
	cmpl	%ecx, %eax
	jne	.L705
	movl	$0, (%edx)
.L717:
	addl	$28, %esp
	.cfi_remember_state
	.cfi_def_cfa_offset 20
	popl	%ebx
	.cfi_restore 3
	.cfi_def_cfa_offset 16
	popl	%esi
	.cfi_restore 6
	.cfi_def_cfa_offset 12
	popl	%edi
	.cfi_restore 7
	.cfi_def_cfa_offset 8
	popl	%ebp
	.cfi_restore 5
	.cfi_def_cfa_offset 4
	jmp	invalidatePageStructureCache
	.p2align 4,,7
	.p2align 3
.L708:
	.cfi_restore_state
	movl	$0, current_lookup_fault
	movl	$0, current_lookup_fault+4
	addl	$28, %esp
	.cfi_remember_state
	.cfi_def_cfa_offset 20
	popl	%ebx
	.cfi_restore 3
	.cfi_def_cfa_offset 16
	popl	%esi
	.cfi_restore 6
	.cfi_def_cfa_offset 12
	popl	%edi
	.cfi_restore 7
	.cfi_def_cfa_offset 8
	popl	%ebp
	.cfi_restore 5
	.cfi_def_cfa_offset 4
	ret
	.p2align 4,,7
	.p2align 3
.L732:
	.cfi_restore_state
	testl	$65536, 12(%esp)
	je	.L711
	andl	$16777200, %eax
	sall	$8, %eax
	cmpl	%eax, %ebx
	jne	.L711
	movl	%ebp, (%esp)
	call	invalidateTLBentry
	jmp	.L711
	.p2align 4,,7
	.p2align 3
.L715:
	movl	$89, current_lookup_fault
	movl	$0, current_lookup_fault+4
	addl	$28, %esp
	.cfi_remember_state
	.cfi_def_cfa_offset 20
	popl	%ebx
	.cfi_restore 3
	.cfi_def_cfa_offset 16
	popl	%esi
	.cfi_restore 6
	.cfi_def_cfa_offset 12
	popl	%edi
	.cfi_restore 7
	.cfi_def_cfa_offset 8
	popl	%ebp
	.cfi_restore 5
	.cfi_def_cfa_offset 4
	ret
	.p2align 4,,7
	.p2align 3
.L734:
	.cfi_restore_state
	testb	$1, %al
	je	.L705
	movl	8(%esp), %ecx
	andl	$-4194304, %eax
	addl	$536870912, %ecx
	cmpl	%ecx, %eax
	jne	.L705
	movl	$128, (%edx)
	jmp	.L717
	.cfi_endproc
.LFE356:
	.size	unmapPage, .-unmapPage
	.p2align 4,,15
	.globl	copyGlobalMappings
	.type	copyGlobalMappings, @function
copyGlobalMappings:
.LFB357:
	.cfi_startproc
	pushl	%ebx
	.cfi_def_cfa_offset 8
	.cfi_offset 3, -8
	movl	ia32KSkernelPD, %ecx
	movl	$896, %eax
	movl	8(%esp), %ebx
	.p2align 4,,7
	.p2align 3
.L737:
	movl	(%ecx,%eax,4), %edx
	movl	%edx, (%ebx,%eax,4)
	addl	$1, %eax
	cmpl	$1024, %eax
	jne	.L737
	popl	%ebx
	.cfi_restore 3
	.cfi_def_cfa_offset 4
	ret
	.cfi_endproc
.LFE357:
	.size	copyGlobalMappings, .-copyGlobalMappings
	.p2align 4,,15
	.globl	Arch_initFpuContext
	.type	Arch_initFpuContext, @function
Arch_initFpuContext:
.LFB365:
	.cfi_startproc
	pushl	%edi
	.cfi_def_cfa_offset 8
	.cfi_offset 7, -8
	movl	$128, %ecx
	pushl	%esi
	.cfi_def_cfa_offset 12
	.cfi_offset 6, -12
	movl	12(%esp), %eax
	movl	$ia32KSnullFpuState, %esi
	leal	80(%eax), %edi
	rep movsl
	popl	%esi
	.cfi_restore 6
	.cfi_def_cfa_offset 8
	popl	%edi
	.cfi_restore 7
	.cfi_def_cfa_offset 4
	ret
	.cfi_endproc
.LFE365:
	.size	Arch_initFpuContext, .-Arch_initFpuContext
	.p2align 4,,15
	.globl	handleUnimplementedDevice
	.type	handleUnimplementedDevice, @function
handleUnimplementedDevice:
.LFB367:
	.cfi_startproc
	pushl	%ebx
	.cfi_def_cfa_offset 8
	.cfi_offset 3, -8
	subl	$24, %esp
	.cfi_def_cfa_offset 32
	movl	ksCurThread, %ebx
#APP
# 45 "/home/mscapero/Desktop/seL4/seL4test/kernel/include/arch/ia32/arch/machine/fpu.h" 1
	clts
# 0 "" 2
#NO_APP
	movl	ia32KSfpuOwner, %eax
	testl	%eax, %eax
	je	.L742
	addl	$80, %eax
	movl	%eax, (%esp)
	call	saveFpuState
.L742:
	testl	%ebx, %ebx
	je	.L743
	leal	80(%ebx), %eax
	movl	%eax, (%esp)
	call	loadFpuState
	xorl	%eax, %eax
	movl	%ebx, ia32KSfpuOwner
	addl	$24, %esp
	.cfi_remember_state
	.cfi_def_cfa_offset 8
	popl	%ebx
	.cfi_restore 3
	.cfi_def_cfa_offset 4
	ret
	.p2align 4,,7
	.p2align 3
.L743:
	.cfi_restore_state
#APP
# 41 "/home/mscapero/Desktop/seL4/seL4test/kernel/include/arch/ia32/arch/machine/cpu_registers.h" 1
	movl %cr0, %eax
# 0 "" 2
#NO_APP
	orl	$8, %eax
#APP
# 47 "/home/mscapero/Desktop/seL4/seL4test/kernel/include/arch/ia32/arch/machine/cpu_registers.h" 1
	movl %eax, %cr0
# 0 "" 2
#NO_APP
	movl	%ebx, ia32KSfpuOwner
	addl	$24, %esp
	.cfi_def_cfa_offset 8
	xorl	%eax, %eax
	popl	%ebx
	.cfi_restore 3
	.cfi_def_cfa_offset 4
	ret
	.cfi_endproc
.LFE367:
	.size	handleUnimplementedDevice, .-handleUnimplementedDevice
	.p2align 4,,15
	.globl	Arch_fpuThreadDelete
	.type	Arch_fpuThreadDelete, @function
Arch_fpuThreadDelete:
.LFB368:
	.cfi_startproc
	subl	$28, %esp
	.cfi_def_cfa_offset 32
	movl	ia32KSfpuOwner, %eax
	cmpl	32(%esp), %eax
	je	.L756
	addl	$28, %esp
	.cfi_remember_state
	.cfi_def_cfa_offset 4
	ret
	.p2align 4,,7
	.p2align 3
.L756:
	.cfi_restore_state
#APP
# 45 "/home/mscapero/Desktop/seL4/seL4test/kernel/include/arch/ia32/arch/machine/fpu.h" 1
	clts
# 0 "" 2
#NO_APP
	testl	%eax, %eax
	je	.L751
	addl	$80, %eax
	movl	%eax, (%esp)
	call	saveFpuState
.L751:
#APP
# 41 "/home/mscapero/Desktop/seL4/seL4test/kernel/include/arch/ia32/arch/machine/cpu_registers.h" 1
	movl %cr0, %eax
# 0 "" 2
#NO_APP
	orl	$8, %eax
#APP
# 47 "/home/mscapero/Desktop/seL4/seL4test/kernel/include/arch/ia32/arch/machine/cpu_registers.h" 1
	movl %eax, %cr0
# 0 "" 2
#NO_APP
	movl	$0, ia32KSfpuOwner
	addl	$28, %esp
	.cfi_def_cfa_offset 4
	ret
	.cfi_endproc
.LFE368:
	.size	Arch_fpuThreadDelete, .-Arch_fpuThreadDelete
	.section	.boot.text
	.p2align 4,,15
	.globl	Arch_initFpu
	.type	Arch_initFpu, @function
Arch_initFpu:
.LFB369:
	.cfi_startproc
	subl	$28, %esp
	.cfi_def_cfa_offset 32
	call	read_cr4
	orb	$2, %ah
	movl	%eax, (%esp)
	call	write_cr4
#APP
# 41 "/home/mscapero/Desktop/seL4/seL4test/kernel/include/arch/ia32/arch/machine/cpu_registers.h" 1
	movl %cr0, %eax
# 0 "" 2
#NO_APP
	andl	$-47, %eax
	orl	$42, %eax
#APP
# 47 "/home/mscapero/Desktop/seL4/seL4test/kernel/include/arch/ia32/arch/machine/cpu_registers.h" 1
	movl %eax, %cr0
# 0 "" 2
#NO_APP
	addl	$28, %esp
	.cfi_def_cfa_offset 4
	ret
	.cfi_endproc
.LFE369:
	.size	Arch_initFpu, .-Arch_initFpu
	.p2align 4,,15
	.globl	init_sysenter_msrs
	.type	init_sysenter_msrs, @function
init_sysenter_msrs:
.LFB370:
	.cfi_startproc
	subl	$28, %esp
	.cfi_def_cfa_offset 32
	movl	$8, 8(%esp)
	movl	$0, 4(%esp)
	movl	$372, (%esp)
	call	ia32_wrmsr
	movl	$handle_syscall, 8(%esp)
	movl	$0, 4(%esp)
	movl	$374, (%esp)
	call	ia32_wrmsr
	movl	$ia32KStss+4, 8(%esp)
	movl	$0, 4(%esp)
	movl	$373, (%esp)
	call	ia32_wrmsr
	addl	$28, %esp
	.cfi_def_cfa_offset 4
	ret
	.cfi_endproc
.LFE370:
	.size	init_sysenter_msrs, .-init_sysenter_msrs
	.text
	.p2align 4,,15
	.globl	getRestartPC
	.type	getRestartPC, @function
getRestartPC:
.LFB371:
	.cfi_startproc
	movl	4(%esp), %eax
	movl	44(%eax), %eax
	ret
	.cfi_endproc
.LFE371:
	.size	getRestartPC, .-getRestartPC
	.p2align 4,,15
	.globl	setNextPC
	.type	setNextPC, @function
setNextPC:
.LFB372:
	.cfi_startproc
	movl	8(%esp), %edx
	movl	4(%esp), %eax
	movl	%edx, 56(%eax)
	ret
	.cfi_endproc
.LFE372:
	.size	setNextPC, .-setNextPC
	.section	.boot.text
	.p2align 4,,15
	.globl	getCacheLineSizeBits
	.type	getCacheLineSizeBits, @function
getCacheLineSizeBits:
.LFB373:
	.cfi_startproc
	subl	$12, %esp
	.cfi_def_cfa_offset 16
	call	getCacheLineSize
	movl	%eax, %edx
	xorl	%eax, %eax
	testl	%edx, %edx
	je	.L764
	xorl	%ecx, %ecx
	testb	$1, %dl
	jne	.L765
	.p2align 4,,7
	.p2align 3
.L766:
	shrl	%edx
	addl	$1, %ecx
	testb	$1, %dl
	je	.L766
.L765:
	xorl	%eax, %eax
	cmpl	$1, %edx
	cmove	%ecx, %eax
.L764:
	addl	$12, %esp
	.cfi_def_cfa_offset 4
	ret
	.cfi_endproc
.LFE373:
	.size	getCacheLineSizeBits, .-getCacheLineSizeBits
	.text
	.p2align 4,,15
	.globl	flushCacheRange
	.type	flushCacheRange, @function
flushCacheRange:
.LFB374:
	.cfi_startproc
	pushl	%edi
	.cfi_def_cfa_offset 8
	.cfi_offset 7, -8
	pushl	%esi
	.cfi_def_cfa_offset 12
	.cfi_offset 6, -12
	pushl	%ebx
	.cfi_def_cfa_offset 16
	.cfi_offset 3, -16
	subl	$16, %esp
	.cfi_def_cfa_offset 32
	movl	32(%esp), %esi
	movl	36(%esp), %edi
	call	ia32_mfence
	movl	ia32KScacheLineSizeBits, %ecx
	movl	$1, %eax
	movl	%esi, %ebx
	shrl	%cl, %ebx
	sall	%cl, %ebx
	movl	%edi, %ecx
	sall	%cl, %eax
	movl	$1, %edi
	addl	%eax, %esi
	cmpl	%esi, %ebx
	jae	.L774
	.p2align 4,,7
	.p2align 3
.L776:
	movl	%ebx, (%esp)
	call	flushCacheLine
	movl	ia32KScacheLineSizeBits, %ecx
	movl	%edi, %eax
	sall	%cl, %eax
	addl	%eax, %ebx
	cmpl	%esi, %ebx
	jb	.L776
.L774:
	addl	$16, %esp
	.cfi_def_cfa_offset 16
	popl	%ebx
	.cfi_restore 3
	.cfi_def_cfa_offset 12
	popl	%esi
	.cfi_restore 6
	.cfi_def_cfa_offset 8
	popl	%edi
	.cfi_restore 7
	.cfi_def_cfa_offset 4
	jmp	ia32_mfence
	.cfi_endproc
.LFE374:
	.size	flushCacheRange, .-flushCacheRange
	.p2align 4,,15
	.globl	Arch_initContext
	.type	Arch_initContext, @function
Arch_initContext:
.LFB375:
	.cfi_startproc
	pushl	%edi
	.cfi_def_cfa_offset 8
	.cfi_offset 7, -8
	movl	$128, %ecx
	pushl	%esi
	.cfi_def_cfa_offset 12
	.cfi_offset 6, -12
	movl	12(%esp), %edi
	movl	$ia32KSnullFpuState, %esi
	movl	$0, (%edi)
	addl	$80, %edi
	movl	$0, -76(%edi)
	movl	$0, -72(%edi)
	movl	$0, -68(%edi)
	movl	$0, -64(%edi)
	movl	$0, -60(%edi)
	movl	$0, -56(%edi)
	movl	$35, -52(%edi)
	movl	$35, -48(%edi)
	movl	$0, -44(%edi)
	movl	$0, -40(%edi)
	movl	$0, -32(%edi)
	movl	$0, -28(%edi)
	movl	$0, -36(%edi)
	movl	$0, -24(%edi)
	movl	$27, -20(%edi)
	movl	$514, -16(%edi)
	movl	$0, -12(%edi)
	movl	$35, -8(%edi)
	rep movsl
	popl	%esi
	.cfi_restore 6
	.cfi_def_cfa_offset 8
	popl	%edi
	.cfi_restore 7
	.cfi_def_cfa_offset 4
	ret
	.cfi_endproc
.LFE375:
	.size	Arch_initContext, .-Arch_initContext
	.p2align 4,,15
	.globl	sanitiseRegister
	.type	sanitiseRegister, @function
sanitiseRegister:
.LFB376:
	.cfi_startproc
	movl	4(%esp), %edx
	movl	8(%esp), %eax
	cmpl	$16, %edx
	je	.L784
	subl	$9, %edx
	cmpl	$1, %edx
	ja	.L782
	movl	%eax, %edx
	andl	$-9, %edx
	cmpl	$51, %edx
	movl	$0, %edx
	cmovne	%edx, %eax
.L782:
	rep ret
	.p2align 4,,7
	.p2align 3
.L784:
	andl	$4055, %eax
	orl	$514, %eax
	ret
	.cfi_endproc
.LFE376:
	.size	sanitiseRegister, .-sanitiseRegister
	.p2align 4,,15
	.globl	Arch_decodeInterruptControl
	.type	Arch_decodeInterruptControl, @function
Arch_decodeInterruptControl:
.LFB377:
	.cfi_startproc
	movl	$3, current_syscall_error+24
	movl	$3, %eax
	ret
	.cfi_endproc
.LFE377:
	.size	Arch_decodeInterruptControl, .-Arch_decodeInterruptControl
	.p2align 4,,15
	.globl	Arch_deriveCap
	.type	Arch_deriveCap, @function
Arch_deriveCap:
.LFB380:
	.cfi_startproc
	pushl	%ebp
	.cfi_def_cfa_offset 8
	.cfi_offset 5, -8
	pushl	%edi
	.cfi_def_cfa_offset 12
	.cfi_offset 7, -12
	pushl	%esi
	.cfi_def_cfa_offset 16
	.cfi_offset 6, -16
	pushl	%ebx
	.cfi_def_cfa_offset 20
	.cfi_offset 3, -20
	subl	$28, %esp
	.cfi_def_cfa_offset 48
	movl	56(%esp), %edx
	movl	48(%esp), %eax
	movl	60(%esp), %ebx
	movl	%edx, %esi
	movl	%edx, %ecx
	andl	$14, %esi
	andl	$15, %ecx
	movl	%esi, 12(%esp)
	movzbl	%dl, %esi
	cmpl	$14, 12(%esp)
	cmove	%esi, %ecx
	cmpl	$11, %ecx
	ja	.L789
	movl	%edx, %ebp
	movl	%ebx, %edi
	jmp	*.L791(,%ecx,4)
	.section	.rodata
	.align 4
	.align 4
.L791:
	.long	.L789
	.long	.L790
	.long	.L789
	.long	.L792
	.long	.L789
	.long	.L793
	.long	.L789
	.long	.L795
	.long	.L789
	.long	.L795
	.long	.L789
	.long	.L795
	.text
	.p2align 4,,7
	.p2align 3
.L795:
	movl	$0, (%eax)
	movl	%edx, 4(%eax)
	movl	%ebx, 8(%eax)
	addl	$28, %esp
	.cfi_remember_state
	.cfi_def_cfa_offset 20
	popl	%ebx
	.cfi_restore 3
	.cfi_def_cfa_offset 16
	popl	%esi
	.cfi_restore 6
	.cfi_def_cfa_offset 12
	popl	%edi
	.cfi_restore 7
	.cfi_def_cfa_offset 8
	popl	%ebp
	.cfi_restore 5
	.cfi_def_cfa_offset 4
	ret	$4
	.p2align 4,,7
	.p2align 3
.L793:
	.cfi_restore_state
	xorl	%edx, %edx
	andl	$65536, %ebx
	jne	.L798
.L802:
	movl	$3, current_syscall_error+24
	xorl	%edi, %edi
	xorl	%ebp, %ebp
	movb	$3, %dl
.L798:
	movl	%edx, (%eax)
	movl	%ebp, 4(%eax)
	movl	%edi, 8(%eax)
	addl	$28, %esp
	.cfi_remember_state
	.cfi_def_cfa_offset 20
	popl	%ebx
	.cfi_restore 3
	.cfi_def_cfa_offset 16
	popl	%esi
	.cfi_restore 6
	.cfi_def_cfa_offset 12
	popl	%edi
	.cfi_restore 7
	.cfi_def_cfa_offset 8
	popl	%ebp
	.cfi_restore 5
	.cfi_def_cfa_offset 4
	ret	$4
	.p2align 4,,7
	.p2align 3
.L790:
	.cfi_restore_state
	andl	$-1072693249, %ebx
	andl	$67108863, %edx
	movl	$0, (%eax)
	movl	%edx, 4(%eax)
	movl	%ebx, 8(%eax)
	addl	$28, %esp
	.cfi_remember_state
	.cfi_def_cfa_offset 20
	popl	%ebx
	.cfi_restore 3
	.cfi_def_cfa_offset 16
	popl	%esi
	.cfi_restore 6
	.cfi_def_cfa_offset 12
	popl	%edi
	.cfi_restore 7
	.cfi_def_cfa_offset 8
	popl	%ebp
	.cfi_restore 5
	.cfi_def_cfa_offset 4
	ret	$4
	.p2align 4,,7
	.p2align 3
.L792:
	.cfi_restore_state
	xorl	%edx, %edx
	andl	$67108864, %ebx
	je	.L802
	jmp	.L798
	.p2align 4,,7
	.p2align 3
.L789:
	call	halt
	.cfi_endproc
.LFE380:
	.size	Arch_deriveCap, .-Arch_deriveCap
	.p2align 4,,15
	.globl	Arch_updateCapData
	.type	Arch_updateCapData, @function
Arch_updateCapData:
.LFB381:
	.cfi_startproc
	pushl	%edi
	.cfi_def_cfa_offset 8
	.cfi_offset 7, -8
	pushl	%esi
	.cfi_def_cfa_offset 12
	.cfi_offset 6, -12
	pushl	%ebx
	.cfi_def_cfa_offset 16
	.cfi_offset 3, -16
	movl	28(%esp), %edx
	movl	16(%esp), %eax
	movl	32(%esp), %edi
	movl	%edx, %esi
	movl	%edx, %ecx
	andl	$14, %esi
	andl	$15, %ecx
	movzbl	%dl, %ebx
	cmpl	$14, %esi
	cmove	%ebx, %ecx
	cmpl	$11, %ecx
	jne	.L817
	movl	24(%esp), %ecx
	movzwl	24(%esp), %edx
	shrl	$16, %ecx
	cmpw	%dx, %cx
	ja	.L810
	cmpw	%dx, %di
	jb	.L810
	shrl	$16, %edi
	cmpw	%di, %cx
	jb	.L810
	sall	$16, %ecx
	orl	%edx, %ecx
	movl	$11, (%eax)
	movl	%ecx, 4(%eax)
	popl	%ebx
	.cfi_remember_state
	.cfi_restore 3
	.cfi_def_cfa_offset 12
	popl	%esi
	.cfi_restore 6
	.cfi_def_cfa_offset 8
	popl	%edi
	.cfi_restore 7
	.cfi_def_cfa_offset 4
	ret	$4
	.p2align 4,,7
	.p2align 3
.L817:
	.cfi_restore_state
	movl	%edx, (%eax)
	movl	%edi, 4(%eax)
	popl	%ebx
	.cfi_remember_state
	.cfi_restore 3
	.cfi_def_cfa_offset 12
	popl	%esi
	.cfi_restore 6
	.cfi_def_cfa_offset 8
	popl	%edi
	.cfi_restore 7
	.cfi_def_cfa_offset 4
	ret	$4
	.p2align 4,,7
	.p2align 3
.L810:
	.cfi_restore_state
	movl	$0, (%eax)
	movl	$0, 4(%eax)
	popl	%ebx
	.cfi_restore 3
	.cfi_def_cfa_offset 12
	popl	%esi
	.cfi_restore 6
	.cfi_def_cfa_offset 8
	popl	%edi
	.cfi_restore 7
	.cfi_def_cfa_offset 4
	ret	$4
	.cfi_endproc
.LFE381:
	.size	Arch_updateCapData, .-Arch_updateCapData
	.p2align 4,,15
	.globl	Arch_maskCapRights
	.type	Arch_maskCapRights, @function
Arch_maskCapRights:
.LFB382:
	.cfi_startproc
	pushl	%edi
	.cfi_def_cfa_offset 8
	.cfi_offset 7, -8
	pushl	%esi
	.cfi_def_cfa_offset 12
	.cfi_offset 6, -12
	pushl	%ebx
	.cfi_def_cfa_offset 16
	.cfi_offset 3, -16
	movl	24(%esp), %edx
	movl	16(%esp), %eax
	movl	28(%esp), %ebx
	movl	%edx, %edi
	movl	%edx, %ecx
	andl	$14, %edi
	andl	$15, %ecx
	movzbl	%dl, %esi
	cmpl	$14, %edi
	cmove	%esi, %ecx
	cmpl	$1, %ecx
	je	.L832
	movl	%edx, (%eax)
	movl	%ebx, 4(%eax)
	popl	%ebx
	.cfi_remember_state
	.cfi_restore 3
	.cfi_def_cfa_offset 12
	popl	%esi
	.cfi_restore 6
	.cfi_def_cfa_offset 8
	popl	%edi
	.cfi_restore 7
	.cfi_def_cfa_offset 4
	ret	$4
	.p2align 4,,7
	.p2align 3
.L832:
	.cfi_restore_state
	movl	%edx, %ecx
	andl	$50331648, %ecx
	shrl	$24, %ecx
	cmpl	$2, %ecx
	je	.L833
	cmpl	$3, %ecx
	movl	$16777216, %esi
	je	.L834
.L824:
	andl	$-50331649, %edx
	orl	%esi, %edx
	movl	%edx, (%eax)
	movl	%ebx, 4(%eax)
	popl	%ebx
	.cfi_remember_state
	.cfi_restore 3
	.cfi_def_cfa_offset 12
	popl	%esi
	.cfi_restore 6
	.cfi_def_cfa_offset 8
	popl	%edi
	.cfi_restore 7
	.cfi_def_cfa_offset 4
	ret	$4
	.p2align 4,,7
	.p2align 3
.L834:
	.cfi_restore_state
	testb	$2, 20(%esp)
	je	.L824
	movl	20(%esp), %ecx
	andl	$1, %ecx
	cmpl	$1, %ecx
	sbbl	%esi, %esi
	andl	$-16777216, %esi
	addl	$50331648, %esi
	jmp	.L824
	.p2align 4,,7
	.p2align 3
.L833:
	movl	20(%esp), %ecx
	andl	$2, %ecx
	shrl	%ecx
	cmpl	$1, %ecx
	sbbl	%esi, %esi
	andl	$-16777216, %esi
	addl	$33554432, %esi
	jmp	.L824
	.cfi_endproc
.LFE382:
	.size	Arch_maskCapRights, .-Arch_maskCapRights
	.p2align 4,,15
	.globl	Arch_finaliseCap
	.type	Arch_finaliseCap, @function
Arch_finaliseCap:
.LFB383:
	.cfi_startproc
	pushl	%edi
	.cfi_def_cfa_offset 8
	.cfi_offset 7, -8
	pushl	%esi
	.cfi_def_cfa_offset 12
	.cfi_offset 6, -12
	pushl	%ebx
	.cfi_def_cfa_offset 16
	.cfi_offset 3, -16
	subl	$32, %esp
	.cfi_def_cfa_offset 48
	movl	52(%esp), %ecx
	movl	48(%esp), %eax
	movl	56(%esp), %edi
	movl	%ecx, %esi
	movl	%ecx, %edx
	andl	$14, %esi
	andl	$15, %edx
	movzbl	%cl, %ebx
	cmpl	$14, %esi
	cmove	%ebx, %edx
	cmpl	$11, %edx
	ja	.L838
	jmp	*.L840(,%edx,4)
	.section	.rodata
	.align 4
	.align 4
.L840:
	.long	.L838
	.long	.L839
	.long	.L838
	.long	.L841
	.long	.L838
	.long	.L842
	.long	.L838
	.long	.L843
	.long	.L838
	.long	.L844
	.long	.L838
	.long	.L843
	.text
	.p2align 4,,7
	.p2align 3
.L842:
	movl	60(%esp), %esi
	testl	%esi, %esi
	je	.L843
	testl	$65536, %edi
	je	.L843
	andl	$16777200, %ecx
	movzwl	%di, %edi
	sall	$8, %ecx
	movl	%ecx, 4(%esp)
	movl	%edi, (%esp)
	movl	%eax, 28(%esp)
	call	deleteASID
	movl	28(%esp), %eax
	.p2align 4,,7
	.p2align 3
.L843:
	movl	$0, (%eax)
	movl	$0, 4(%eax)
	addl	$32, %esp
	.cfi_remember_state
	.cfi_def_cfa_offset 16
	popl	%ebx
	.cfi_restore 3
	.cfi_def_cfa_offset 12
	popl	%esi
	.cfi_restore 6
	.cfi_def_cfa_offset 8
	popl	%edi
	.cfi_restore 7
	.cfi_def_cfa_offset 4
	ret	$4
	.p2align 4,,7
	.p2align 3
.L844:
	.cfi_restore_state
	movl	60(%esp), %edx
	testl	%edx, %edx
	je	.L843
	movzwl	%di, %edi
	andl	$16777200, %ecx
	shrl	$10, %edi
	sall	$8, %ecx
	cmpl	%ecx, ia32KSASIDTable(,%edi,4)
	jne	.L843
	movl	ksCurThread, %edx
	movl	%eax, 28(%esp)
	movl	$0, ia32KSASIDTable(,%edi,4)
	movl	%edx, (%esp)
	call	setVMRoot
	movl	28(%esp), %eax
	jmp	.L843
	.p2align 4,,7
	.p2align 3
.L839:
	movl	%edi, %ebx
	movl	%ecx, %edx
	andl	$1072693248, %ebx
	shrl	$26, %edx
	shrl	$20, %ebx
	sall	$10, %edx
	addl	%ebx, %edx
	je	.L843
	andl	$16777200, %ecx
	sall	$8, %ecx
	movl	%ecx, 12(%esp)
	movl	%edi, %ecx
	sall	$12, %ecx
	shrl	$31, %edi
	movl	%ecx, 8(%esp)
	movl	%edx, 4(%esp)
	movl	%edi, (%esp)
	movl	%eax, 28(%esp)
	call	unmapPage
	movl	28(%esp), %eax
	jmp	.L843
	.p2align 4,,7
	.p2align 3
.L841:
	movl	60(%esp), %ebx
	testl	%ebx, %ebx
	je	.L843
	testl	$67108864, %edi
	je	.L843
	movl	%edi, %edx
	andl	$16777200, %ecx
	andl	$67107840, %edi
	sall	$8, %ecx
	sall	$22, %edx
	shrl	$10, %edi
	movl	%ecx, 8(%esp)
	movl	%edx, 4(%esp)
	movl	%edi, (%esp)
	movl	%eax, 28(%esp)
	call	unmapPageTable
	movl	28(%esp), %eax
	jmp	.L843
	.p2align 4,,7
	.p2align 3
.L838:
	call	halt
	.cfi_endproc
.LFE383:
	.size	Arch_finaliseCap, .-Arch_finaliseCap
	.p2align 4,,15
	.globl	Arch_recycleCap
	.type	Arch_recycleCap, @function
Arch_recycleCap:
.LFB385:
	.cfi_startproc
	pushl	%ebp
	.cfi_def_cfa_offset 8
	.cfi_offset 5, -8
	movl	%esp, %ebp
	.cfi_def_cfa_register 5
	pushl	%edi
	pushl	%esi
	pushl	%ebx
	subl	$60, %esp
	.cfi_offset 7, -12
	.cfi_offset 6, -16
	.cfi_offset 3, -20
	movl	16(%ebp), %ebx
	movl	20(%ebp), %esi
	movl	%ebx, %ecx
	movl	%ebx, %eax
	andl	$14, %ecx
	andl	$15, %eax
	movzbl	%bl, %edx
	cmpl	$14, %ecx
	cmove	%edx, %eax
	cmpl	$11, %eax
	ja	.L867
	jmp	*.L869(,%eax,4)
	.section	.rodata
	.align 4
	.align 4
.L869:
	.long	.L867
	.long	.L868
	.long	.L867
	.long	.L870
	.long	.L867
	.long	.L871
	.long	.L867
	.long	.L874
	.long	.L867
	.long	.L873
	.long	.L867
	.long	.L874
	.text
	.p2align 4,,7
	.p2align 3
.L873:
	movzwl	%si, %edx
	shrl	$10, %edx
	movl	ia32KSASIDTable(,%edx,4), %eax
	movl	%eax, %edi
	movl	%eax, -36(%ebp)
	movl	%ebx, %eax
	andl	$16777200, %eax
	sall	$8, %eax
	cmpl	%eax, %edi
	jne	.L874
	movl	ksCurThread, %eax
	movl	$0, ia32KSASIDTable(,%edx,4)
	movl	%edx, -44(%ebp)
	movl	%eax, (%esp)
	call	setVMRoot
	movl	-36(%ebp), %eax
	movl	$4096, -40(%ebp)
	movl	-44(%ebp), %edx
	testb	$1, %al
	movl	%eax, %edi
	jne	.L914
.L887:
	testl	$2, %edi
	jne	.L915
.L888:
	movl	-40(%ebp), %ecx
	xorl	%eax, %eax
	shrl	$2, %ecx
	rep stosl
	testb	$2, -40(%ebp)
	je	.L889
	xorl	%eax, %eax
	addl	$2, %edi
	movw	%ax, -2(%edi)
.L889:
	testb	$1, -40(%ebp)
	je	.L890
	movb	$0, (%edi)
.L890:
	movl	-36(%ebp), %eax
	movl	%eax, ia32KSASIDTable(,%edx,4)
	.p2align 4,,7
	.p2align 3
.L874:
	movl	8(%ebp), %eax
	movl	%ebx, (%eax)
	movl	%esi, 4(%eax)
	leal	-12(%ebp), %esp
	popl	%ebx
	.cfi_remember_state
	.cfi_restore 3
	popl	%esi
	.cfi_restore 6
	popl	%edi
	.cfi_restore 7
	popl	%ebp
	.cfi_restore 5
	.cfi_def_cfa 4, 4
	ret	$4
	.p2align 4,,7
	.p2align 3
.L868:
	.cfi_restore_state
	movl	%esi, %edx
	movl	%ebx, %eax
	call	cap_get_capSizeBits
	movl	%esi, %edx
	movl	%eax, %edi
	movl	%ebx, %eax
	call	cap_get_capPtr
	movl	$1, %edx
	movl	%edi, %ecx
	sall	%cl, %edx
	testl	%edx, %edx
	je	.L877
	.p2align 4,,7
	.p2align 3
.L903:
	movl	$0, (%eax)
	addl	$4, %eax
	subl	$4, %edx
	jne	.L903
.L877:
	movl	12(%ebp), %edi
	leal	-32(%ebp), %eax
	movl	%ebx, 4(%esp)
	movl	%esi, 8(%esp)
	movl	%eax, (%esp)
	movl	%edi, 12(%esp)
	call	Arch_finaliseCap
	subl	$4, %esp
	jmp	.L885
	.p2align 4,,7
	.p2align 3
.L870:
	movl	%esi, %edx
	movl	%ebx, %eax
	call	cap_get_capSizeBits
	movl	%esi, %edx
	movl	%eax, %edi
	movl	%ebx, %eax
	call	cap_get_capPtr
	movl	$1, %edx
	movl	%edi, %ecx
	sall	%cl, %edx
	testl	%edx, %edx
	je	.L882
	.p2align 4,,7
	.p2align 3
.L904:
	movl	$0, (%eax)
	addl	$4, %eax
	subl	$4, %edx
	jne	.L904
.L882:
	testl	$67108864, %esi
	je	.L881
	movl	%ebx, %eax
	andl	$16777200, %eax
	sall	$8, %eax
	movl	%eax, 8(%esp)
	movl	%esi, %eax
	sall	$22, %eax
	movl	%eax, 4(%esp)
	movl	%esi, %eax
	andl	$67107840, %eax
	shrl	$10, %eax
	movl	%eax, (%esp)
	call	unmapPageTable
	jmp	.L881
	.p2align 4,,7
	.p2align 3
.L871:
	movl	%ebx, %edx
	movl	$896, %ecx
	andl	$16777200, %edx
	xorl	%eax, %eax
	sall	$8, %edx
	movl	%edx, %edi
	rep stosl
.L881:
	movl	12(%ebp), %edi
	leal	-32(%ebp), %eax
	movl	%ebx, 4(%esp)
	movl	%esi, 8(%esp)
	movl	%eax, (%esp)
	movl	%edi, 12(%esp)
	call	Arch_finaliseCap
	movl	12(%ebp), %edi
	subl	$4, %esp
	testl	%edi, %edi
	je	.L874
.L885:
	movl	8(%ebp), %eax
	movl	%ebx, %edx
	movl	%esi, %ecx
	call	resetMemMapping
	movl	8(%ebp), %eax
	leal	-12(%ebp), %esp
	popl	%ebx
	.cfi_remember_state
	.cfi_restore 3
	popl	%esi
	.cfi_restore 6
	popl	%edi
	.cfi_restore 7
	popl	%ebp
	.cfi_restore 5
	.cfi_def_cfa 4, 4
	ret	$4
	.p2align 4,,7
	.p2align 3
.L867:
	.cfi_restore_state
	call	halt
.L915:
	xorl	%ecx, %ecx
	addl	$2, %edi
	movw	%cx, -2(%edi)
	subl	$2, -40(%ebp)
	jmp	.L888
.L914:
	movb	$0, (%eax)
	leal	1(%eax), %edi
	movl	$4095, -40(%ebp)
	jmp	.L887
	.cfi_endproc
.LFE385:
	.size	Arch_recycleCap, .-Arch_recycleCap
	.p2align 4,,15
	.globl	Arch_hasRecycleRights
	.type	Arch_hasRecycleRights, @function
Arch_hasRecycleRights:
.LFB386:
	.cfi_startproc
	pushl	%ebx
	.cfi_def_cfa_offset 8
	.cfi_offset 3, -8
	movl	8(%esp), %eax
	movl	%eax, %ebx
	movl	%eax, %edx
	andl	$14, %ebx
	andl	$15, %edx
	movzbl	%al, %ecx
	cmpl	$14, %ebx
	cmove	%ecx, %edx
	cmpl	$1, %edx
	jne	.L922
	andl	$50331648, %eax
	cmpl	$50331648, %eax
	sete	%al
	movzbl	%al, %eax
	popl	%ebx
	.cfi_remember_state
	.cfi_restore 3
	.cfi_def_cfa_offset 4
	ret
	.p2align 4,,7
	.p2align 3
.L922:
	.cfi_restore_state
	movl	$1, %eax
	popl	%ebx
	.cfi_restore 3
	.cfi_def_cfa_offset 4
	ret
	.cfi_endproc
.LFE386:
	.size	Arch_hasRecycleRights, .-Arch_hasRecycleRights
	.p2align 4,,15
	.globl	Arch_sameRegionAs
	.type	Arch_sameRegionAs, @function
Arch_sameRegionAs:
.LFB387:
	.cfi_startproc
	pushl	%ebp
	.cfi_def_cfa_offset 8
	.cfi_offset 5, -8
	pushl	%edi
	.cfi_def_cfa_offset 12
	.cfi_offset 7, -12
	pushl	%esi
	.cfi_def_cfa_offset 16
	.cfi_offset 6, -16
	pushl	%ebx
	.cfi_def_cfa_offset 20
	.cfi_offset 3, -20
	subl	$12, %esp
	.cfi_def_cfa_offset 32
	movl	32(%esp), %edx
	movl	36(%esp), %esi
	movl	40(%esp), %ecx
	movl	44(%esp), %edi
	movl	%edx, %ebp
	movl	%edx, %eax
	andl	$14, %ebp
	andl	$15, %eax
	movzbl	%dl, %ebx
	cmpl	$14, %ebp
	cmove	%ebx, %eax
	cmpl	$11, %eax
	ja	.L954
	jmp	*.L929(,%eax,4)
	.section	.rodata
	.align 4
	.align 4
.L929:
	.long	.L954
	.long	.L928
	.long	.L954
	.long	.L930
	.long	.L954
	.long	.L931
	.long	.L954
	.long	.L932
	.long	.L954
	.long	.L933
	.long	.L954
	.long	.L934
	.text
	.p2align 4,,7
	.p2align 3
.L934:
	movl	%ecx, %edx
	movl	%ecx, %eax
	andl	$14, %edx
	andl	$15, %eax
	movzbl	%cl, %ecx
	cmpl	$14, %edx
	cmove	%ecx, %eax
	cmpl	$11, %eax
	sete	%al
	movzbl	%al, %eax
.L927:
	addl	$12, %esp
	.cfi_remember_state
	.cfi_def_cfa_offset 20
	popl	%ebx
	.cfi_restore 3
	.cfi_def_cfa_offset 16
	popl	%esi
	.cfi_restore 6
	.cfi_def_cfa_offset 12
	popl	%edi
	.cfi_restore 7
	.cfi_def_cfa_offset 8
	popl	%ebp
	.cfi_restore 5
	.cfi_def_cfa_offset 4
	ret
	.p2align 4,,7
	.p2align 3
.L928:
	.cfi_restore_state
	movl	%ecx, %ebp
	movl	%ecx, %ebx
	andl	$14, %ebp
	andl	$15, %ebx
	movzbl	%cl, %eax
	cmpl	$14, %ebp
	cmove	%eax, %ebx
	xorl	%eax, %eax
	cmpl	$1, %ebx
	jne	.L927
	shrl	$31, %esi
	testl	%esi, %esi
	je	.L938
	cmpl	$1, %esi
	jne	.L970
	movl	$4194304, %eax
.L939:
	shrl	$31, %edi
	testl	%edi, %edi
	je	.L941
	cmpl	$1, %edi
	jne	.L970
	movl	$4194304, %ebx
.L942:
	andl	$16777200, %edx
	andl	$16777200, %ecx
	sall	$8, %edx
	sall	$8, %ecx
	leal	-1(%ecx,%ebx), %ebx
	leal	-1(%edx,%eax), %eax
	cmpl	%ebx, %eax
	jb	.L954
	cmpl	%ecx, %edx
	ja	.L954
	xorl	%eax, %eax
	cmpl	%ecx, %ebx
	setae	%al
	jmp	.L927
	.p2align 4,,7
	.p2align 3
.L930:
	movl	%ecx, %esi
	movl	%ecx, %ebx
	andl	$14, %esi
	andl	$15, %ebx
	movzbl	%cl, %eax
	cmpl	$14, %esi
	cmove	%eax, %ebx
	xorl	%eax, %eax
	cmpl	$3, %ebx
	jne	.L927
.L969:
	andl	$16777200, %edx
	andl	$16777200, %ecx
	xorl	%eax, %eax
	cmpl	%edx, %ecx
	sete	%al
	jmp	.L927
	.p2align 4,,7
	.p2align 3
.L931:
	movl	%ecx, %esi
	movl	%ecx, %ebx
	andl	$14, %esi
	andl	$15, %ebx
	movzbl	%cl, %eax
	cmpl	$14, %esi
	cmove	%eax, %ebx
	xorl	%eax, %eax
	cmpl	$5, %ebx
	je	.L969
	addl	$12, %esp
	.cfi_remember_state
	.cfi_def_cfa_offset 20
	popl	%ebx
	.cfi_restore 3
	.cfi_def_cfa_offset 16
	popl	%esi
	.cfi_restore 6
	.cfi_def_cfa_offset 12
	popl	%edi
	.cfi_restore 7
	.cfi_def_cfa_offset 8
	popl	%ebp
	.cfi_restore 5
	.cfi_def_cfa_offset 4
	ret
	.p2align 4,,7
	.p2align 3
.L932:
	.cfi_restore_state
	movl	%ecx, %edx
	movl	%ecx, %eax
	andl	$14, %edx
	andl	$15, %eax
	movzbl	%cl, %ecx
	cmpl	$14, %edx
	cmove	%ecx, %eax
	cmpl	$7, %eax
	sete	%al
	addl	$12, %esp
	.cfi_remember_state
	.cfi_def_cfa_offset 20
	popl	%ebx
	.cfi_restore 3
	.cfi_def_cfa_offset 16
	movzbl	%al, %eax
	popl	%esi
	.cfi_restore 6
	.cfi_def_cfa_offset 12
	popl	%edi
	.cfi_restore 7
	.cfi_def_cfa_offset 8
	popl	%ebp
	.cfi_restore 5
	.cfi_def_cfa_offset 4
	ret
	.p2align 4,,7
	.p2align 3
.L933:
	.cfi_restore_state
	movl	%ecx, %esi
	movl	%ecx, %ebx
	andl	$14, %esi
	andl	$15, %ebx
	movzbl	%cl, %eax
	cmpl	$14, %esi
	cmove	%eax, %ebx
	xorl	%eax, %eax
	cmpl	$9, %ebx
	je	.L969
	addl	$12, %esp
	.cfi_remember_state
	.cfi_def_cfa_offset 20
	popl	%ebx
	.cfi_restore 3
	.cfi_def_cfa_offset 16
	popl	%esi
	.cfi_restore 6
	.cfi_def_cfa_offset 12
	popl	%edi
	.cfi_restore 7
	.cfi_def_cfa_offset 8
	popl	%ebp
	.cfi_restore 5
	.cfi_def_cfa_offset 4
	ret
	.p2align 4,,7
	.p2align 3
.L954:
	.cfi_restore_state
	xorl	%eax, %eax
	jmp	.L927
	.p2align 4,,7
	.p2align 3
.L970:
	call	halt
	.p2align 4,,7
	.p2align 3
.L938:
	movl	$4096, %eax
	jmp	.L939
.L941:
	movl	$4096, %ebx
	jmp	.L942
	.cfi_endproc
.LFE387:
	.size	Arch_sameRegionAs, .-Arch_sameRegionAs
	.p2align 4,,15
	.globl	Arch_sameObjectAs
	.type	Arch_sameObjectAs, @function
Arch_sameObjectAs:
.LFB388:
	.cfi_startproc
	pushl	%ebp
	.cfi_def_cfa_offset 8
	.cfi_offset 5, -8
	pushl	%edi
	.cfi_def_cfa_offset 12
	.cfi_offset 7, -12
	pushl	%esi
	.cfi_def_cfa_offset 16
	.cfi_offset 6, -16
	pushl	%ebx
	.cfi_def_cfa_offset 20
	.cfi_offset 3, -20
	movl	20(%esp), %eax
	movl	24(%esp), %edi
	movl	28(%esp), %ecx
	movl	32(%esp), %ebp
	movl	%eax, %esi
	movl	%eax, %edx
	andl	$14, %esi
	andl	$15, %edx
	movzbl	%al, %ebx
	cmpl	$14, %esi
	cmove	%ebx, %edx
	cmpl	$1, %edx
	je	.L983
.L976:
	movl	%ecx, 28(%esp)
	movl	%ebp, 32(%esp)
	movl	%eax, 20(%esp)
	movl	%edi, 24(%esp)
	popl	%ebx
	.cfi_remember_state
	.cfi_restore 3
	.cfi_def_cfa_offset 16
	popl	%esi
	.cfi_restore 6
	.cfi_def_cfa_offset 12
	popl	%edi
	.cfi_restore 7
	.cfi_def_cfa_offset 8
	popl	%ebp
	.cfi_restore 5
	.cfi_def_cfa_offset 4
	jmp	Arch_sameRegionAs
	.p2align 4,,7
	.p2align 3
.L983:
	.cfi_restore_state
	movl	%ecx, %esi
	movl	%ecx, %edx
	andl	$14, %esi
	andl	$15, %edx
	movzbl	%cl, %ebx
	cmpl	$14, %esi
	cmove	%ebx, %edx
	cmpl	$1, %edx
	jne	.L976
	andl	$16777200, %eax
	andl	$16777200, %ecx
	movl	%eax, %edx
	xorl	%eax, %eax
	cmpl	%edx, %ecx
	je	.L984
.L980:
	popl	%ebx
	.cfi_remember_state
	.cfi_restore 3
	.cfi_def_cfa_offset 16
	popl	%esi
	.cfi_restore 6
	.cfi_def_cfa_offset 12
	popl	%edi
	.cfi_restore 7
	.cfi_def_cfa_offset 8
	popl	%ebp
	.cfi_restore 5
	.cfi_def_cfa_offset 4
	ret
	.p2align 4,,7
	.p2align 3
.L984:
	.cfi_restore_state
	shrl	$31, %edi
	xorl	%eax, %eax
	shrl	$31, %ebp
	cmpl	%ebp, %edi
	sete	%al
	jmp	.L980
	.cfi_endproc
.LFE388:
	.size	Arch_sameObjectAs, .-Arch_sameObjectAs
	.p2align 4,,15
	.globl	Arch_getObjectSize
	.type	Arch_getObjectSize, @function
Arch_getObjectSize:
.LFB389:
	.cfi_startproc
	subl	$12, %esp
	.cfi_def_cfa_offset 16
	movl	16(%esp), %eax
	cmpl	$6, %eax
	je	.L990
	ja	.L988
	cmpl	$5, %eax
	jne	.L986
.L989:
	movl	$12, %eax
	addl	$12, %esp
	.cfi_remember_state
	.cfi_def_cfa_offset 4
	ret
	.p2align 4,,7
	.p2align 3
.L988:
	.cfi_restore_state
	cmpl	$8, %eax
	jbe	.L989
.L986:
	call	halt
	.p2align 4,,7
	.p2align 3
.L990:
	movl	$22, %eax
	addl	$12, %esp
	.cfi_def_cfa_offset 4
	ret
	.cfi_endproc
.LFE389:
	.size	Arch_getObjectSize, .-Arch_getObjectSize
	.p2align 4,,15
	.globl	Arch_createObject
	.type	Arch_createObject, @function
Arch_createObject:
.LFB390:
	.cfi_startproc
	pushl	%edi
	.cfi_def_cfa_offset 8
	.cfi_offset 7, -8
	pushl	%esi
	.cfi_def_cfa_offset 12
	.cfi_offset 6, -12
	pushl	%ebx
	.cfi_def_cfa_offset 16
	.cfi_offset 3, -16
	subl	$16, %esp
	.cfi_def_cfa_offset 32
	movl	36(%esp), %eax
	movl	32(%esp), %esi
	movl	40(%esp), %ebx
	cmpl	$6, %eax
	je	.L997
	jbe	.L1054
	cmpl	$7, %eax
	je	.L1000
	cmpl	$8, %eax
	.p2align 4,,5
	jne	.L996
	testb	$1, %bl
	movl	%ebx, %edi
	movl	$4096, %edx
	jne	.L1055
.L1011:
	testl	$2, %edi
	jne	.L1056
.L1012:
	movl	%edx, %ecx
	xorl	%eax, %eax
	shrl	$2, %ecx
	testb	$2, %dl
	rep stosl
	jne	.L1057
	andl	$1, %edx
	jne	.L1058
.L1014:
	movl	ia32KSkernelPD, %ecx
	movl	$896, %eax
	.p2align 4,,7
	.p2align 3
.L1016:
	movl	(%ecx,%eax,4), %edx
	movl	%edx, (%ebx,%eax,4)
	addl	$1, %eax
	cmpl	$1024, %eax
	jne	.L1016
	andl	$-4096, %ebx
	movl	%esi, %eax
	shrl	$8, %ebx
	orl	$5, %ebx
	movl	%ebx, (%esi)
	movl	$0, 4(%esi)
	addl	$16, %esp
	.cfi_remember_state
	.cfi_def_cfa_offset 16
	popl	%ebx
	.cfi_restore 3
	.cfi_def_cfa_offset 12
	popl	%esi
	.cfi_restore 6
	.cfi_def_cfa_offset 8
	popl	%edi
	.cfi_restore 7
	.cfi_def_cfa_offset 4
	ret	$4
	.p2align 4,,7
	.p2align 3
.L1000:
	.cfi_restore_state
	testb	$1, %bl
	movl	%ebx, %edi
	movl	$4096, %edx
	jne	.L1059
.L1007:
	testl	$2, %edi
	jne	.L1060
.L1008:
	movl	%edx, %ecx
	xorl	%eax, %eax
	shrl	$2, %ecx
	testb	$2, %dl
	rep stosl
	jne	.L1061
	andl	$1, %edx
	jne	.L1062
.L1010:
	andl	$-4096, %ebx
	movl	%esi, %eax
	shrl	$8, %ebx
	orl	$3, %ebx
	movl	%ebx, (%esi)
	movl	$0, 4(%esi)
	addl	$16, %esp
	.cfi_remember_state
	.cfi_def_cfa_offset 16
	popl	%ebx
	.cfi_restore 3
	.cfi_def_cfa_offset 12
	popl	%esi
	.cfi_restore 6
	.cfi_def_cfa_offset 8
	popl	%edi
	.cfi_restore 7
	.cfi_def_cfa_offset 4
	ret	$4
	.p2align 4,,7
	.p2align 3
.L1054:
	.cfi_restore_state
	cmpl	$5, %eax
	jne	.L996
	testb	$1, %bl
	movl	%ebx, %edi
	movl	$4096, %edx
	jne	.L1063
.L1002:
	testl	$2, %edi
	jne	.L1064
.L1003:
	movl	%edx, %ecx
	xorl	%eax, %eax
	shrl	$2, %ecx
	testb	$2, %dl
	rep stosl
	jne	.L1065
	andl	$1, %edx
	jne	.L1066
.L1005:
	andl	$-4096, %ebx
	movl	%esi, %eax
	shrl	$8, %ebx
	orl	$50331649, %ebx
	movl	%ebx, (%esi)
	movl	$0, 4(%esi)
	addl	$16, %esp
	.cfi_remember_state
	.cfi_def_cfa_offset 16
	popl	%ebx
	.cfi_restore 3
	.cfi_def_cfa_offset 12
	popl	%esi
	.cfi_restore 6
	.cfi_def_cfa_offset 8
	popl	%edi
	.cfi_restore 7
	.cfi_def_cfa_offset 4
	ret	$4
	.p2align 4,,7
	.p2align 3
.L996:
	.cfi_restore_state
	call	halt
	.p2align 4,,7
	.p2align 3
.L997:
	movl	%ebx, (%esp)
	andl	$-4096, %ebx
	shrl	$8, %ebx
	movl	$4194304, 8(%esp)
	orl	$50331649, %ebx
	movl	$0, 4(%esp)
	call	memset
	movl	%esi, %eax
	movl	%ebx, (%esi)
	movl	$-2147483648, 4(%esi)
	addl	$16, %esp
	.cfi_remember_state
	.cfi_def_cfa_offset 16
	popl	%ebx
	.cfi_restore 3
	.cfi_def_cfa_offset 12
	popl	%esi
	.cfi_restore 6
	.cfi_def_cfa_offset 8
	popl	%edi
	.cfi_restore 7
	.cfi_def_cfa_offset 4
	ret	$4
.L1066:
	.cfi_restore_state
	movb	$0, (%edi)
	jmp	.L1005
.L1065:
	xorl	%eax, %eax
	addl	$2, %edi
	movw	%ax, -2(%edi)
	andl	$1, %edx
	je	.L1005
	jmp	.L1066
.L1062:
	movb	$0, (%edi)
	jmp	.L1010
.L1058:
	movb	$0, (%edi)
	.p2align 4,,5
	jmp	.L1014
.L1057:
	xorl	%eax, %eax
	addl	$2, %edi
	movw	%ax, -2(%edi)
	andl	$1, %edx
	je	.L1014
	jmp	.L1058
.L1061:
	xorl	%eax, %eax
	addl	$2, %edi
	movw	%ax, -2(%edi)
	andl	$1, %edx
	je	.L1010
	jmp	.L1062
.L1064:
	xorl	%eax, %eax
	addl	$2, %edi
	movw	%ax, -2(%edi)
	subl	$2, %edx
	jmp	.L1003
.L1055:
	movb	$0, (%ebx)
	leal	1(%ebx), %edi
	movw	$4095, %dx
	jmp	.L1011
.L1059:
	movb	$0, (%ebx)
	leal	1(%ebx), %edi
	movw	$4095, %dx
	jmp	.L1007
.L1060:
	xorl	%eax, %eax
	addl	$2, %edi
	movw	%ax, -2(%edi)
	subl	$2, %edx
	jmp	.L1008
.L1056:
	xorl	%ecx, %ecx
	addl	$2, %edi
	movw	%cx, -2(%edi)
	subl	$2, %edx
	jmp	.L1012
.L1063:
	movb	$0, (%ebx)
	leal	1(%ebx), %edi
	movw	$4095, %dx
	jmp	.L1002
	.cfi_endproc
.LFE390:
	.size	Arch_createObject, .-Arch_createObject
	.p2align 4,,15
	.globl	Arch_prepareThreadDelete
	.type	Arch_prepareThreadDelete, @function
Arch_prepareThreadDelete:
.LFB392:
	.cfi_startproc
	subl	$28, %esp
	.cfi_def_cfa_offset 32
	movl	32(%esp), %eax
	cmpl	ia32KSfpuOwner, %eax
	je	.L1074
	addl	$28, %esp
	.cfi_remember_state
	.cfi_def_cfa_offset 4
	ret
	.p2align 4,,7
	.p2align 3
.L1074:
	.cfi_restore_state
#APP
# 45 "/home/mscapero/Desktop/seL4/seL4test/kernel/include/arch/ia32/arch/machine/fpu.h" 1
	clts
# 0 "" 2
#NO_APP
	testl	%eax, %eax
	je	.L1069
	addl	$80, %eax
	movl	%eax, (%esp)
	call	saveFpuState
.L1069:
#APP
# 41 "/home/mscapero/Desktop/seL4/seL4test/kernel/include/arch/ia32/arch/machine/cpu_registers.h" 1
	movl %cr0, %eax
# 0 "" 2
#NO_APP
	orl	$8, %eax
#APP
# 47 "/home/mscapero/Desktop/seL4/seL4test/kernel/include/arch/ia32/arch/machine/cpu_registers.h" 1
	movl %eax, %cr0
# 0 "" 2
#NO_APP
	movl	$0, ia32KSfpuOwner
	addl	$28, %esp
	.cfi_def_cfa_offset 4
	ret
	.cfi_endproc
.LFE392:
	.size	Arch_prepareThreadDelete, .-Arch_prepareThreadDelete
	.p2align 4,,15
	.globl	setMRs_fault
	.type	setMRs_fault, @function
setMRs_fault:
.LFB394:
	.cfi_startproc
	pushl	%esi
	.cfi_def_cfa_offset 8
	.cfi_offset 6, -8
	pushl	%ebx
	.cfi_def_cfa_offset 12
	.cfi_offset 3, -12
	subl	$4, %esp
	.cfi_def_cfa_offset 16
	movl	16(%esp), %eax
	movl	20(%esp), %ebx
	movl	24(%esp), %ecx
	movl	604(%eax), %edx
	andl	$7, %edx
	cmpl	$2, %edx
	je	.L1077
	jbe	.L1100
	cmpl	$3, %edx
	je	.L1080
	cmpl	$4, %edx
	.p2align 4,,5
	jne	.L1076
	movl	44(%eax), %edx
	testl	%ecx, %ecx
	movl	%edx, 20(%ebx)
	movl	68(%eax), %edx
	movl	%edx, 24(%ebx)
	je	.L1083
	movl	64(%eax), %edx
	movl	%edx, 12(%ecx)
	movl	608(%eax), %edx
	movl	%edx, 16(%ecx)
	movl	604(%eax), %eax
	shrl	$3, %eax
	movl	%eax, 20(%ecx)
	movl	$5, %eax
	jmp	.L1089
	.p2align 4,,7
	.p2align 3
.L1080:
	movl	(%eax), %edx
	testl	%ecx, %ecx
	movl	%edx, 20(%ebx)
	movl	4(%eax), %edx
	movl	%edx, 24(%ebx)
	je	.L1083
	movl	8(%eax), %edx
	movl	%edx, 12(%ecx)
	movl	12(%eax), %edx
	movl	%edx, 16(%ecx)
	movl	16(%eax), %edx
	movl	%edx, 20(%ecx)
	movl	20(%eax), %edx
	movl	%edx, 24(%ecx)
	movl	24(%eax), %edx
	movl	%edx, 28(%ecx)
	movl	56(%eax), %edx
	movl	%edx, 32(%ecx)
	movl	68(%eax), %edx
	movl	%edx, 36(%ecx)
	movl	64(%eax), %edx
	movl	%edx, 40(%ecx)
	movl	608(%eax), %eax
	movl	%eax, 44(%ecx)
	addl	$4, %esp
	.cfi_remember_state
	.cfi_def_cfa_offset 12
	movl	$11, %eax
	popl	%ebx
	.cfi_restore 3
	.cfi_def_cfa_offset 8
	popl	%esi
	.cfi_restore 6
	.cfi_def_cfa_offset 4
	ret
	.p2align 4,,7
	.p2align 3
.L1100:
	.cfi_restore_state
	cmpl	$1, %edx
	jne	.L1076
	movl	44(%eax), %edx
	testl	%ecx, %ecx
	movl	%edx, 20(%ebx)
	movl	608(%eax), %edx
	movl	%edx, 24(%ebx)
	je	.L1083
	movl	604(%eax), %edx
	shrl	$31, %edx
	movl	%edx, 12(%ecx)
	movl	612(%eax), %edx
	movl	616(%eax), %esi
	movl	%edx, %eax
	andl	$3, %eax
	leal	1(%eax), %ebx
	cmpl	$2, %eax
	movl	%ebx, 16(%ecx)
	je	.L1086
	cmpl	$3, %eax
	je	.L1087
	cmpl	$1, %eax
	jne	.L1099
	andl	$252, %edx
	movb	$5, %al
	shrl	$2, %edx
	movl	%edx, 20(%ecx)
	jmp	.L1089
	.p2align 4,,7
	.p2align 3
.L1076:
	call	halt
	.p2align 4,,7
	.p2align 3
.L1077:
	movl	44(%eax), %edx
	testl	%ecx, %ecx
	movl	%edx, 20(%ebx)
	movl	608(%eax), %edx
	movl	%edx, 24(%ebx)
	je	.L1083
	movl	604(%eax), %edx
	andl	$524288, %edx
	shrl	$19, %edx
	movl	%edx, 12(%ecx)
	movl	604(%eax), %eax
	shrl	$27, %eax
	movl	%eax, 16(%ecx)
.L1099:
	movl	$4, %eax
.L1089:
	addl	$4, %esp
	.cfi_remember_state
	.cfi_def_cfa_offset 12
	popl	%ebx
	.cfi_restore 3
	.cfi_def_cfa_offset 8
	popl	%esi
	.cfi_restore 6
	.cfi_def_cfa_offset 4
	ret
	.p2align 4,,7
	.p2align 3
.L1083:
	.cfi_restore_state
	addl	$4, %esp
	.cfi_remember_state
	.cfi_def_cfa_offset 12
	movl	$2, %eax
	popl	%ebx
	.cfi_restore 3
	.cfi_def_cfa_offset 8
	popl	%esi
	.cfi_restore 6
	.cfi_def_cfa_offset 4
	ret
	.p2align 4,,7
	.p2align 3
.L1087:
	.cfi_restore_state
	movl	%edx, %eax
	andl	$252, %edx
	andl	$16128, %eax
	shrl	$8, %eax
	shrl	$2, %edx
	movl	%eax, 20(%ecx)
	movl	$7, %eax
	movl	%esi, 24(%ecx)
	movl	%edx, 28(%ecx)
	jmp	.L1089
	.p2align 4,,7
	.p2align 3
.L1086:
	movl	%edx, %eax
	andl	$16128, %edx
	andl	$252, %eax
	shrl	$2, %eax
	shrl	$8, %edx
	movl	%eax, 20(%ecx)
	movl	$6, %eax
	movl	%edx, 24(%ecx)
	jmp	.L1089
	.cfi_endproc
.LFE394:
	.size	setMRs_fault, .-setMRs_fault
	.p2align 4,,15
	.globl	setMRs_syscall_error
	.type	setMRs_syscall_error, @function
setMRs_syscall_error:
.LFB395:
	.cfi_startproc
	pushl	%esi
	.cfi_def_cfa_offset 8
	.cfi_offset 6, -8
	pushl	%ebx
	.cfi_def_cfa_offset 12
	.cfi_offset 3, -12
	subl	$4, %esp
	.cfi_def_cfa_offset 16
	movl	current_syscall_error+24, %eax
	cmpl	$10, %eax
	ja	.L1102
	jmp	*.L1104(,%eax,4)
	.section	.rodata
	.align 4
	.align 4
.L1104:
	.long	.L1102
	.long	.L1103
	.long	.L1105
	.long	.L1114
	.long	.L1107
	.long	.L1114
	.long	.L1108
	.long	.L1114
	.long	.L1114
	.long	.L1114
	.long	.L1109
	.text
	.p2align 4,,7
	.p2align 3
.L1114:
	xorl	%eax, %eax
.L1106:
	addl	$4, %esp
	.cfi_remember_state
	.cfi_def_cfa_offset 12
	popl	%ebx
	.cfi_restore 3
	.cfi_def_cfa_offset 8
	popl	%esi
	.cfi_restore 6
	.cfi_def_cfa_offset 4
	ret
	.p2align 4,,7
	.p2align 3
.L1107:
	.cfi_restore_state
	movl	current_syscall_error+8, %eax
	movl	16(%esp), %ecx
	movl	%eax, 20(%ecx)
	movl	current_syscall_error+12, %eax
	movl	%eax, 24(%ecx)
	addl	$4, %esp
	.cfi_remember_state
	.cfi_def_cfa_offset 12
	movl	$2, %eax
	popl	%ebx
	.cfi_restore 3
	.cfi_def_cfa_offset 8
	popl	%esi
	.cfi_restore 6
	.cfi_def_cfa_offset 4
	ret
	.p2align 4,,7
	.p2align 3
.L1109:
	.cfi_restore_state
	movl	current_syscall_error+16, %eax
	movl	16(%esp), %esi
	movl	%eax, 20(%esi)
	addl	$4, %esp
	.cfi_remember_state
	.cfi_def_cfa_offset 12
	xorl	%eax, %eax
	popl	%ebx
	.cfi_restore 3
	.cfi_def_cfa_offset 8
	popl	%esi
	.cfi_restore 6
	.cfi_def_cfa_offset 4
	ret
	.p2align 4,,7
	.p2align 3
.L1108:
	.cfi_restore_state
	movl	current_syscall_error+20, %edx
	xorl	%eax, %eax
	movl	16(%esp), %ecx
	movl	16(%esp), %esi
	movl	current_lookup_fault+4, %ebx
	testl	%edx, %edx
	setne	%al
	movl	%eax, 20(%ecx)
	movl	current_lookup_fault, %ecx
	movl	%ecx, %edx
	andl	$3, %edx
	leal	1(%edx), %eax
	movl	%eax, 24(%esi)
	movl	20(%esp), %esi
	movl	$2, %eax
	testl	%esi, %esi
	je	.L1106
	cmpl	$2, %edx
	je	.L1111
	cmpl	$3, %edx
	je	.L1112
	cmpl	$1, %edx
	.p2align 4,,2
	jne	.L1106
	movl	20(%esp), %eax
	andl	$252, %ecx
	shrl	$2, %ecx
	movl	%ecx, 12(%eax)
	movl	$3, %eax
	jmp	.L1106
	.p2align 4,,7
	.p2align 3
.L1103:
	movl	16(%esp), %ebx
	movl	current_syscall_error, %edx
	movl	%edx, 20(%ebx)
	addl	$4, %esp
	.cfi_remember_state
	.cfi_def_cfa_offset 12
	popl	%ebx
	.cfi_restore 3
	.cfi_def_cfa_offset 8
	popl	%esi
	.cfi_restore 6
	.cfi_def_cfa_offset 4
	ret
	.p2align 4,,7
	.p2align 3
.L1105:
	.cfi_restore_state
	movl	current_syscall_error+4, %eax
	movl	16(%esp), %ebx
	movl	%eax, 20(%ebx)
	addl	$4, %esp
	.cfi_remember_state
	.cfi_def_cfa_offset 12
	movl	$1, %eax
	popl	%ebx
	.cfi_restore 3
	.cfi_def_cfa_offset 8
	popl	%esi
	.cfi_restore 6
	.cfi_def_cfa_offset 4
	ret
	.p2align 4,,7
	.p2align 3
.L1102:
	.cfi_restore_state
	call	halt
	.p2align 4,,7
	.p2align 3
.L1112:
	movl	20(%esp), %esi
	movl	%ecx, %eax
	andl	$252, %ecx
	andl	$16128, %eax
	shrl	$8, %eax
	shrl	$2, %ecx
	movl	%eax, 12(%esi)
	movl	$5, %eax
	movl	%ebx, 16(%esi)
	movl	%ecx, 20(%esi)
	jmp	.L1106
	.p2align 4,,7
	.p2align 3
.L1111:
	movl	20(%esp), %esi
	movl	%ecx, %eax
	andl	$16128, %ecx
	andl	$252, %eax
	shrl	$2, %eax
	shrl	$8, %ecx
	movl	%eax, 12(%esi)
	movl	$4, %eax
	movl	%ecx, 16(%esi)
	jmp	.L1106
	.cfi_endproc
.LFE395:
	.size	setMRs_syscall_error, .-setMRs_syscall_error
	.p2align 4,,15
	.globl	Arch_decodeTransfer
	.type	Arch_decodeTransfer, @function
Arch_decodeTransfer:
.LFB396:
	.cfi_startproc
	xorl	%eax, %eax
	ret
	.cfi_endproc
.LFE396:
	.size	Arch_decodeTransfer, .-Arch_decodeTransfer
	.p2align 4,,15
	.globl	Arch_performTransfer
	.type	Arch_performTransfer, @function
Arch_performTransfer:
.LFB397:
	.cfi_startproc
	xorl	%eax, %eax
	ret
	.cfi_endproc
.LFE397:
	.size	Arch_performTransfer, .-Arch_performTransfer
	.section	.boot.text
	.p2align 4,,15
	.globl	insert_region
	.type	insert_region, @function
insert_region:
.LFB398:
	.cfi_startproc
	pushl	%ebx
	.cfi_def_cfa_offset 8
	.cfi_offset 3, -8
	movl	8(%esp), %ecx
	movl	12(%esp), %edx
	cmpl	%ecx, %edx
	je	.L1124
	movl	ndks_boot+4, %eax
	cmpl	%eax, ndks_boot
	movl	$0, %eax
	je	.L1123
	movl	ndks_boot+12, %ebx
	cmpl	%ebx, ndks_boot+8
	je	.L1128
	popl	%ebx
	.cfi_remember_state
	.cfi_restore 3
	.cfi_def_cfa_offset 4
	ret
	.p2align 4,,7
	.p2align 3
.L1124:
	.cfi_restore_state
	movl	$1, %eax
	popl	%ebx
	.cfi_remember_state
	.cfi_restore 3
	.cfi_def_cfa_offset 4
	ret
	.p2align 4,,7
	.p2align 3
.L1128:
	.cfi_restore_state
	movb	$1, %al
.L1123:
	movl	%ecx, ndks_boot(,%eax,8)
	movl	%edx, ndks_boot+4(,%eax,8)
	movl	$1, %eax
	popl	%ebx
	.cfi_restore 3
	.cfi_def_cfa_offset 4
	ret
	.cfi_endproc
.LFE398:
	.size	insert_region, .-insert_region
	.p2align 4,,15
	.globl	alloc_region
	.type	alloc_region, @function
alloc_region:
.LFB400:
	.cfi_startproc
	pushl	%ebp
	.cfi_def_cfa_offset 8
	.cfi_offset 5, -8
	pushl	%edi
	.cfi_def_cfa_offset 12
	.cfi_offset 7, -12
	movl	$1, %edi
	pushl	%esi
	.cfi_def_cfa_offset 16
	.cfi_offset 6, -16
	pushl	%ebx
	.cfi_def_cfa_offset 20
	.cfi_offset 3, -20
	subl	$28, %esp
	.cfi_def_cfa_offset 48
	movl	ndks_boot, %ebp
	movl	48(%esp), %ecx
	movl	ndks_boot+4, %eax
	leal	-1(%ebp), %edx
	shrl	%cl, %edx
	addl	$1, %edx
	movl	%eax, %esi
	sall	%cl, %edx
	movl	%eax, 8(%esp)
	shrl	%cl, %eax
	movl	%edx, %ebx
	sall	%cl, %eax
	subl	%ebp, %ebx
	subl	%eax, %esi
	sall	%cl, %edi
	cmpl	%ebx, %esi
	ja	.L1130
	movl	%eax, %edx
	subl	%edi, %edx
.L1131:
	cmpl	%edx, %eax
	jbe	.L1145
	cmpl	%edx, %ebp
	jbe	.L1161
.L1145:
	movl	$0, 8(%esp)
	xorl	%ebp, %ebp
	xorl	%eax, %eax
	movl	$0, 20(%esp)
	xorl	%edx, %edx
	movl	$0, 12(%esp)
.L1132:
	movl	ndks_boot+8, %ebx
	movl	ndks_boot+12, %esi
	movl	%ebx, (%esp)
	subl	$1, %ebx
	shrl	%cl, %ebx
	addl	$1, %ebx
	sall	%cl, %ebx
	movl	%esi, 4(%esp)
	shrl	%cl, %esi
	sall	%cl, %esi
	movl	%ebx, %ecx
	subl	(%esp), %ecx
	movl	%ecx, 16(%esp)
	movl	4(%esp), %ecx
	subl	%esi, %ecx
	cmpl	%ecx, 16(%esp)
	jae	.L1134
	leal	(%ebx,%edi), %esi
.L1135:
	cmpl	%ebx, %esi
	jbe	.L1149
	cmpl	%ebx, (%esp)
	jbe	.L1162
.L1149:
	xorl	%ecx, %ecx
.L1136:
	cmpl	%edx, %eax
	je	.L1155
.L1138:
	movl	8(%esp), %eax
	cmpl	%eax, 20(%esp)
	movl	$0, ndks_boot(,%ecx,8)
	movl	$0, ndks_boot+4(,%ecx,8)
	je	.L1140
	movl	ndks_boot+4, %eax
	cmpl	%eax, ndks_boot
	je	.L1156
	movl	ndks_boot+12, %eax
	cmpl	%eax, ndks_boot+8
	je	.L1163
.L1140:
	cmpl	12(%esp), %ebp
	movl	%edx, %eax
	je	.L1139
	movl	ndks_boot+4, %eax
	cmpl	%eax, ndks_boot
	je	.L1158
	movl	ndks_boot+12, %edi
	movl	%edx, %eax
	cmpl	%edi, ndks_boot+8
	je	.L1164
.L1139:
	addl	$28, %esp
	.cfi_remember_state
	.cfi_def_cfa_offset 20
	popl	%ebx
	.cfi_restore 3
	.cfi_def_cfa_offset 16
	popl	%esi
	.cfi_restore 6
	.cfi_def_cfa_offset 12
	popl	%edi
	.cfi_restore 7
	.cfi_def_cfa_offset 8
	popl	%ebp
	.cfi_restore 5
	.cfi_def_cfa_offset 4
	ret
	.p2align 4,,7
	.p2align 3
.L1134:
	.cfi_restore_state
	movl	%esi, %ebx
	subl	%edi, %ebx
	jmp	.L1135
	.p2align 4,,7
	.p2align 3
.L1130:
	leal	(%edx,%edi), %eax
	jmp	.L1131
	.p2align 4,,7
	.p2align 3
.L1162:
	cmpl	%esi, 4(%esp)
	jb	.L1149
	movl	4(%esp), %ecx
	movl	%ebx, %edi
	subl	(%esp), %edi
	subl	%esi, %ecx
	cmpl	%ecx, %edi
	jb	.L1150
	movl	%edi, 24(%esp)
	movl	(%esp), %edi
	movl	%esi, (%esp)
	movl	%edi, 16(%esp)
	movl	4(%esp), %edi
	movl	%ebx, 4(%esp)
.L1137:
	cmpl	%eax, %edx
	je	.L1152
	movl	12(%esp), %eax
	subl	%ebp, %eax
	cmpl	%ecx, %eax
	ja	.L1152
	movl	$0, %ecx
	jne	.L1138
	movl	8(%esp), %eax
	subl	20(%esp), %eax
	cmpl	24(%esp), %eax
	jbe	.L1138
	movl	4(%esp), %eax
	movl	%ebx, %edx
	movb	$1, %cl
	movl	%edi, 12(%esp)
	movl	(%esp), %ebp
	movl	%eax, 8(%esp)
	movl	16(%esp), %eax
	movl	%eax, 20(%esp)
	movl	%esi, %eax
	jmp	.L1136
	.p2align 4,,7
	.p2align 3
.L1161:
	cmpl	8(%esp), %eax
	ja	.L1145
	movl	8(%esp), %esi
	movl	%edx, %ebx
	subl	%ebp, %ebx
	subl	%eax, %esi
	cmpl	%ebx, %esi
	ja	.L1146
	movl	8(%esp), %esi
	movl	%ebp, 20(%esp)
	movl	%eax, %ebp
	movl	%edx, 8(%esp)
	movl	%esi, 12(%esp)
	jmp	.L1132
	.p2align 4,,7
	.p2align 3
.L1152:
	movl	4(%esp), %eax
	movl	%ebx, %edx
	movl	$1, %ecx
	movl	%edi, 12(%esp)
	movl	(%esp), %ebp
	movl	%eax, 8(%esp)
	movl	16(%esp), %eax
	movl	%eax, 20(%esp)
	movl	%esi, %eax
	jmp	.L1136
	.p2align 4,,7
	.p2align 3
.L1155:
	addl	$28, %esp
	.cfi_remember_state
	.cfi_def_cfa_offset 20
	xorl	%eax, %eax
	popl	%ebx
	.cfi_restore 3
	.cfi_def_cfa_offset 16
	popl	%esi
	.cfi_restore 6
	.cfi_def_cfa_offset 12
	popl	%edi
	.cfi_restore 7
	.cfi_def_cfa_offset 8
	popl	%ebp
	.cfi_restore 5
	.cfi_def_cfa_offset 4
	ret
	.p2align 4,,7
	.p2align 3
.L1146:
	.cfi_restore_state
	movl	%eax, 20(%esp)
	movl	%edx, 12(%esp)
	jmp	.L1132
	.p2align 4,,7
	.p2align 3
.L1150:
	movl	%ecx, 24(%esp)
	movl	%edi, %ecx
	movl	%ebx, %edi
	movl	%esi, 16(%esp)
	jmp	.L1137
	.p2align 4,,7
	.p2align 3
.L1158:
	movl	$ndks_boot, %eax
.L1142:
	movl	12(%esp), %edi
	movl	%ebp, (%eax)
	movl	%edi, 4(%eax)
	movl	%edx, %eax
	jmp	.L1139
	.p2align 4,,7
	.p2align 3
.L1156:
	movl	$ndks_boot, %eax
.L1141:
	movl	20(%esp), %edi
	movl	%edi, (%eax)
	movl	8(%esp), %edi
	movl	%edi, 4(%eax)
	jmp	.L1140
	.p2align 4,,7
	.p2align 3
.L1164:
	movl	$ndks_boot+8, %eax
	jmp	.L1142
	.p2align 4,,7
	.p2align 3
.L1163:
	movl	$ndks_boot+8, %eax
	jmp	.L1141
	.cfi_endproc
.LFE400:
	.size	alloc_region, .-alloc_region
	.p2align 4,,15
	.globl	write_slot
	.type	write_slot, @function
write_slot:
.LFB401:
	.cfi_startproc
	movl	4(%esp), %ecx
	movl	8(%esp), %eax
	movl	12(%esp), %edx
	movl	$0, 8(%ecx)
	movl	%eax, (%ecx)
	movl	%edx, 4(%ecx)
	movl	$3, 12(%ecx)
	ret
	.cfi_endproc
.LFE401:
	.size	write_slot, .-write_slot
	.p2align 4,,15
	.globl	create_root_cnode
	.type	create_root_cnode, @function
create_root_cnode:
.LFB402:
	.cfi_startproc
	pushl	%esi
	.cfi_def_cfa_offset 8
	.cfi_offset 6, -8
	pushl	%ebx
	.cfi_def_cfa_offset 12
	.cfi_offset 3, -12
	subl	$20, %esp
	.cfi_def_cfa_offset 32
	movl	$20, (%esp)
	movl	32(%esp), %ebx
	movl	$65536, ndks_boot+24
	call	alloc_region
	testl	%eax, %eax
	movl	%eax, %esi
	je	.L1170
	movl	$1048576, 8(%esp)
	movl	$0, 4(%esp)
	movl	%eax, (%esp)
	call	memset
	movl	%esi, %eax
	andl	$-32, %eax
	shrl	%eax
	orl	$10, %eax
	movl	%eax, 32(%esi)
	movl	%eax, (%ebx)
	movl	%ebx, %eax
	movl	$138412032, 36(%esi)
	movl	$0, 40(%esi)
	movl	$3, 44(%esi)
	movl	$138412032, 4(%ebx)
	addl	$20, %esp
	.cfi_remember_state
	.cfi_def_cfa_offset 12
	popl	%ebx
	.cfi_restore 3
	.cfi_def_cfa_offset 8
	popl	%esi
	.cfi_restore 6
	.cfi_def_cfa_offset 4
	ret	$4
	.p2align 4,,7
	.p2align 3
.L1170:
	.cfi_restore_state
	movl	$0, (%ebx)
	movl	%ebx, %eax
	movl	$0, 4(%ebx)
	addl	$20, %esp
	.cfi_def_cfa_offset 12
	popl	%ebx
	.cfi_restore 3
	.cfi_def_cfa_offset 8
	popl	%esi
	.cfi_restore 6
	.cfi_def_cfa_offset 4
	ret	$4
	.cfi_endproc
.LFE402:
	.size	create_root_cnode, .-create_root_cnode
	.p2align 4,,15
	.globl	create_irq_cnode
	.type	create_irq_cnode, @function
create_irq_cnode:
.LFB403:
	.cfi_startproc
	pushl	%edi
	.cfi_def_cfa_offset 8
	.cfi_offset 7, -8
	pushl	%ebx
	.cfi_def_cfa_offset 12
	.cfi_offset 3, -12
	call	alloc_region.constprop.155
	movl	%eax, %edx
	xorl	%eax, %eax
	testl	%edx, %edx
	je	.L1172
	testb	$1, %dl
	movl	%edx, %edi
	movl	$4096, %ebx
	jne	.L1192
.L1173:
	testl	$2, %edi
	jne	.L1193
.L1174:
	movl	%ebx, %ecx
	xorl	%eax, %eax
	shrl	$2, %ecx
	testb	$2, %bl
	rep stosl
	jne	.L1194
	andl	$1, %ebx
	jne	.L1195
.L1176:
	movl	%edx, intStateIRQNode
	movl	$1, %eax
.L1172:
	popl	%ebx
	.cfi_remember_state
	.cfi_restore 3
	.cfi_def_cfa_offset 8
	popl	%edi
	.cfi_restore 7
	.cfi_def_cfa_offset 4
	ret
	.p2align 4,,7
	.p2align 3
.L1195:
	.cfi_restore_state
	movb	$0, (%edi)
	jmp	.L1176
	.p2align 4,,7
	.p2align 3
.L1194:
	xorl	%eax, %eax
	addl	$2, %edi
	movw	%ax, -2(%edi)
	andl	$1, %ebx
	je	.L1176
	jmp	.L1195
	.p2align 4,,7
	.p2align 3
.L1193:
	xorl	%ecx, %ecx
	addl	$2, %edi
	movw	%cx, -2(%edi)
	subl	$2, %ebx
	jmp	.L1174
	.p2align 4,,7
	.p2align 3
.L1192:
	movb	$0, (%edx)
	leal	1(%edx), %edi
	movw	$4095, %bx
	jmp	.L1173
	.cfi_endproc
.LFE403:
	.size	create_irq_cnode, .-create_irq_cnode
	.p2align 4,,15
	.globl	create_domain_cap
	.type	create_domain_cap, @function
create_domain_cap:
.LFB404:
	.cfi_startproc
	pushl	%esi
	.cfi_def_cfa_offset 8
	.cfi_offset 6, -8
	pushl	%ebx
	.cfi_def_cfa_offset 12
	.cfi_offset 3, -12
	subl	$4, %esp
	.cfi_def_cfa_offset 16
	movl	16(%esp), %eax
	movl	20(%esp), %esi
	movl	%eax, %ebx
	movl	%eax, %edx
	andl	$14, %ebx
	andl	$15, %edx
	movzbl	%al, %ecx
	cmpl	$14, %ebx
	cmove	%ecx, %edx
	cmpl	$62, %edx
	ja	.L1199
	jmp	*.L1201(,%edx,4)
	.section	.rodata
	.align 4
	.align 4
.L1201:
	.long	.L1213
	.long	.L1208
	.long	.L1207
	.long	.L1208
	.long	.L1207
	.long	.L1208
	.long	.L1207
	.long	.L1213
	.long	.L1213
	.long	.L1208
	.long	.L1209
	.long	.L1213
	.long	.L1210
	.long	.L1199
	.long	.L1213
	.long	.L1199
	.long	.L1199
	.long	.L1199
	.long	.L1199
	.long	.L1199
	.long	.L1199
	.long	.L1199
	.long	.L1199
	.long	.L1199
	.long	.L1199
	.long	.L1199
	.long	.L1199
	.long	.L1199
	.long	.L1199
	.long	.L1199
	.long	.L1213
	.long	.L1199
	.long	.L1199
	.long	.L1199
	.long	.L1199
	.long	.L1199
	.long	.L1199
	.long	.L1199
	.long	.L1199
	.long	.L1199
	.long	.L1199
	.long	.L1199
	.long	.L1199
	.long	.L1199
	.long	.L1199
	.long	.L1199
	.long	.L1211
	.long	.L1199
	.long	.L1199
	.long	.L1199
	.long	.L1199
	.long	.L1199
	.long	.L1199
	.long	.L1199
	.long	.L1199
	.long	.L1199
	.long	.L1199
	.long	.L1199
	.long	.L1199
	.long	.L1199
	.long	.L1199
	.long	.L1199
	.long	.L1213
	.section	.boot.text
	.p2align 4,,7
	.p2align 3
.L1208:
	andl	$16777200, %eax
	sall	$8, %eax
.L1200:
	movl	$62, 176(%eax)
	movl	$0, 180(%eax)
	movl	$0, 184(%eax)
	movl	$3, 188(%eax)
	addl	$4, %esp
	.cfi_remember_state
	.cfi_def_cfa_offset 12
	popl	%ebx
	.cfi_restore 3
	.cfi_def_cfa_offset 8
	popl	%esi
	.cfi_restore 6
	.cfi_def_cfa_offset 4
	ret
	.p2align 4,,7
	.p2align 3
.L1207:
	.cfi_restore_state
	andl	$-16, %eax
	jmp	.L1200
	.p2align 4,,7
	.p2align 3
.L1213:
	xorl	%eax, %eax
	jmp	.L1200
	.p2align 4,,7
	.p2align 3
.L1211:
	andl	$16128, %eax
	shrl	$8, %eax
	cmpl	$32, %eax
	je	.L1214
	leal	1(%eax), %ecx
	movl	$-1, %eax
	sall	%cl, %eax
	andl	%esi, %eax
	jmp	.L1200
	.p2align 4,,7
	.p2align 3
.L1210:
	andl	$-1024, %eax
	jmp	.L1200
	.p2align 4,,7
	.p2align 3
.L1209:
	andl	$2147483632, %eax
	addl	%eax, %eax
	jmp	.L1200
	.p2align 4,,7
	.p2align 3
.L1199:
	call	halt
	.p2align 4,,7
	.p2align 3
.L1214:
	movl	$-16, %eax
	andl	%esi, %eax
	jmp	.L1200
	.cfi_endproc
.LFE404:
	.size	create_domain_cap, .-create_domain_cap
	.p2align 4,,15
	.globl	create_ipcbuf_frame
	.type	create_ipcbuf_frame, @function
create_ipcbuf_frame:
.LFB405:
	.cfi_startproc
	pushl	%edi
	.cfi_def_cfa_offset 8
	.cfi_offset 7, -8
	pushl	%esi
	.cfi_def_cfa_offset 12
	.cfi_offset 6, -12
	pushl	%ebx
	.cfi_def_cfa_offset 16
	.cfi_offset 3, -16
	subl	$16, %esp
	.cfi_def_cfa_offset 32
	movl	32(%esp), %ebx
	call	alloc_region.constprop.155
	testl	%eax, %eax
	movl	%eax, %edx
	je	.L1236
	testb	$1, %al
	movl	%eax, %edi
	movl	$4096, %esi
	jne	.L1237
.L1219:
	testl	$2, %edi
	jne	.L1238
.L1220:
	movl	%esi, %ecx
	xorl	%eax, %eax
	shrl	$2, %ecx
	testl	$2, %esi
	rep stosl
	jne	.L1239
	andl	$1, %esi
	jne	.L1240
.L1222:
	movl	52(%esp), %esi
	andl	$-4096, %edx
	movl	44(%esp), %eax
	movl	%edx, %edi
	movl	48(%esp), %edx
	shrl	$8, %edi
	orl	$50331649, %edi
	shrl	$12, %esi
	orl	$1048576, %esi
	movl	%edi, 8(%esp)
	movl	%esi, 12(%esp)
	movl	%eax, (%esp)
	movl	%edx, 4(%esp)
	call	map_it_frame_cap
	movl	36(%esp), %eax
	movl	40(%esp), %edx
	call	cap_get_capPtr
	movl	%edi, (%ebx)
	movl	%esi, 4(%ebx)
	movl	%edi, 160(%eax)
	movl	%esi, 164(%eax)
	movl	$0, 168(%eax)
	movl	$3, 172(%eax)
	addl	$16, %esp
	.cfi_remember_state
	.cfi_def_cfa_offset 16
	movl	%ebx, %eax
	popl	%ebx
	.cfi_restore 3
	.cfi_def_cfa_offset 12
	popl	%esi
	.cfi_restore 6
	.cfi_def_cfa_offset 8
	popl	%edi
	.cfi_restore 7
	.cfi_def_cfa_offset 4
	ret	$4
	.p2align 4,,7
	.p2align 3
.L1240:
	.cfi_restore_state
	movb	$0, (%edi)
	jmp	.L1222
	.p2align 4,,7
	.p2align 3
.L1239:
	xorl	%eax, %eax
	addl	$2, %edi
	movw	%ax, -2(%edi)
	andl	$1, %esi
	je	.L1222
	jmp	.L1240
	.p2align 4,,7
	.p2align 3
.L1236:
	movl	$0, (%ebx)
	movl	%ebx, %eax
	movl	$0, 4(%ebx)
	addl	$16, %esp
	.cfi_remember_state
	.cfi_def_cfa_offset 16
	popl	%ebx
	.cfi_restore 3
	.cfi_def_cfa_offset 12
	popl	%esi
	.cfi_restore 6
	.cfi_def_cfa_offset 8
	popl	%edi
	.cfi_restore 7
	.cfi_def_cfa_offset 4
	ret	$4
	.p2align 4,,7
	.p2align 3
.L1238:
	.cfi_restore_state
	xorl	%ecx, %ecx
	addl	$2, %edi
	movw	%cx, -2(%edi)
	subl	$2, %esi
	jmp	.L1220
	.p2align 4,,7
	.p2align 3
.L1237:
	movb	$0, (%eax)
	leal	1(%eax), %edi
	movw	$4095, %si
	jmp	.L1219
	.cfi_endproc
.LFE405:
	.size	create_ipcbuf_frame, .-create_ipcbuf_frame
	.p2align 4,,15
	.globl	create_bi_frame_cap
	.type	create_bi_frame_cap, @function
create_bi_frame_cap:
.LFB406:
	.cfi_startproc
	pushl	%ebp
	.cfi_def_cfa_offset 8
	.cfi_offset 5, -8
	pushl	%edi
	.cfi_def_cfa_offset 12
	.cfi_offset 7, -12
	pushl	%esi
	.cfi_def_cfa_offset 16
	.cfi_offset 6, -16
	pushl	%ebx
	.cfi_def_cfa_offset 20
	.cfi_offset 3, -20
	subl	$28, %esp
	.cfi_def_cfa_offset 48
	movl	52(%esp), %eax
	movl	56(%esp), %ecx
	movl	60(%esp), %edi
	movl	68(%esp), %ebx
	movl	%eax, 12(%esp)
	movl	64(%esp), %eax
	movl	%ecx, %edx
	movl	48(%esp), %esi
	movl	%edi, 8(%esp)
	movl	%ecx, %edi
	andl	$15, %edx
	andl	$14, %edi
	andl	$-4096, %eax
	shrl	$8, %eax
	shrl	$12, %ebx
	movl	%eax, %ebp
	movl	%edi, 4(%esp)
	orl	$1048576, %ebx
	orl	$50331649, %ebp
	cmpl	$14, 4(%esp)
	movzbl	%cl, %edi
	cmove	%edi, %edx
	cmpl	$62, %edx
	ja	.L1260
	jmp	*.L1246(,%edx,4)
	.section	.rodata
	.align 4
	.align 4
.L1246:
	.long	.L1274
	.long	.L1253
	.long	.L1252
	.long	.L1253
	.long	.L1252
	.long	.L1253
	.long	.L1252
	.long	.L1274
	.long	.L1274
	.long	.L1253
	.long	.L1254
	.long	.L1274
	.long	.L1255
	.long	.L1260
	.long	.L1274
	.long	.L1260
	.long	.L1260
	.long	.L1260
	.long	.L1260
	.long	.L1260
	.long	.L1260
	.long	.L1260
	.long	.L1260
	.long	.L1260
	.long	.L1260
	.long	.L1260
	.long	.L1260
	.long	.L1260
	.long	.L1260
	.long	.L1260
	.long	.L1274
	.long	.L1260
	.long	.L1260
	.long	.L1260
	.long	.L1260
	.long	.L1260
	.long	.L1260
	.long	.L1260
	.long	.L1260
	.long	.L1260
	.long	.L1260
	.long	.L1260
	.long	.L1260
	.long	.L1260
	.long	.L1260
	.long	.L1260
	.long	.L1256
	.long	.L1260
	.long	.L1260
	.long	.L1260
	.long	.L1260
	.long	.L1260
	.long	.L1260
	.long	.L1260
	.long	.L1260
	.long	.L1260
	.long	.L1260
	.long	.L1260
	.long	.L1260
	.long	.L1260
	.long	.L1260
	.long	.L1260
	.long	.L1274
	.section	.boot.text
	.p2align 4,,7
	.p2align 3
.L1253:
	andl	$16777200, %ecx
	sall	$8, %ecx
.L1245:
	movl	%ebx, %edx
	sall	$12, %edx
	movl	%edx, %edi
	andl	$4194303, %edx
	shrl	$22, %edi
	movl	(%ecx,%edi,4), %ecx
	sall	$8, %eax
	addl	$536870912, %eax
	shrl	$12, %edx
	orl	$7, %eax
	andl	$-4096, %ecx
	movl	%eax, -536870912(%ecx,%edx,4)
	call	invalidatePageStructureCache
	movl	%esi, %ecx
	movl	%esi, %eax
	andl	$14, %ecx
	movl	%esi, %edx
	andl	$15, %eax
	movzbl	%dl, %edx
	cmpl	$14, %ecx
	cmove	%edx, %eax
	cmpl	$62, %eax
	ja	.L1260
	jmp	*.L1262(,%eax,4)
	.section	.rodata
	.align 4
	.align 4
.L1262:
	.long	.L1276
	.long	.L1269
	.long	.L1268
	.long	.L1269
	.long	.L1268
	.long	.L1269
	.long	.L1268
	.long	.L1276
	.long	.L1276
	.long	.L1269
	.long	.L1270
	.long	.L1276
	.long	.L1271
	.long	.L1260
	.long	.L1276
	.long	.L1260
	.long	.L1260
	.long	.L1260
	.long	.L1260
	.long	.L1260
	.long	.L1260
	.long	.L1260
	.long	.L1260
	.long	.L1260
	.long	.L1260
	.long	.L1260
	.long	.L1260
	.long	.L1260
	.long	.L1260
	.long	.L1260
	.long	.L1276
	.long	.L1260
	.long	.L1260
	.long	.L1260
	.long	.L1260
	.long	.L1260
	.long	.L1260
	.long	.L1260
	.long	.L1260
	.long	.L1260
	.long	.L1260
	.long	.L1260
	.long	.L1260
	.long	.L1260
	.long	.L1260
	.long	.L1260
	.long	.L1272
	.long	.L1260
	.long	.L1260
	.long	.L1260
	.long	.L1260
	.long	.L1260
	.long	.L1260
	.long	.L1260
	.long	.L1260
	.long	.L1260
	.long	.L1260
	.long	.L1260
	.long	.L1260
	.long	.L1260
	.long	.L1260
	.long	.L1260
	.long	.L1276
	.section	.boot.text
	.p2align 4,,7
	.p2align 3
.L1269:
	andl	$16777200, %esi
	sall	$8, %esi
.L1261:
	movl	%ebp, 144(%esi)
	movl	%ebx, 148(%esi)
	movl	$0, 152(%esi)
	movl	$3, 156(%esi)
	addl	$28, %esp
	.cfi_remember_state
	.cfi_def_cfa_offset 20
	popl	%ebx
	.cfi_restore 3
	.cfi_def_cfa_offset 16
	popl	%esi
	.cfi_restore 6
	.cfi_def_cfa_offset 12
	popl	%edi
	.cfi_restore 7
	.cfi_def_cfa_offset 8
	popl	%ebp
	.cfi_restore 5
	.cfi_def_cfa_offset 4
	ret
	.p2align 4,,7
	.p2align 3
.L1252:
	.cfi_restore_state
	andl	$-16, %ecx
	jmp	.L1245
	.p2align 4,,7
	.p2align 3
.L1268:
	andl	$-16, %esi
	jmp	.L1261
	.p2align 4,,7
	.p2align 3
.L1274:
	xorl	%ecx, %ecx
	jmp	.L1245
	.p2align 4,,7
	.p2align 3
.L1256:
	andl	$16128, %ecx
	shrl	$8, %ecx
	cmpl	$32, %ecx
	je	.L1275
	addl	$1, %ecx
	movl	$-1, %edx
	sall	%cl, %edx
.L1257:
	movl	8(%esp), %ecx
	andl	%edx, %ecx
	jmp	.L1245
	.p2align 4,,7
	.p2align 3
.L1255:
	andl	$-1024, %ecx
	jmp	.L1245
	.p2align 4,,7
	.p2align 3
.L1254:
	andl	$2147483632, %ecx
	addl	%ecx, %ecx
	jmp	.L1245
	.p2align 4,,7
	.p2align 3
.L1276:
	xorl	%esi, %esi
	jmp	.L1261
	.p2align 4,,7
	.p2align 3
.L1270:
	andl	$2147483632, %esi
	addl	%esi, %esi
	jmp	.L1261
	.p2align 4,,7
	.p2align 3
.L1271:
	andl	$-1024, %esi
	jmp	.L1261
	.p2align 4,,7
	.p2align 3
.L1272:
	andl	$16128, %esi
	shrl	$8, %esi
	cmpl	$32, %esi
	je	.L1277
	leal	1(%esi), %ecx
	movl	$-1, %esi
	sall	%cl, %esi
.L1273:
	andl	12(%esp), %esi
	jmp	.L1261
	.p2align 4,,7
	.p2align 3
.L1260:
	call	halt
	.p2align 4,,7
	.p2align 3
.L1275:
	movl	$-16, %edx
	jmp	.L1257
	.p2align 4,,7
	.p2align 3
.L1277:
	movl	$-16, %esi
	jmp	.L1273
	.cfi_endproc
.LFE406:
	.size	create_bi_frame_cap, .-create_bi_frame_cap
	.p2align 4,,15
	.globl	allocate_bi_frame
	.type	allocate_bi_frame, @function
allocate_bi_frame:
.LFB407:
	.cfi_startproc
	pushl	%edi
	.cfi_def_cfa_offset 8
	.cfi_offset 7, -8
	pushl	%ebx
	.cfi_def_cfa_offset 12
	.cfi_offset 3, -12
	call	alloc_region.constprop.155
	testl	%eax, %eax
	movl	%eax, %edx
	je	.L1280
	testb	$1, %al
	movl	%eax, %edi
	movl	$4096, %ebx
	jne	.L1301
.L1281:
	testl	$2, %edi
	jne	.L1302
.L1282:
	movl	%ebx, %ecx
	xorl	%eax, %eax
	shrl	$2, %ecx
	testb	$2, %bl
	rep stosl
	jne	.L1303
	andl	$1, %ebx
	jne	.L1304
.L1284:
	movl	12(%esp), %eax
	movl	%edx, ndks_boot+16
	movl	$12, ndks_boot+20
	movb	$16, 891(%edx)
	movl	%eax, (%edx)
	movl	16(%esp), %eax
	movl	$0, 8(%edx)
	movl	%eax, 4(%edx)
	movl	20(%esp), %eax
	movl	%eax, 12(%edx)
	movl	ksDomScheduleIdx, %eax
	movl	ksDomSchedule(,%eax,8), %eax
	movb	%al, 4080(%edx)
.L1280:
	movl	%edx, %eax
	popl	%ebx
	.cfi_remember_state
	.cfi_restore 3
	.cfi_def_cfa_offset 8
	popl	%edi
	.cfi_restore 7
	.cfi_def_cfa_offset 4
	ret
	.p2align 4,,7
	.p2align 3
.L1304:
	.cfi_restore_state
	movb	$0, (%edi)
	jmp	.L1284
	.p2align 4,,7
	.p2align 3
.L1303:
	xorl	%eax, %eax
	addl	$2, %edi
	movw	%ax, -2(%edi)
	andl	$1, %ebx
	je	.L1284
	jmp	.L1304
	.p2align 4,,7
	.p2align 3
.L1302:
	xorl	%ecx, %ecx
	addl	$2, %edi
	movw	%cx, -2(%edi)
	subl	$2, %ebx
	jmp	.L1282
	.p2align 4,,7
	.p2align 3
.L1301:
	movb	$0, (%eax)
	leal	1(%eax), %edi
	movw	$4095, %bx
	jmp	.L1281
	.cfi_endproc
.LFE407:
	.size	allocate_bi_frame, .-allocate_bi_frame
	.p2align 4,,15
	.globl	provide_cap
	.type	provide_cap, @function
provide_cap:
.LFB408:
	.cfi_startproc
	pushl	%edi
	.cfi_def_cfa_offset 8
	.cfi_offset 7, -8
	pushl	%esi
	.cfi_def_cfa_offset 12
	.cfi_offset 6, -12
	pushl	%ebx
	.cfi_def_cfa_offset 16
	.cfi_offset 3, -16
	movl	ndks_boot+20, %ebx
	cmpl	ndks_boot+24, %ebx
	movl	16(%esp), %eax
	movl	20(%esp), %esi
	jae	.L1323
	movl	%eax, %edi
	movl	%eax, %edx
	andl	$14, %edi
	andl	$15, %edx
	movzbl	%al, %ecx
	cmpl	$14, %edi
	cmove	%ecx, %edx
	cmpl	$62, %edx
	ja	.L1309
	jmp	*.L1311(,%edx,4)
	.section	.rodata
	.align 4
	.align 4
.L1311:
	.long	.L1324
	.long	.L1318
	.long	.L1317
	.long	.L1318
	.long	.L1317
	.long	.L1318
	.long	.L1317
	.long	.L1324
	.long	.L1324
	.long	.L1318
	.long	.L1319
	.long	.L1324
	.long	.L1320
	.long	.L1309
	.long	.L1324
	.long	.L1309
	.long	.L1309
	.long	.L1309
	.long	.L1309
	.long	.L1309
	.long	.L1309
	.long	.L1309
	.long	.L1309
	.long	.L1309
	.long	.L1309
	.long	.L1309
	.long	.L1309
	.long	.L1309
	.long	.L1309
	.long	.L1309
	.long	.L1324
	.long	.L1309
	.long	.L1309
	.long	.L1309
	.long	.L1309
	.long	.L1309
	.long	.L1309
	.long	.L1309
	.long	.L1309
	.long	.L1309
	.long	.L1309
	.long	.L1309
	.long	.L1309
	.long	.L1309
	.long	.L1309
	.long	.L1309
	.long	.L1321
	.long	.L1309
	.long	.L1309
	.long	.L1309
	.long	.L1309
	.long	.L1309
	.long	.L1309
	.long	.L1309
	.long	.L1309
	.long	.L1309
	.long	.L1309
	.long	.L1309
	.long	.L1309
	.long	.L1309
	.long	.L1309
	.long	.L1309
	.long	.L1324
	.section	.boot.text
	.p2align 4,,7
	.p2align 3
.L1318:
	andl	$16777200, %eax
	sall	$8, %eax
.L1310:
	sall	$4, %ebx
	movl	28(%esp), %edx
	addl	%eax, %ebx
	movl	24(%esp), %eax
	movl	$0, 8(%ebx)
	movl	$3, 12(%ebx)
	movl	%edx, 4(%ebx)
	movl	%eax, (%ebx)
	movl	$1, %eax
	popl	%ebx
	.cfi_remember_state
	.cfi_restore 3
	.cfi_def_cfa_offset 12
	addl	$1, ndks_boot+20
	popl	%esi
	.cfi_restore 6
	.cfi_def_cfa_offset 8
	popl	%edi
	.cfi_restore 7
	.cfi_def_cfa_offset 4
	ret
	.p2align 4,,7
	.p2align 3
.L1323:
	.cfi_restore_state
	popl	%ebx
	.cfi_remember_state
	.cfi_restore 3
	.cfi_def_cfa_offset 12
	xorl	%eax, %eax
	popl	%esi
	.cfi_restore 6
	.cfi_def_cfa_offset 8
	popl	%edi
	.cfi_restore 7
	.cfi_def_cfa_offset 4
	ret
	.p2align 4,,7
	.p2align 3
.L1317:
	.cfi_restore_state
	andl	$-16, %eax
	jmp	.L1310
	.p2align 4,,7
	.p2align 3
.L1324:
	xorl	%eax, %eax
	jmp	.L1310
	.p2align 4,,7
	.p2align 3
.L1319:
	andl	$2147483632, %eax
	addl	%eax, %eax
	jmp	.L1310
	.p2align 4,,7
	.p2align 3
.L1321:
	andl	$16128, %eax
	shrl	$8, %eax
	cmpl	$32, %eax
	je	.L1325
	leal	1(%eax), %ecx
	movl	$-1, %eax
	sall	%cl, %eax
	andl	%esi, %eax
	jmp	.L1310
	.p2align 4,,7
	.p2align 3
.L1320:
	andl	$-1024, %eax
	jmp	.L1310
	.p2align 4,,7
	.p2align 3
.L1309:
	call	halt
	.p2align 4,,7
	.p2align 3
.L1325:
	movl	$-16, %eax
	andl	%esi, %eax
	jmp	.L1310
	.cfi_endproc
.LFE408:
	.size	provide_cap, .-provide_cap
	.p2align 4,,15
	.globl	create_frames_of_region
	.type	create_frames_of_region, @function
create_frames_of_region:
.LFB409:
	.cfi_startproc
	pushl	%ebp
	.cfi_def_cfa_offset 8
	.cfi_offset 5, -8
	pushl	%edi
	.cfi_def_cfa_offset 12
	.cfi_offset 7, -12
	pushl	%esi
	.cfi_def_cfa_offset 16
	.cfi_offset 6, -16
	pushl	%ebx
	.cfi_def_cfa_offset 20
	.cfi_offset 3, -20
	subl	$44, %esp
	.cfi_def_cfa_offset 64
	movl	ndks_boot+20, %edx
	movl	68(%esp), %eax
	movl	84(%esp), %esi
	movl	%edx, 28(%esp)
	movl	%eax, 16(%esp)
	movl	72(%esp), %eax
	movl	%eax, 12(%esp)
	movl	88(%esp), %eax
	cmpl	%eax, %esi
	movl	%eax, 20(%esp)
	jae	.L1350
	movl	96(%esp), %eax
	movl	%edx, %edi
	movl	$536870912, 24(%esp)
	subl	%eax, 24(%esp)
	movl	%esi, 4(%esp)
.L1348:
	movl	92(%esp), %eax
	testl	%eax, %eax
	jne	.L1355
	movl	4(%esp), %ebx
	xorl	%ebp, %ebp
	andl	$-4096, %ebx
	shrl	$8, %ebx
	orl	$50331649, %ebx
.L1330:
	cmpl	%edi, ndks_boot+24
	movl	12(%esp), %esi
	jbe	.L1331
	movl	16(%esp), %ecx
	movl	%ecx, %eax
	movzbl	%cl, %edx
	andl	$14, %eax
	movl	%eax, 8(%esp)
	movl	%ecx, %eax
	andl	$15, %eax
	cmpl	$14, 8(%esp)
	cmove	%edx, %eax
	cmpl	$62, %eax
	ja	.L1334
	jmp	*.L1336(,%eax,4)
	.section	.rodata
	.align 4
	.align 4
.L1336:
	.long	.L1351
	.long	.L1343
	.long	.L1342
	.long	.L1343
	.long	.L1342
	.long	.L1343
	.long	.L1342
	.long	.L1351
	.long	.L1351
	.long	.L1343
	.long	.L1344
	.long	.L1351
	.long	.L1345
	.long	.L1334
	.long	.L1351
	.long	.L1334
	.long	.L1334
	.long	.L1334
	.long	.L1334
	.long	.L1334
	.long	.L1334
	.long	.L1334
	.long	.L1334
	.long	.L1334
	.long	.L1334
	.long	.L1334
	.long	.L1334
	.long	.L1334
	.long	.L1334
	.long	.L1334
	.long	.L1351
	.long	.L1334
	.long	.L1334
	.long	.L1334
	.long	.L1334
	.long	.L1334
	.long	.L1334
	.long	.L1334
	.long	.L1334
	.long	.L1334
	.long	.L1334
	.long	.L1334
	.long	.L1334
	.long	.L1334
	.long	.L1334
	.long	.L1334
	.long	.L1346
	.long	.L1334
	.long	.L1334
	.long	.L1334
	.long	.L1334
	.long	.L1334
	.long	.L1334
	.long	.L1334
	.long	.L1334
	.long	.L1334
	.long	.L1334
	.long	.L1334
	.long	.L1334
	.long	.L1334
	.long	.L1334
	.long	.L1334
	.long	.L1351
	.section	.boot.text
	.p2align 4,,7
	.p2align 3
.L1343:
	andl	$16777200, %ecx
	sall	$8, %ecx
.L1335:
	sall	$4, %edi
	addl	%ecx, %edi
	movl	$3, 12(%edi)
	movl	ndks_boot+20, %eax
	movl	%ebx, (%edi)
	movl	%ebp, 4(%edi)
	movl	$0, 8(%edi)
	addl	$4096, 4(%esp)
	leal	1(%eax), %edi
	movl	20(%esp), %eax
	cmpl	%eax, 4(%esp)
	movl	%edi, ndks_boot+20
	jb	.L1348
	movl	28(%esp), %esi
	movl	%edi, %edx
.L1328:
	movl	64(%esp), %eax
	movl	%esi, (%eax)
	movl	%edx, 4(%eax)
	movl	$1, 8(%eax)
	addl	$44, %esp
	.cfi_remember_state
	.cfi_def_cfa_offset 20
	popl	%ebx
	.cfi_restore 3
	.cfi_def_cfa_offset 16
	popl	%esi
	.cfi_restore 6
	.cfi_def_cfa_offset 12
	popl	%edi
	.cfi_restore 7
	.cfi_def_cfa_offset 8
	popl	%ebp
	.cfi_restore 5
	.cfi_def_cfa_offset 4
	ret	$4
	.p2align 4,,7
	.p2align 3
.L1342:
	.cfi_restore_state
	andl	$-16, %ecx
	jmp	.L1335
	.p2align 4,,7
	.p2align 3
.L1331:
	movl	64(%esp), %eax
	movl	$0, (%eax)
	movl	$0, 4(%eax)
	movl	$0, 8(%eax)
	addl	$44, %esp
	.cfi_remember_state
	.cfi_def_cfa_offset 20
	popl	%ebx
	.cfi_restore 3
	.cfi_def_cfa_offset 16
	popl	%esi
	.cfi_restore 6
	.cfi_def_cfa_offset 12
	popl	%edi
	.cfi_restore 7
	.cfi_def_cfa_offset 8
	popl	%ebp
	.cfi_restore 5
	.cfi_def_cfa_offset 4
	ret	$4
	.p2align 4,,7
	.p2align 3
.L1355:
	.cfi_restore_state
	movl	4(%esp), %esi
	movl	24(%esp), %ebp
	movl	80(%esp), %edx
	movl	76(%esp), %eax
	addl	%esi, %ebp
	andl	$-4096, %esi
	shrl	$12, %ebp
	call	cap_get_capPtr
	orl	$1048576, %ebp
	movl	%ebp, %edx
	sall	$12, %edx
	movl	%edx, %ecx
	andl	$4194303, %edx
	shrl	$22, %ecx
	shrl	$8, %esi
	movl	(%eax,%ecx,4), %eax
	movl	%esi, %ebx
	sall	$8, %esi
	orl	$50331649, %ebx
	addl	$536870912, %esi
	shrl	$12, %edx
	orl	$7, %esi
	andl	$-4096, %eax
	movl	%esi, -536870912(%eax,%edx,4)
	call	invalidatePageStructureCache
	movl	ndks_boot+20, %edi
	jmp	.L1330
	.p2align 4,,7
	.p2align 3
.L1351:
	xorl	%ecx, %ecx
	jmp	.L1335
	.p2align 4,,7
	.p2align 3
.L1345:
	andl	$-1024, %ecx
	jmp	.L1335
	.p2align 4,,7
	.p2align 3
.L1346:
	andl	$16128, %ecx
	shrl	$8, %ecx
	cmpl	$32, %ecx
	je	.L1352
	addl	$1, %ecx
	movl	$-1, %eax
	sall	%cl, %eax
.L1347:
	andl	%esi, %eax
	movl	%eax, %ecx
	jmp	.L1335
	.p2align 4,,7
	.p2align 3
.L1344:
	andl	$2147483632, %ecx
	addl	%ecx, %ecx
	jmp	.L1335
	.p2align 4,,7
	.p2align 3
.L1334:
	call	halt
	.p2align 4,,7
	.p2align 3
.L1352:
	movl	$-16, %eax
	jmp	.L1347
.L1350:
	movl	%edx, %esi
	jmp	.L1328
	.cfi_endproc
.LFE409:
	.size	create_frames_of_region, .-create_frames_of_region
	.p2align 4,,15
	.globl	create_it_asid_pool
	.type	create_it_asid_pool, @function
create_it_asid_pool:
.LFB410:
	.cfi_startproc
	pushl	%edi
	.cfi_def_cfa_offset 8
	.cfi_offset 7, -8
	pushl	%esi
	.cfi_def_cfa_offset 12
	.cfi_offset 6, -12
	pushl	%ebx
	.cfi_def_cfa_offset 16
	.cfi_offset 3, -16
	movl	16(%esp), %ebx
	call	alloc_region.constprop.155
	testl	%eax, %eax
	movl	%eax, %edx
	je	.L1376
	testb	$1, %al
	movl	%eax, %edi
	movl	$4096, %esi
	jne	.L1377
.L1359:
	testl	$2, %edi
	jne	.L1378
.L1360:
	movl	%esi, %ecx
	xorl	%eax, %eax
	shrl	$2, %ecx
	testl	$2, %esi
	rep stosl
	jne	.L1379
	andl	$1, %esi
	jne	.L1380
.L1362:
	andl	$-4096, %edx
	movl	20(%esp), %eax
	movl	%edx, %esi
	movl	24(%esp), %edx
	shrl	$8, %esi
	orl	$9, %esi
	call	cap_get_capPtr
	movl	24(%esp), %edx
	movl	%esi, 96(%eax)
	movl	$0, 100(%eax)
	movl	$0, 104(%eax)
	movl	$3, 108(%eax)
	movl	20(%esp), %eax
	call	cap_get_capPtr
	movl	%esi, (%ebx)
	movl	$0, 4(%ebx)
	movl	$7, 80(%eax)
	movl	$0, 84(%eax)
	movl	$0, 88(%eax)
	movl	$3, 92(%eax)
	movl	%ebx, %eax
	popl	%ebx
	.cfi_remember_state
	.cfi_restore 3
	.cfi_def_cfa_offset 12
	popl	%esi
	.cfi_restore 6
	.cfi_def_cfa_offset 8
	popl	%edi
	.cfi_restore 7
	.cfi_def_cfa_offset 4
	ret	$4
	.p2align 4,,7
	.p2align 3
.L1380:
	.cfi_restore_state
	movb	$0, (%edi)
	jmp	.L1362
	.p2align 4,,7
	.p2align 3
.L1379:
	xorl	%eax, %eax
	addl	$2, %edi
	movw	%ax, -2(%edi)
	andl	$1, %esi
	je	.L1362
	jmp	.L1380
	.p2align 4,,7
	.p2align 3
.L1376:
	movl	$0, (%ebx)
	movl	%ebx, %eax
	movl	$0, 4(%ebx)
	popl	%ebx
	.cfi_remember_state
	.cfi_restore 3
	.cfi_def_cfa_offset 12
	popl	%esi
	.cfi_restore 6
	.cfi_def_cfa_offset 8
	popl	%edi
	.cfi_restore 7
	.cfi_def_cfa_offset 4
	ret	$4
	.p2align 4,,7
	.p2align 3
.L1378:
	.cfi_restore_state
	xorl	%ecx, %ecx
	addl	$2, %edi
	movw	%cx, -2(%edi)
	subl	$2, %esi
	jmp	.L1360
	.p2align 4,,7
	.p2align 3
.L1377:
	movb	$0, (%eax)
	leal	1(%eax), %edi
	movw	$4095, %si
	jmp	.L1359
	.cfi_endproc
.LFE410:
	.size	create_it_asid_pool, .-create_it_asid_pool
	.p2align 4,,15
	.globl	create_untypeds
	.type	create_untypeds, @function
create_untypeds:
.LFB417:
	.cfi_startproc
	pushl	%ebp
	.cfi_def_cfa_offset 8
	.cfi_offset 5, -8
	pushl	%edi
	.cfi_def_cfa_offset 12
	.cfi_offset 7, -12
	pushl	%esi
	.cfi_def_cfa_offset 16
	.cfi_offset 6, -16
	pushl	%ebx
	.cfi_def_cfa_offset 20
	.cfi_offset 3, -20
	subl	$76, %esp
	.cfi_def_cfa_offset 96
	movl	96(%esp), %eax
	movl	108(%esp), %edi
	movl	104(%esp), %ebx
	movl	%eax, 32(%esp)
	movl	100(%esp), %eax
	cmpl	%edi, %ebx
	movl	%eax, 36(%esp)
	movl	ndks_boot+20, %eax
	movl	%eax, 28(%esp)
	movl	%eax, %edx
	je	.L1382
	movl	$31, %ebp
	jmp	.L1386
	.p2align 4,,7
	.p2align 3
.L1383:
	movl	$1, %eax
	movl	%esi, %ecx
	sall	%cl, %eax
	addl	%eax, %ebx
	cmpl	%edi, %ebx
	je	.L1382
.L1386:
	movl	%edi, %eax
	movl	%ebp, %esi
	subl	%ebx, %eax
	bsrl	%eax, %eax
	xorl	$31, %eax
	subl	%eax, %esi
	rep bsfl	%ebx, %eax
	cmpl	%eax, %esi
	cmova	%eax, %esi
	movl	%edx, %eax
	subl	28(%esp), %eax
	cmpl	$166, %eax
	ja	.L1383
	movl	ndks_boot+16, %edx
	leal	536870912(%ebx), %ecx
	movl	%ecx, 56(%edx,%eax,4)
	movl	%esi, %ecx
	movb	%cl, 724(%edx,%eax)
	movl	%ebx, %eax
	movl	%esi, %edx
	andl	$-16, %eax
	andl	$31, %edx
	orl	$2, %eax
	movl	%eax, 8(%esp)
	movl	32(%esp), %eax
	movl	%edx, 12(%esp)
	movl	%eax, (%esp)
	movl	36(%esp), %eax
	movl	%eax, 4(%esp)
	call	provide_cap
	testl	%eax, %eax
	je	.L1389
	movl	$1, %eax
	movl	%esi, %ecx
	movl	ndks_boot+20, %edx
	sall	%cl, %eax
	addl	%eax, %ebx
	cmpl	%edi, %ebx
	jne	.L1386
.L1382:
	movl	32(%esp), %eax
	movl	ndks_boot+16, %ebp
	movl	$ndks_boot, 52(%esp)
	movl	%eax, %edi
	andl	$14, %edi
	movl	%edi, 48(%esp)
	movl	%eax, %edi
	andl	$16128, %edi
	movl	%edi, 56(%esp)
	shrl	$8, 56(%esp)
	movl	%eax, 40(%esp)
	movl	56(%esp), %eax
	addl	$1, %eax
	movl	%eax, 60(%esp)
.L1409:
	movl	52(%esp), %edi
	movl	(%edi), %eax
	movl	4(%edi), %esi
	movl	$0, (%edi)
	movl	$0, 4(%edi)
	cmpl	%eax, %esi
	jne	.L1406
	jmp	.L1387
	.p2align 4,,7
	.p2align 3
.L1388:
	movl	$1, %edi
	movl	%ebx, %ecx
	sall	%cl, %edi
	addl	%edi, %eax
	cmpl	%esi, %eax
	je	.L1387
.L1406:
	movl	%esi, %ebx
	movl	$31, %ecx
	subl	%eax, %ebx
	bsrl	%ebx, %ebx
	xorl	$31, %ebx
	subl	%ebx, %ecx
	rep bsfl	%eax, %ebx
	cmpl	%ebx, %ecx
	cmovbe	%ecx, %ebx
	movl	%edx, %ecx
	subl	28(%esp), %ecx
	cmpl	$166, %ecx
	ja	.L1388
	leal	536870912(%eax), %edi
	movl	%edi, 56(%ebp,%ecx,4)
	movl	36(%esp), %edi
	cmpl	%edx, ndks_boot+24
	movb	%bl, 724(%ebp,%ecx)
	movl	%edi, 44(%esp)
	jbe	.L1389
	movl	40(%esp), %edi
	movl	%edi, %ecx
	andl	$15, %ecx
	movl	%ecx, 32(%esp)
	movl	%edi, %ecx
	cmpl	$14, 48(%esp)
	movzbl	%cl, %edi
	cmovne	32(%esp), %edi
	cmpl	$62, %edi
	movl	%edi, 32(%esp)
	ja	.L1392
	jmp	*.L1394(,%edi,4)
	.section	.rodata
	.align 4
	.align 4
.L1394:
	.long	.L1411
	.long	.L1401
	.long	.L1400
	.long	.L1401
	.long	.L1400
	.long	.L1401
	.long	.L1400
	.long	.L1411
	.long	.L1411
	.long	.L1401
	.long	.L1402
	.long	.L1411
	.long	.L1403
	.long	.L1392
	.long	.L1411
	.long	.L1392
	.long	.L1392
	.long	.L1392
	.long	.L1392
	.long	.L1392
	.long	.L1392
	.long	.L1392
	.long	.L1392
	.long	.L1392
	.long	.L1392
	.long	.L1392
	.long	.L1392
	.long	.L1392
	.long	.L1392
	.long	.L1392
	.long	.L1411
	.long	.L1392
	.long	.L1392
	.long	.L1392
	.long	.L1392
	.long	.L1392
	.long	.L1392
	.long	.L1392
	.long	.L1392
	.long	.L1392
	.long	.L1392
	.long	.L1392
	.long	.L1392
	.long	.L1392
	.long	.L1392
	.long	.L1392
	.long	.L1404
	.long	.L1392
	.long	.L1392
	.long	.L1392
	.long	.L1392
	.long	.L1392
	.long	.L1392
	.long	.L1392
	.long	.L1392
	.long	.L1392
	.long	.L1392
	.long	.L1392
	.long	.L1392
	.long	.L1392
	.long	.L1392
	.long	.L1392
	.long	.L1411
	.section	.boot.text
	.p2align 4,,7
	.p2align 3
.L1389:
	addl	$76, %esp
	.cfi_remember_state
	.cfi_def_cfa_offset 20
	xorl	%eax, %eax
	popl	%ebx
	.cfi_restore 3
	.cfi_def_cfa_offset 16
	popl	%esi
	.cfi_restore 6
	.cfi_def_cfa_offset 12
	popl	%edi
	.cfi_restore 7
	.cfi_def_cfa_offset 8
	popl	%ebp
	.cfi_restore 5
	.cfi_def_cfa_offset 4
	ret
	.p2align 4,,7
	.p2align 3
.L1401:
	.cfi_restore_state
	movl	40(%esp), %edi
	andl	$16777200, %edi
	sall	$8, %edi
.L1393:
	movl	%eax, %ecx
	sall	$4, %edx
	andl	$-16, %ecx
	addl	%edi, %edx
	orl	$2, %ecx
	movl	%ecx, (%edx)
	movl	%ebx, %ecx
	movl	$1, %edi
	andl	$31, %ecx
	movl	%ecx, 4(%edx)
	movl	%ebx, %ecx
	movl	$0, 8(%edx)
	sall	%cl, %edi
	movl	$3, 12(%edx)
	movl	ndks_boot+20, %edx
	addl	%edi, %eax
	addl	$1, %edx
	cmpl	%esi, %eax
	movl	%edx, ndks_boot+20
	jne	.L1406
.L1387:
	addl	$8, 52(%esp)
	cmpl	$ndks_boot+16, 52(%esp)
	jne	.L1409
	movl	28(%esp), %eax
	movl	%edx, 52(%ebp)
	movl	%eax, 48(%ebp)
	addl	$76, %esp
	.cfi_remember_state
	.cfi_def_cfa_offset 20
	movl	$1, %eax
	popl	%ebx
	.cfi_restore 3
	.cfi_def_cfa_offset 16
	popl	%esi
	.cfi_restore 6
	.cfi_def_cfa_offset 12
	popl	%edi
	.cfi_restore 7
	.cfi_def_cfa_offset 8
	popl	%ebp
	.cfi_restore 5
	.cfi_def_cfa_offset 4
	ret
	.p2align 4,,7
	.p2align 3
.L1400:
	.cfi_restore_state
	movl	40(%esp), %edi
	andl	$-16, %edi
	jmp	.L1393
	.p2align 4,,7
	.p2align 3
.L1411:
	xorl	%edi, %edi
	jmp	.L1393
	.p2align 4,,7
	.p2align 3
.L1404:
	cmpl	$32, 56(%esp)
	je	.L1412
	movzbl	60(%esp), %ecx
	movl	$-1, %edi
	sall	%cl, %edi
.L1405:
	andl	44(%esp), %edi
	jmp	.L1393
	.p2align 4,,7
	.p2align 3
.L1403:
	movl	40(%esp), %edi
	andl	$-1024, %edi
	jmp	.L1393
	.p2align 4,,7
	.p2align 3
.L1402:
	movl	40(%esp), %edi
	andl	$2147483632, %edi
	addl	%edi, %edi
	jmp	.L1393
	.p2align 4,,7
	.p2align 3
.L1392:
	call	halt
.L1412:
	movl	$-16, %edi
	jmp	.L1405
	.cfi_endproc
.LFE417:
	.size	create_untypeds, .-create_untypeds
	.p2align 4,,15
	.globl	bi_finalise
	.type	bi_finalise, @function
bi_finalise:
.LFB418:
	.cfi_startproc
	movl	ndks_boot+24, %edx
	movl	ndks_boot+16, %eax
	movl	ndks_boot+20, %ecx
	movl	%edx, 20(%eax)
	movl	%ecx, 16(%eax)
	ret
	.cfi_endproc
.LFE418:
	.size	bi_finalise, .-bi_finalise
	.text
	.p2align 4,,15
	.globl	resolveAddressBits
	.type	resolveAddressBits, @function
resolveAddressBits:
.LFB426:
	.cfi_startproc
	pushl	%ebp
	.cfi_def_cfa_offset 8
	.cfi_offset 5, -8
	pushl	%edi
	.cfi_def_cfa_offset 12
	.cfi_offset 7, -12
	pushl	%esi
	.cfi_def_cfa_offset 16
	.cfi_offset 6, -16
	pushl	%ebx
	.cfi_def_cfa_offset 20
	.cfi_offset 3, -20
	subl	$8, %esp
	.cfi_def_cfa_offset 28
	movl	32(%esp), %ebp
	movl	28(%esp), %eax
	movl	36(%esp), %ecx
	movl	%ebp, %esi
	movl	%ebp, %edx
	andl	$14, %esi
	movl	%ebp, %ebx
	andl	$15, %edx
	movzbl	%bl, %ebx
	cmpl	$14, %esi
	cmove	%ebx, %edx
	cmpl	$10, %edx
	jne	.L1433
	movl	44(%esp), %ebx
	movl	%ebp, 4(%esp)
	movl	%eax, 28(%esp)
.L1429:
	movl	%ecx, %edx
	movl	%ebx, %edi
	andl	$8126464, %edx
	movl	%ecx, %esi
	shrl	$18, %edx
	andl	$262143, %ecx
	subl	%edx, %edi
	movl	$1, %eax
	movl	%ecx, (%esp)
	movl	%edi, %ecx
	movl	40(%esp), %edi
	andl	$260046848, %esi
	shrl	$23, %esi
	leal	(%edx,%esi), %ebp
	shrl	%cl, %edi
	movl	%edx, %ecx
	sall	%cl, %eax
	movl	%eax, %ecx
	subl	$1, %ecx
	andl	%ecx, %edi
	cmpl	(%esp), %edi
	jne	.L1430
	cmpl	%edx, %ebx
	jb	.L1430
	cmpl	%ebp, %ebx
	jb	.L1434
	movl	40(%esp), %edx
	movl	%ebx, %edi
	movl	$1, %eax
	subl	%ebp, %edi
	movl	%edi, %ecx
	shrl	%cl, %edx
	movl	%esi, %ecx
	sall	%cl, %eax
	movl	4(%esp), %ecx
	movl	%eax, %esi
	subl	$1, %esi
	andl	%esi, %edx
	sall	$4, %edx
	andl	$2147483632, %ecx
	cmpl	%ebp, %ebx
	leal	(%edx,%ecx,2), %edx
	ja	.L1425
	movl	28(%esp), %eax
	movl	$0, (%eax)
	movl	%edx, 4(%eax)
	movl	$0, 8(%eax)
.L1417:
	addl	$8, %esp
	.cfi_remember_state
	.cfi_def_cfa_offset 20
	popl	%ebx
	.cfi_restore 3
	.cfi_def_cfa_offset 16
	popl	%esi
	.cfi_restore 6
	.cfi_def_cfa_offset 12
	popl	%edi
	.cfi_restore 7
	.cfi_def_cfa_offset 8
	popl	%ebp
	.cfi_restore 5
	.cfi_def_cfa_offset 4
	ret	$4
.L1433:
	.cfi_restore_state
	movl	$0, current_lookup_fault
.L1432:
	movl	44(%esp), %ebx
	movl	$0, current_lookup_fault+4
	movl	$2, (%eax)
	movl	$0, 4(%eax)
	movl	%ebx, 8(%eax)
	jmp	.L1417
.L1425:
	movl	(%edx), %eax
	movl	4(%edx), %ecx
	movl	%eax, %ebx
	andl	$14, %ebx
	cmpl	$14, %ebx
	movl	%eax, 4(%esp)
	je	.L1426
	movl	%eax, %ebx
	andl	$15, %ebx
.L1427:
	cmpl	$10, %ebx
	jne	.L1428
	movl	%edi, %ebx
	jmp	.L1429
.L1434:
	sall	$8, %ebp
	movl	28(%esp), %eax
	sall	$2, %ebx
	orl	%ebx, %ebp
	orl	$2, %ebp
	movl	%ebp, current_lookup_fault
	jmp	.L1432
.L1430:
	andl	$63, %ebx
	movl	28(%esp), %eax
	sall	$8, %ebx
	leal	3(,%edx,4), %edx
	orl	%ebx, %edx
	movl	(%esp), %ebx
	movl	%edx, current_lookup_fault
	movl	$2, (%eax)
	movl	$0, 4(%eax)
	movl	%ebx, current_lookup_fault+4
	movl	44(%esp), %ebx
	movl	%ebx, 8(%eax)
	jmp	.L1417
.L1426:
	movzbl	4(%esp), %ebx
	jmp	.L1427
.L1428:
	movl	28(%esp), %eax
	movl	$0, (%eax)
	movl	%edx, 4(%eax)
	movl	%edi, 8(%eax)
	jmp	.L1417
	.cfi_endproc
.LFE426:
	.size	resolveAddressBits, .-resolveAddressBits
	.p2align 4,,15
	.globl	lookupSlot
	.type	lookupSlot, @function
lookupSlot:
.LFB421:
	.cfi_startproc
	pushl	%ebp
	.cfi_def_cfa_offset 8
	.cfi_offset 5, -8
	movl	%esp, %ebp
	.cfi_def_cfa_register 5
	pushl	%edi
	pushl	%esi
	pushl	%ebx
	subl	$36, %esp
	.cfi_offset 7, -12
	.cfi_offset 6, -16
	.cfi_offset 3, -20
	movl	12(%ebp), %eax
	movl	8(%ebp), %ebx
	andl	$-1024, %eax
	movl	4(%eax), %edx
	movl	(%eax), %eax
	movl	$32, 16(%esp)
	movl	%edx, %edi
	movl	16(%ebp), %edx
	movl	%eax, %esi
	leal	-24(%ebp), %eax
	movl	%esi, 4(%esp)
	movl	%edi, 8(%esp)
	movl	%eax, (%esp)
	movl	%edx, 12(%esp)
	call	resolveAddressBits
	movl	-24(%ebp), %eax
	movl	%eax, (%ebx)
	movl	-20(%ebp), %eax
	subl	$4, %esp
	movl	%eax, 4(%ebx)
	leal	-12(%ebp), %esp
	movl	%ebx, %eax
	popl	%ebx
	.cfi_restore 3
	popl	%esi
	.cfi_restore 6
	popl	%edi
	.cfi_restore 7
	popl	%ebp
	.cfi_restore 5
	.cfi_def_cfa 4, 4
	ret	$4
	.cfi_endproc
.LFE421:
	.size	lookupSlot, .-lookupSlot
	.p2align 4,,15
	.globl	lookupSlotForCNodeOp
	.type	lookupSlotForCNodeOp, @function
lookupSlotForCNodeOp:
.LFB422:
	.cfi_startproc
	pushl	%ebp
	.cfi_def_cfa_offset 8
	.cfi_offset 5, -8
	movl	%esp, %ebp
	.cfi_def_cfa_register 5
	pushl	%edi
	pushl	%esi
	pushl	%ebx
	subl	$36, %esp
	.cfi_offset 7, -12
	.cfi_offset 6, -16
	.cfi_offset 3, -20
	movl	16(%ebp), %eax
	movl	8(%ebp), %ebx
	movl	20(%ebp), %edi
	movl	%eax, %esi
	movl	%eax, %edx
	andl	$14, %esi
	andl	$15, %edx
	movzbl	%al, %ecx
	cmpl	$14, %esi
	cmove	%ecx, %edx
	cmpl	$10, %edx
	jne	.L1446
	movl	28(%ebp), %ecx
	leal	-1(%ecx), %edx
	cmpl	$31, %edx
	ja	.L1447
	movl	%ecx, 16(%esp)
	movl	24(%ebp), %ecx
	leal	-24(%ebp), %edx
	movl	%eax, 4(%esp)
	movl	%edx, (%esp)
	movl	%edi, 8(%esp)
	movl	%ecx, 12(%esp)
	call	resolveAddressBits
	movl	-24(%ebp), %edx
	movl	-16(%ebp), %eax
	subl	$4, %esp
	testl	%edx, %edx
	jne	.L1448
	testl	%eax, %eax
	jne	.L1449
	movl	-20(%ebp), %eax
	movl	$0, (%ebx)
	movl	%eax, 4(%ebx)
.L1437:
	leal	-12(%ebp), %esp
	movl	%ebx, %eax
	popl	%ebx
	.cfi_remember_state
	.cfi_restore 3
	popl	%esi
	.cfi_restore 6
	popl	%edi
	.cfi_restore 7
	popl	%ebp
	.cfi_restore 5
	.cfi_def_cfa 4, 4
	ret	$4
.L1446:
	.cfi_restore_state
	movl	12(%ebp), %eax
	movl	$6, current_syscall_error+24
	movl	$0, current_lookup_fault
	movl	$0, current_lookup_fault+4
	movl	%eax, current_syscall_error+20
	movl	$3, (%ebx)
	movl	$0, 4(%ebx)
	jmp	.L1437
.L1449:
	movl	12(%ebp), %edi
	sall	$2, %eax
	movzbl	%al, %eax
	orl	$2, %eax
	movl	$6, current_syscall_error+24
	movl	%edi, current_syscall_error+20
	movl	%eax, current_lookup_fault
	movl	$0, current_lookup_fault+4
	movl	$3, (%ebx)
	movl	$0, 4(%ebx)
	jmp	.L1437
.L1448:
	movl	12(%ebp), %eax
	movl	$6, current_syscall_error+24
	movl	$3, (%ebx)
	movl	$0, 4(%ebx)
	movl	%eax, current_syscall_error+20
	jmp	.L1437
.L1447:
	movl	$4, current_syscall_error+24
	movl	$1, current_syscall_error+8
	movl	$32, current_syscall_error+12
	movl	$3, (%ebx)
	movl	$0, 4(%ebx)
	jmp	.L1437
	.cfi_endproc
.LFE422:
	.size	lookupSlotForCNodeOp, .-lookupSlotForCNodeOp
	.p2align 4,,15
	.globl	lookupSourceSlot
	.type	lookupSourceSlot, @function
lookupSourceSlot:
.LFB423:
	.cfi_startproc
	pushl	%ebp
	.cfi_def_cfa_offset 8
	.cfi_offset 5, -8
	movl	%esp, %ebp
	.cfi_def_cfa_register 5
	pushl	%ebx
	subl	$24, %esp
	.cfi_offset 3, -12
	movl	24(%ebp), %eax
	movl	8(%ebp), %ebx
	movl	16(%ebp), %edx
	movl	$1, 4(%esp)
	movl	%eax, 20(%esp)
	movl	20(%ebp), %eax
	movl	%ebx, (%esp)
	movl	%edx, 12(%esp)
	movl	%eax, 16(%esp)
	movl	12(%ebp), %eax
	movl	%eax, 8(%esp)
	call	lookupSlotForCNodeOp
	movl	%ebx, %eax
	movl	-4(%ebp), %ebx
	subl	$4, %esp
	leave
	.cfi_restore 5
	.cfi_restore 3
	.cfi_def_cfa 4, 4
	ret	$4
	.cfi_endproc
.LFE423:
	.size	lookupSourceSlot, .-lookupSourceSlot
	.p2align 4,,15
	.globl	lookupTargetSlot
	.type	lookupTargetSlot, @function
lookupTargetSlot:
.LFB424:
	.cfi_startproc
	pushl	%ebp
	.cfi_def_cfa_offset 8
	.cfi_offset 5, -8
	movl	%esp, %ebp
	.cfi_def_cfa_register 5
	pushl	%ebx
	subl	$24, %esp
	.cfi_offset 3, -12
	movl	24(%ebp), %eax
	movl	8(%ebp), %ebx
	movl	16(%ebp), %edx
	movl	$0, 4(%esp)
	movl	%eax, 20(%esp)
	movl	20(%ebp), %eax
	movl	%ebx, (%esp)
	movl	%edx, 12(%esp)
	movl	%eax, 16(%esp)
	movl	12(%ebp), %eax
	movl	%eax, 8(%esp)
	call	lookupSlotForCNodeOp
	movl	%ebx, %eax
	movl	-4(%ebp), %ebx
	subl	$4, %esp
	leave
	.cfi_restore 5
	.cfi_restore 3
	.cfi_def_cfa 4, 4
	ret	$4
	.cfi_endproc
.LFE424:
	.size	lookupTargetSlot, .-lookupTargetSlot
	.p2align 4,,15
	.globl	lookupPivotSlot
	.type	lookupPivotSlot, @function
lookupPivotSlot:
.LFB425:
	.cfi_startproc
	pushl	%ebp
	.cfi_def_cfa_offset 8
	.cfi_offset 5, -8
	movl	%esp, %ebp
	.cfi_def_cfa_register 5
	pushl	%ebx
	subl	$24, %esp
	.cfi_offset 3, -12
	movl	24(%ebp), %eax
	movl	8(%ebp), %ebx
	movl	16(%ebp), %edx
	movl	$1, 4(%esp)
	movl	%eax, 20(%esp)
	movl	20(%ebp), %eax
	movl	%ebx, (%esp)
	movl	%edx, 12(%esp)
	movl	%eax, 16(%esp)
	movl	12(%ebp), %eax
	movl	%eax, 8(%esp)
	call	lookupSlotForCNodeOp
	movl	%ebx, %eax
	movl	-4(%ebp), %ebx
	subl	$4, %esp
	leave
	.cfi_restore 5
	.cfi_restore 3
	.cfi_def_cfa 4, 4
	ret	$4
	.cfi_endproc
.LFE425:
	.size	lookupPivotSlot, .-lookupPivotSlot
	.p2align 4,,15
	.globl	lookupCap
	.type	lookupCap, @function
lookupCap:
.LFB419:
	.cfi_startproc
	pushl	%ebp
	.cfi_def_cfa_offset 8
	.cfi_offset 5, -8
	movl	%esp, %ebp
	.cfi_def_cfa_register 5
	pushl	%edi
	pushl	%esi
	pushl	%ebx
	subl	$36, %esp
	.cfi_offset 7, -12
	.cfi_offset 6, -16
	.cfi_offset 3, -20
	movl	12(%ebp), %eax
	movl	8(%ebp), %ebx
	andl	$-1024, %eax
	movl	4(%eax), %edx
	movl	(%eax), %eax
	movl	$32, 16(%esp)
	movl	%edx, %edi
	movl	16(%ebp), %edx
	movl	%eax, %esi
	leal	-24(%ebp), %eax
	movl	%eax, (%esp)
	movl	%edx, 12(%esp)
	movl	%esi, 4(%esp)
	movl	%edi, 8(%esp)
	call	resolveAddressBits
	movl	-24(%ebp), %edx
	movl	-20(%ebp), %eax
	subl	$4, %esp
	testl	%edx, %edx
	jne	.L1460
	movl	(%eax), %edx
	movl	4(%eax), %eax
	movl	$0, (%ebx)
	movl	%edx, 4(%ebx)
	movl	%eax, 8(%ebx)
.L1456:
	leal	-12(%ebp), %esp
	movl	%ebx, %eax
	popl	%ebx
	.cfi_remember_state
	.cfi_restore 3
	popl	%esi
	.cfi_restore 6
	popl	%edi
	.cfi_restore 7
	popl	%ebp
	.cfi_restore 5
	.cfi_def_cfa 4, 4
	ret	$4
.L1460:
	.cfi_restore_state
	movl	%edx, (%ebx)
	movl	$0, 4(%ebx)
	movl	$0, 8(%ebx)
	jmp	.L1456
	.cfi_endproc
.LFE419:
	.size	lookupCap, .-lookupCap
	.p2align 4,,15
	.globl	lookupCapAndSlot
	.type	lookupCapAndSlot, @function
lookupCapAndSlot:
.LFB420:
	.cfi_startproc
	pushl	%ebp
	.cfi_def_cfa_offset 8
	.cfi_offset 5, -8
	movl	%esp, %ebp
	.cfi_def_cfa_register 5
	pushl	%edi
	pushl	%esi
	pushl	%ebx
	subl	$36, %esp
	.cfi_offset 7, -12
	.cfi_offset 6, -16
	.cfi_offset 3, -20
	movl	12(%ebp), %eax
	movl	8(%ebp), %ebx
	andl	$-1024, %eax
	movl	4(%eax), %edx
	movl	(%eax), %eax
	movl	$32, 16(%esp)
	movl	%edx, %edi
	movl	16(%ebp), %edx
	movl	%eax, %esi
	leal	-24(%ebp), %eax
	movl	%eax, (%esp)
	movl	%edx, 12(%esp)
	movl	%esi, 4(%esp)
	movl	%edi, 8(%esp)
	call	resolveAddressBits
	movl	-24(%ebp), %edx
	movl	-20(%ebp), %eax
	subl	$4, %esp
	testl	%edx, %edx
	jne	.L1465
	movl	(%eax), %ecx
	movl	4(%eax), %edx
	movl	$0, (%ebx)
	movl	%eax, 12(%ebx)
	movl	%ecx, 4(%ebx)
	movl	%edx, 8(%ebx)
.L1461:
	leal	-12(%ebp), %esp
	movl	%ebx, %eax
	popl	%ebx
	.cfi_remember_state
	.cfi_restore 3
	popl	%esi
	.cfi_restore 6
	popl	%edi
	.cfi_restore 7
	popl	%ebp
	.cfi_restore 5
	.cfi_def_cfa 4, 4
	ret	$4
.L1465:
	.cfi_restore_state
	movl	%edx, (%ebx)
	movl	$0, 4(%ebx)
	movl	$0, 8(%ebx)
	movl	$0, 12(%ebx)
	jmp	.L1461
	.cfi_endproc
.LFE420:
	.size	lookupCapAndSlot, .-lookupCapAndSlot
	.p2align 4,,15
	.globl	doFaultTransfer
	.type	doFaultTransfer, @function
doFaultTransfer:
.LFB439:
	.cfi_startproc
	pushl	%ebp
	.cfi_def_cfa_offset 8
	.cfi_offset 5, -8
	pushl	%edi
	.cfi_def_cfa_offset 12
	.cfi_offset 7, -12
	pushl	%esi
	.cfi_def_cfa_offset 16
	.cfi_offset 6, -16
	pushl	%ebx
	.cfi_def_cfa_offset 20
	.cfi_offset 3, -20
	subl	$12, %esp
	.cfi_def_cfa_offset 32
	movl	36(%esp), %eax
	movl	40(%esp), %ebx
	movl	44(%esp), %ecx
	movl	604(%eax), %edx
	andl	$7, %edx
	cmpl	$2, %edx
	je	.L1468
	jbe	.L1491
	cmpl	$3, %edx
	je	.L1471
	cmpl	$4, %edx
	.p2align 4,,5
	jne	.L1467
	movl	44(%eax), %edx
	testl	%ecx, %ecx
	movl	%edx, 20(%ebx)
	movl	68(%eax), %edx
	movl	%edx, 24(%ebx)
	je	.L1474
	movl	64(%eax), %edx
	movl	%edx, 12(%ecx)
	movl	608(%eax), %edx
	movl	%edx, 16(%ecx)
	movl	604(%eax), %edx
	shrl	$3, %edx
	movl	%edx, 20(%ecx)
	movl	$5, %edx
	jmp	.L1480
	.p2align 4,,7
	.p2align 3
.L1471:
	movl	(%eax), %edx
	testl	%ecx, %ecx
	movl	%edx, 20(%ebx)
	movl	4(%eax), %edx
	movl	%edx, 24(%ebx)
	je	.L1474
	movl	8(%eax), %edx
	movl	%edx, 12(%ecx)
	movl	12(%eax), %edx
	movl	%edx, 16(%ecx)
	movl	16(%eax), %edx
	movl	%edx, 20(%ecx)
	movl	20(%eax), %edx
	movl	%edx, 24(%ecx)
	movl	24(%eax), %edx
	movl	%edx, 28(%ecx)
	movl	56(%eax), %edx
	movl	%edx, 32(%ecx)
	movl	68(%eax), %edx
	movl	%edx, 36(%ecx)
	movl	64(%eax), %edx
	movl	%edx, 40(%ecx)
	movl	608(%eax), %edx
	movl	%edx, 44(%ecx)
	movl	$11, %edx
	jmp	.L1480
	.p2align 4,,7
	.p2align 3
.L1491:
	cmpl	$1, %edx
	jne	.L1467
	movl	44(%eax), %edx
	testl	%ecx, %ecx
	movl	%edx, 20(%ebx)
	movl	608(%eax), %edx
	movl	%edx, 24(%ebx)
	je	.L1474
	movl	604(%eax), %edx
	shrl	$31, %edx
	movl	%edx, 12(%ecx)
	movl	612(%eax), %esi
	movl	616(%eax), %ebp
	movl	%esi, %edx
	andl	$3, %edx
	leal	1(%edx), %edi
	cmpl	$2, %edx
	movl	%edi, 16(%ecx)
	je	.L1477
	cmpl	$3, %edx
	je	.L1478
	cmpl	$1, %edx
	jne	.L1490
	andl	$252, %esi
	movb	$5, %dl
	shrl	$2, %esi
	movl	%esi, 20(%ecx)
	jmp	.L1480
	.p2align 4,,7
	.p2align 3
.L1467:
	call	halt
	.p2align 4,,7
	.p2align 3
.L1468:
	movl	44(%eax), %edx
	testl	%ecx, %ecx
	movl	%edx, 20(%ebx)
	movl	608(%eax), %edx
	movl	%edx, 24(%ebx)
	je	.L1474
	movl	604(%eax), %edx
	andl	$524288, %edx
	shrl	$19, %edx
	movl	%edx, 12(%ecx)
	movl	604(%eax), %edx
	shrl	$27, %edx
	movl	%edx, 16(%ecx)
.L1490:
	movl	$4, %edx
.L1480:
	movl	604(%eax), %eax
	andl	$7, %eax
	sall	$12, %eax
	orl	%edx, %eax
	movl	%eax, 16(%ebx)
	movl	32(%esp), %eax
	movl	%eax, 4(%ebx)
	addl	$12, %esp
	.cfi_remember_state
	.cfi_def_cfa_offset 20
	popl	%ebx
	.cfi_restore 3
	.cfi_def_cfa_offset 16
	popl	%esi
	.cfi_restore 6
	.cfi_def_cfa_offset 12
	popl	%edi
	.cfi_restore 7
	.cfi_def_cfa_offset 8
	popl	%ebp
	.cfi_restore 5
	.cfi_def_cfa_offset 4
	ret
	.p2align 4,,7
	.p2align 3
.L1474:
	.cfi_restore_state
	movl	$2, %edx
	jmp	.L1480
	.p2align 4,,7
	.p2align 3
.L1478:
	movl	%esi, %edx
	andl	$252, %esi
	andl	$16128, %edx
	shrl	$8, %edx
	shrl	$2, %esi
	movl	%edx, 20(%ecx)
	movl	$7, %edx
	movl	%ebp, 24(%ecx)
	movl	%esi, 28(%ecx)
	jmp	.L1480
	.p2align 4,,7
	.p2align 3
.L1477:
	movl	%esi, %edx
	andl	$16128, %esi
	andl	$252, %edx
	shrl	$2, %edx
	shrl	$8, %esi
	movl	%edx, 20(%ecx)
	movl	$6, %edx
	movl	%esi, 24(%ecx)
	jmp	.L1480
	.cfi_endproc
.LFE439:
	.size	doFaultTransfer, .-doFaultTransfer
	.p2align 4,,15
	.globl	doAsyncTransfer
	.type	doAsyncTransfer, @function
doAsyncTransfer:
.LFB441:
	.cfi_startproc
	movl	12(%esp), %eax
	movl	8(%esp), %edx
	movl	$1, 16(%eax)
	movl	%edx, 20(%eax)
	movl	4(%esp), %edx
	movl	%edx, 4(%eax)
	ret
	.cfi_endproc
.LFE441:
	.size	doAsyncTransfer, .-doAsyncTransfer
	.p2align 4,,15
	.globl	switchToThread
	.type	switchToThread, @function
switchToThread:
.LFB445:
	.cfi_startproc
	pushl	%ebp
	.cfi_def_cfa_offset 8
	.cfi_offset 5, -8
	pushl	%edi
	.cfi_def_cfa_offset 12
	.cfi_offset 7, -12
	pushl	%esi
	.cfi_def_cfa_offset 16
	.cfi_offset 6, -16
	pushl	%ebx
	.cfi_def_cfa_offset 20
	.cfi_offset 3, -20
	subl	$8, %esp
	.cfi_def_cfa_offset 28
	movl	28(%esp), %ebx
	movl	%ebx, (%esp)
	call	Arch_switchToThread
	movl	600(%ebx), %edx
	testb	$1, %dl
	je	.L1494
	movl	620(%ebx), %eax
	sall	$8, %eax
	addl	624(%ebx), %eax
	leal	ksReadyQueues(,%eax,8), %esi
	movl	ksReadyQueues(,%eax,8), %ebp
	movl	4(%esi), %ecx
	movl	%ecx, 4(%esp)
	movl	644(%ebx), %ecx
	testl	%ecx, %ecx
	je	.L1495
	movl	640(%ebx), %edi
	movl	%edi, 640(%ecx)
	movl	640(%ebx), %edi
.L1496:
	testl	%edi, %edi
	je	.L1498
	movl	%ecx, 644(%edi)
.L1497:
	movl	%ebp, ksReadyQueues(,%eax,8)
	movl	4(%esp), %eax
	andl	$-2, %edx
	movl	%eax, 4(%esi)
	movl	%edx, 600(%ebx)
.L1494:
	movl	%ebx, ksCurThread
	addl	$8, %esp
	.cfi_remember_state
	.cfi_def_cfa_offset 20
	popl	%ebx
	.cfi_restore 3
	.cfi_def_cfa_offset 16
	popl	%esi
	.cfi_restore 6
	.cfi_def_cfa_offset 12
	popl	%edi
	.cfi_restore 7
	.cfi_def_cfa_offset 8
	popl	%ebp
	.cfi_restore 5
	.cfi_def_cfa_offset 4
	ret
	.p2align 4,,7
	.p2align 3
.L1495:
	.cfi_restore_state
	movl	640(%ebx), %ebp
	movl	%ebp, %edi
	jmp	.L1496
	.p2align 4,,7
	.p2align 3
.L1498:
	movl	%ecx, 4(%esp)
	jmp	.L1497
	.cfi_endproc
.LFE445:
	.size	switchToThread, .-switchToThread
	.p2align 4,,15
	.globl	switchToIdleThread
	.type	switchToIdleThread, @function
switchToIdleThread:
.LFB446:
	.cfi_startproc
	movl	ksIdleThread, %eax
	movl	%eax, ksCurThread
	ret
	.cfi_endproc
.LFE446:
	.size	switchToIdleThread, .-switchToIdleThread
	.p2align 4,,15
	.globl	rescheduleRequired
	.type	rescheduleRequired, @function
rescheduleRequired:
.LFB455:
	.cfi_startproc
	movl	ksSchedulerAction, %eax
	leal	-1(%eax), %edx
	cmpl	$-3, %edx
	jbe	.L1510
.L1509:
	movl	$-1, ksSchedulerAction
	ret
	.p2align 4,,7
	.p2align 3
.L1510:
	movl	600(%eax), %ecx
	testb	$1, %cl
	jne	.L1509
	pushl	%edi
	.cfi_def_cfa_offset 8
	.cfi_offset 7, -8
	pushl	%esi
	.cfi_def_cfa_offset 12
	.cfi_offset 6, -12
	pushl	%ebx
	.cfi_def_cfa_offset 16
	.cfi_offset 3, -16
	movl	620(%eax), %edx
	sall	$8, %edx
	addl	624(%eax), %edx
	leal	ksReadyQueues(,%edx,8), %esi
	movl	ksReadyQueues(,%edx,8), %edi
	movl	4(%esi), %ebx
	testl	%ebx, %ebx
	je	.L1507
	movl	%eax, 644(%edi)
.L1506:
	orl	$1, %ecx
	movl	$0, 644(%eax)
	movl	%edi, 640(%eax)
	movl	$-1, ksSchedulerAction
	movl	%eax, ksReadyQueues(,%edx,8)
	movl	%ebx, 4(%esi)
	movl	%ecx, 600(%eax)
	popl	%ebx
	.cfi_remember_state
	.cfi_restore 3
	.cfi_def_cfa_offset 12
	popl	%esi
	.cfi_restore 6
	.cfi_def_cfa_offset 8
	popl	%edi
	.cfi_restore 7
	.cfi_def_cfa_offset 4
	ret
	.p2align 4,,7
	.p2align 3
.L1507:
	.cfi_restore_state
	movl	%eax, %ebx
	jmp	.L1506
	.cfi_endproc
.LFE455:
	.size	rescheduleRequired, .-rescheduleRequired
	.p2align 4,,15
	.globl	scheduleTCB
	.type	scheduleTCB, @function
scheduleTCB:
.LFB453:
	.cfi_startproc
	movl	4(%esp), %eax
	cmpl	ksCurThread, %eax
	je	.L1514
.L1511:
	rep ret
	.p2align 4,,7
	.p2align 3
.L1514:
	movl	ksSchedulerAction, %edx
	testl	%edx, %edx
	jne	.L1511
	movl	592(%eax), %eax
	andl	$15, %eax
	subl	$1, %eax
	cmpl	$1, %eax
	jbe	.L1511
	jmp	rescheduleRequired
	.cfi_endproc
.LFE453:
	.size	scheduleTCB, .-scheduleTCB
	.p2align 4,,15
	.globl	decodeIA32PortInvocation
	.type	decodeIA32PortInvocation, @function
decodeIA32PortInvocation:
.LFB379:
	.cfi_startproc
	pushl	%esi
	.cfi_def_cfa_offset 8
	.cfi_offset 6, -8
	pushl	%ebx
	.cfi_def_cfa_offset 12
	.cfi_offset 3, -12
	subl	$20, %esp
	.cfi_def_cfa_offset 32
	movl	36(%esp), %eax
	movl	52(%esp), %edx
	testl	%eax, %eax
	jne	.L1516
.L1533:
	movl	$7, current_syscall_error+24
	addl	$20, %esp
	.cfi_remember_state
	.cfi_def_cfa_offset 12
	movl	$3, %eax
	popl	%ebx
	.cfi_restore 3
	.cfi_def_cfa_offset 8
	popl	%esi
	.cfi_restore 6
	.cfi_def_cfa_offset 4
	ret
	.p2align 4,,7
	.p2align 3
.L1516:
	.cfi_restore_state
	movl	32(%esp), %ecx
	movl	ksCurThread, %esi
	subl	$36, %ecx
	cmpl	$5, %ecx
	movl	20(%esi), %ebx
	ja	.L1518
	jmp	*.L1520(,%ecx,4)
	.section	.rodata
	.align 4
	.align 4
.L1520:
	.long	.L1519
	.long	.L1521
	.long	.L1522
	.long	.L1523
	.long	.L1524
	.long	.L1525
	.text
	.p2align 4,,7
	.p2align 3
.L1518:
	movl	$3, current_syscall_error+24
	addl	$20, %esp
	.cfi_remember_state
	.cfi_def_cfa_offset 12
	movl	$3, %eax
	popl	%ebx
	.cfi_restore 3
	.cfi_def_cfa_offset 8
	popl	%esi
	.cfi_restore 6
	.cfi_def_cfa_offset 4
	ret
	.p2align 4,,7
	.p2align 3
.L1524:
	.cfi_restore_state
	movzwl	%bx, %eax
	movzwl	%dx, %esi
	leal	1(%eax), %ecx
	cmpl	%ecx, %esi
	jb	.L1518
	shrl	$16, %edx
	cmpl	%edx, %eax
	jb	.L1518
	shrl	$16, %ebx
	movl	%ebx, 4(%esp)
	movl	%eax, (%esp)
	call	out16
.L1536:
	movl	ksCurThread, %edx
	xorl	%eax, %eax
.L1537:
	movl	%eax, 16(%edx)
	movl	592(%edx), %eax
	andl	$-16, %eax
	orl	$2, %eax
	movl	%eax, 592(%edx)
	movl	%edx, (%esp)
	call	scheduleTCB
	addl	$20, %esp
	.cfi_remember_state
	.cfi_def_cfa_offset 12
	xorl	%eax, %eax
	popl	%ebx
	.cfi_restore 3
	.cfi_def_cfa_offset 8
	popl	%esi
	.cfi_restore 6
	.cfi_def_cfa_offset 4
	ret
	.p2align 4,,7
	.p2align 3
.L1525:
	.cfi_restore_state
	cmpl	$1, %eax
	jbe	.L1533
	movzwl	%bx, %ebx
	movzwl	%dx, %ecx
	leal	3(%ebx), %eax
	cmpl	%eax, %ecx
	jb	.L1518
	shrl	$16, %edx
	cmpl	%edx, %ebx
	jb	.L1518
	movl	24(%esi), %eax
	movl	%ebx, (%esp)
	movl	%eax, 4(%esp)
	call	out32
	jmp	.L1536
	.p2align 4,,7
	.p2align 3
.L1519:
	cmpw	%bx, %dx
	movzwl	%bx, %eax
	jb	.L1518
	shrl	$16, %edx
	cmpl	%edx, %eax
	jb	.L1518
	movl	%eax, (%esp)
	call	in8
	movzbl	%al, %eax
.L1535:
	movl	ksCurThread, %edx
	movl	%eax, 20(%edx)
	movl	$1, %eax
	movl	$0, 4(%edx)
	jmp	.L1537
	.p2align 4,,7
	.p2align 3
.L1521:
	movzwl	%bx, %ebx
	movzwl	%dx, %ecx
	leal	1(%ebx), %eax
	cmpl	%eax, %ecx
	jb	.L1518
	shrl	$16, %edx
	cmpl	%edx, %ebx
	jb	.L1518
	movl	%ebx, (%esp)
	call	in16
	movzwl	%ax, %eax
	jmp	.L1535
	.p2align 4,,7
	.p2align 3
.L1522:
	movzwl	%bx, %ebx
	movzwl	%dx, %ecx
	leal	3(%ebx), %eax
	cmpl	%eax, %ecx
	jb	.L1518
	shrl	$16, %edx
	cmpl	%edx, %ebx
	jb	.L1518
	movl	%ebx, (%esp)
	call	in32
	jmp	.L1535
	.p2align 4,,7
	.p2align 3
.L1523:
	cmpw	%bx, %dx
	movzwl	%bx, %eax
	jb	.L1518
	shrl	$16, %edx
	cmpl	%edx, %eax
	jb	.L1518
	shrl	$16, %ebx
	movzbl	%bl, %ebx
	movl	%ebx, 4(%esp)
	movl	%eax, (%esp)
	call	out8
	jmp	.L1536
	.cfi_endproc
.LFE379:
	.size	decodeIA32PortInvocation, .-decodeIA32PortInvocation
	.p2align 4,,15
	.globl	activateThread
	.type	activateThread, @function
activateThread:
.LFB433:
	.cfi_startproc
	subl	$28, %esp
	.cfi_def_cfa_offset 32
	movl	ksCurThread, %eax
	movl	592(%eax), %ecx
	movl	%ecx, %edx
	andl	$15, %edx
	cmpl	$2, %edx
	je	.L1547
	cmpl	$7, %edx
	je	.L1545
	cmpl	$1, %edx
	je	.L1545
	.p2align 4,,5
	call	halt
	.p2align 4,,7
	.p2align 3
.L1547:
	movl	44(%eax), %edx
	andl	$-16, %ecx
	orl	$1, %ecx
	movl	%ecx, 592(%eax)
	movl	%edx, 56(%eax)
	movl	%eax, (%esp)
	call	scheduleTCB
.L1545:
	addl	$28, %esp
	.cfi_def_cfa_offset 4
	ret
	.cfi_endproc
.LFE433:
	.size	activateThread, .-activateThread
	.section	.boot.text
	.p2align 4,,15
	.globl	create_idle_thread
	.type	create_idle_thread, @function
create_idle_thread:
.LFB411:
	.cfi_startproc
	pushl	%edi
	.cfi_def_cfa_offset 8
	.cfi_offset 7, -8
	pushl	%ebx
	.cfi_def_cfa_offset 12
	.cfi_offset 3, -12
	subl	$4, %esp
	.cfi_def_cfa_offset 16
	movl	$10, (%esp)
	call	alloc_region
	movl	%eax, %edx
	xorl	%eax, %eax
	testl	%edx, %edx
	je	.L1558
	testb	$1, %dl
	movl	%edx, %edi
	movl	$1024, %ebx
	jne	.L1578
.L1559:
	testl	$2, %edi
	jne	.L1579
.L1560:
	movl	%ebx, %ecx
	xorl	%eax, %eax
	shrl	$2, %ecx
	testb	$2, %bl
	rep stosl
	jne	.L1580
	andl	$1, %ebx
	jne	.L1581
.L1562:
	leal	256(%edx), %eax
	movl	$514, 320(%edx)
	movl	$idle_thread, 312(%edx)
	movl	$8, 316(%edx)
	movl	$16, 284(%edx)
	movl	$16, 288(%edx)
	movl	$16, 292(%edx)
	movl	$16, 296(%edx)
	movl	$16, 328(%edx)
	movl	848(%edx), %edx
	movl	%eax, ksIdleThread
	andl	$-16, %edx
	orl	$7, %edx
	movl	%edx, 592(%eax)
	movl	%eax, (%esp)
	call	scheduleTCB
	movl	$1, %eax
.L1558:
	addl	$4, %esp
	.cfi_remember_state
	.cfi_def_cfa_offset 12
	popl	%ebx
	.cfi_restore 3
	.cfi_def_cfa_offset 8
	popl	%edi
	.cfi_restore 7
	.cfi_def_cfa_offset 4
	ret
	.p2align 4,,7
	.p2align 3
.L1581:
	.cfi_restore_state
	movb	$0, (%edi)
	jmp	.L1562
	.p2align 4,,7
	.p2align 3
.L1580:
	xorl	%eax, %eax
	addl	$2, %edi
	movw	%ax, -2(%edi)
	andl	$1, %ebx
	je	.L1562
	jmp	.L1581
	.p2align 4,,7
	.p2align 3
.L1579:
	xorl	%ecx, %ecx
	addl	$2, %edi
	movw	%cx, -2(%edi)
	subl	$2, %ebx
	jmp	.L1560
	.p2align 4,,7
	.p2align 3
.L1578:
	movb	$0, (%edx)
	leal	1(%edx), %edi
	movw	$1023, %bx
	jmp	.L1559
	.cfi_endproc
.LFE411:
	.size	create_idle_thread, .-create_idle_thread
	.text
	.p2align 4,,15
	.globl	setDomain
	.type	setDomain, @function
setDomain:
.LFB447:
	.cfi_startproc
	pushl	%ebp
	.cfi_def_cfa_offset 8
	.cfi_offset 5, -8
	pushl	%edi
	.cfi_def_cfa_offset 12
	.cfi_offset 7, -12
	pushl	%esi
	.cfi_def_cfa_offset 16
	.cfi_offset 6, -16
	pushl	%ebx
	.cfi_def_cfa_offset 20
	.cfi_offset 3, -20
	subl	$8, %esp
	.cfi_def_cfa_offset 28
	movl	28(%esp), %eax
	movl	32(%esp), %esi
	movl	600(%eax), %ecx
	testb	$1, %cl
	movl	%ecx, %ebx
	je	.L1583
	movl	620(%eax), %edx
	movl	640(%eax), %ebp
	sall	$8, %edx
	addl	624(%eax), %edx
	movl	ksReadyQueues(,%edx,8), %ebx
	leal	ksReadyQueues(,%edx,8), %edi
	movl	%ebx, (%esp)
	movl	4(%edi), %ebx
	movl	%ebx, 4(%esp)
	movl	644(%eax), %ebx
	testl	%ebx, %ebx
	je	.L1584
	movl	%ebp, 640(%ebx)
	movl	640(%eax), %ebp
.L1585:
	testl	%ebp, %ebp
	je	.L1593
	movl	%ebx, 644(%ebp)
.L1586:
	movl	(%esp), %ebx
	andl	$-2, %ecx
	movl	%ebx, ksReadyQueues(,%edx,8)
	movl	4(%esp), %edx
	movl	%ecx, %ebx
	movl	%edx, 4(%edi)
	movl	%ecx, 600(%eax)
.L1583:
	movl	592(%eax), %edx
	movl	%esi, 620(%eax)
	andl	$15, %edx
	subl	$1, %edx
	cmpl	$1, %edx
	ja	.L1587
	testb	$1, %bl
	jne	.L1587
	sall	$8, %esi
	addl	624(%eax), %esi
	leal	ksReadyQueues(,%esi,8), %ecx
	movl	ksReadyQueues(,%esi,8), %edi
	movl	4(%ecx), %edx
	testl	%edx, %edx
	je	.L1594
	movl	%eax, 644(%edi)
.L1589:
	orl	$1, %ebx
	movl	$0, 644(%eax)
	movl	%edi, 640(%eax)
	movl	%eax, ksReadyQueues(,%esi,8)
	movl	%edx, 4(%ecx)
	movl	%ebx, 600(%eax)
.L1587:
	cmpl	ksCurThread, %eax
	je	.L1598
	addl	$8, %esp
	.cfi_remember_state
	.cfi_def_cfa_offset 20
	popl	%ebx
	.cfi_restore 3
	.cfi_def_cfa_offset 16
	popl	%esi
	.cfi_restore 6
	.cfi_def_cfa_offset 12
	popl	%edi
	.cfi_restore 7
	.cfi_def_cfa_offset 8
	popl	%ebp
	.cfi_restore 5
	.cfi_def_cfa_offset 4
	ret
	.p2align 4,,7
	.p2align 3
.L1598:
	.cfi_restore_state
	addl	$8, %esp
	.cfi_remember_state
	.cfi_def_cfa_offset 20
	popl	%ebx
	.cfi_restore 3
	.cfi_def_cfa_offset 16
	popl	%esi
	.cfi_restore 6
	.cfi_def_cfa_offset 12
	popl	%edi
	.cfi_restore 7
	.cfi_def_cfa_offset 8
	popl	%ebp
	.cfi_restore 5
	.cfi_def_cfa_offset 4
	jmp	rescheduleRequired
	.p2align 4,,7
	.p2align 3
.L1584:
	.cfi_restore_state
	movl	%ebp, (%esp)
	jmp	.L1585
	.p2align 4,,7
	.p2align 3
.L1593:
	movl	%ebx, 4(%esp)
	jmp	.L1586
	.p2align 4,,7
	.p2align 3
.L1594:
	movl	%eax, %edx
	jmp	.L1589
	.cfi_endproc
.LFE447:
	.size	setDomain, .-setDomain
	.p2align 4,,15
	.globl	setPriority
	.type	setPriority, @function
setPriority:
.LFB448:
	.cfi_startproc
	pushl	%ebp
	.cfi_def_cfa_offset 8
	.cfi_offset 5, -8
	pushl	%edi
	.cfi_def_cfa_offset 12
	.cfi_offset 7, -12
	pushl	%esi
	.cfi_def_cfa_offset 16
	.cfi_offset 6, -16
	pushl	%ebx
	.cfi_def_cfa_offset 20
	.cfi_offset 3, -20
	subl	$8, %esp
	.cfi_def_cfa_offset 28
	movl	28(%esp), %eax
	movl	32(%esp), %esi
	movl	600(%eax), %ecx
	testb	$1, %cl
	movl	%ecx, %ebx
	je	.L1600
	movl	620(%eax), %edx
	movl	640(%eax), %ebp
	sall	$8, %edx
	addl	624(%eax), %edx
	movl	ksReadyQueues(,%edx,8), %ebx
	leal	ksReadyQueues(,%edx,8), %edi
	movl	%ebx, (%esp)
	movl	4(%edi), %ebx
	movl	%ebx, 4(%esp)
	movl	644(%eax), %ebx
	testl	%ebx, %ebx
	je	.L1601
	movl	%ebp, 640(%ebx)
	movl	640(%eax), %ebp
.L1602:
	testl	%ebp, %ebp
	je	.L1610
	movl	%ebx, 644(%ebp)
.L1603:
	movl	(%esp), %ebx
	andl	$-2, %ecx
	movl	%ebx, ksReadyQueues(,%edx,8)
	movl	4(%esp), %edx
	movl	%ecx, %ebx
	movl	%edx, 4(%edi)
	movl	%ecx, 600(%eax)
.L1600:
	movl	592(%eax), %edx
	movl	%esi, 624(%eax)
	andl	$15, %edx
	subl	$1, %edx
	cmpl	$1, %edx
	ja	.L1604
	testb	$1, %bl
	jne	.L1604
	movl	620(%eax), %edx
	sall	$8, %edx
	addl	%edx, %esi
	leal	ksReadyQueues(,%esi,8), %ecx
	movl	ksReadyQueues(,%esi,8), %edi
	movl	4(%ecx), %edx
	testl	%edx, %edx
	je	.L1611
	movl	%eax, 644(%edi)
.L1606:
	orl	$1, %ebx
	movl	$0, 644(%eax)
	movl	%edi, 640(%eax)
	movl	%eax, ksReadyQueues(,%esi,8)
	movl	%edx, 4(%ecx)
	movl	%ebx, 600(%eax)
.L1604:
	cmpl	ksCurThread, %eax
	je	.L1615
	addl	$8, %esp
	.cfi_remember_state
	.cfi_def_cfa_offset 20
	popl	%ebx
	.cfi_restore 3
	.cfi_def_cfa_offset 16
	popl	%esi
	.cfi_restore 6
	.cfi_def_cfa_offset 12
	popl	%edi
	.cfi_restore 7
	.cfi_def_cfa_offset 8
	popl	%ebp
	.cfi_restore 5
	.cfi_def_cfa_offset 4
	ret
	.p2align 4,,7
	.p2align 3
.L1615:
	.cfi_restore_state
	addl	$8, %esp
	.cfi_remember_state
	.cfi_def_cfa_offset 20
	popl	%ebx
	.cfi_restore 3
	.cfi_def_cfa_offset 16
	popl	%esi
	.cfi_restore 6
	.cfi_def_cfa_offset 12
	popl	%edi
	.cfi_restore 7
	.cfi_def_cfa_offset 8
	popl	%ebp
	.cfi_restore 5
	.cfi_def_cfa_offset 4
	jmp	rescheduleRequired
	.p2align 4,,7
	.p2align 3
.L1601:
	.cfi_restore_state
	movl	%ebp, (%esp)
	jmp	.L1602
	.p2align 4,,7
	.p2align 3
.L1610:
	movl	%ebx, 4(%esp)
	jmp	.L1603
	.p2align 4,,7
	.p2align 3
.L1611:
	movl	%eax, %edx
	jmp	.L1606
	.cfi_endproc
.LFE448:
	.size	setPriority, .-setPriority
	.p2align 4,,15
	.globl	handleDoubleFault
	.type	handleDoubleFault, @function
handleDoubleFault:
.LFB429:
	.cfi_startproc
	movl	4(%esp), %eax
	andl	$-16, 592(%eax)
	cmpl	ksCurThread, %eax
	je	.L1618
.L1616:
	rep ret
	.p2align 4,,7
	.p2align 3
.L1618:
	movl	ksSchedulerAction, %eax
	testl	%eax, %eax
	jne	.L1616
	jmp	rescheduleRequired
	.cfi_endproc
.LFE429:
	.size	handleDoubleFault, .-handleDoubleFault
	.p2align 4,,15
	.globl	setThreadState
	.type	setThreadState, @function
setThreadState:
.LFB452:
	.cfi_startproc
	movl	4(%esp), %edx
	movl	8(%esp), %ecx
	movl	592(%edx), %eax
	andl	$15, %ecx
	andl	$-16, %eax
	orl	%ecx, %eax
	cmpl	ksCurThread, %edx
	movl	%eax, 592(%edx)
	je	.L1622
.L1619:
	rep ret
	.p2align 4,,7
	.p2align 3
.L1622:
	movl	ksSchedulerAction, %edx
	testl	%edx, %edx
	jne	.L1619
	andl	$15, %eax
	subl	$1, %eax
	cmpl	$1, %eax
	jbe	.L1619
	jmp	rescheduleRequired
	.cfi_endproc
.LFE452:
	.size	setThreadState, .-setThreadState
	.section	.boot.text
	.p2align 4,,15
	.globl	configureIdleThread
	.type	configureIdleThread, @function
configureIdleThread:
.LFB432:
	.cfi_startproc
	movl	4(%esp), %eax
	movl	592(%eax), %edx
	movl	$514, 64(%eax)
	movl	$idle_thread, 56(%eax)
	movl	$8, 60(%eax)
	andl	$-16, %edx
	orl	$7, %edx
	cmpl	ksCurThread, %eax
	movl	$16, 28(%eax)
	movl	$16, 32(%eax)
	movl	$16, 36(%eax)
	movl	$16, 40(%eax)
	movl	$16, 72(%eax)
	movl	%edx, 592(%eax)
	je	.L1626
.L1623:
	rep ret
	.p2align 4,,7
	.p2align 3
.L1626:
	movl	ksSchedulerAction, %eax
	testl	%eax, %eax
	jne	.L1623
	jmp	rescheduleRequired
	.cfi_endproc
.LFE432:
	.size	configureIdleThread, .-configureIdleThread
	.text
	.p2align 4,,15
	.globl	preemptionPoint
	.type	preemptionPoint, @function
preemptionPoint:
.LFB456:
	.cfi_startproc
	movl	ksWorkUnitsCompleted, %eax
	addl	$1, %eax
	cmpl	$99, %eax
	ja	.L1628
	movl	%eax, ksWorkUnitsCompleted
	xorl	%eax, %eax
	ret
	.p2align 4,,7
	.p2align 3
.L1628:
	movl	$0, ksWorkUnitsCompleted
	movl	-65008, %eax
	testl	%eax, %eax
	jne	.L1637
	subl	$28, %esp
	.cfi_def_cfa_offset 32
	movl	$10, 4(%esp)
	movl	$32, (%esp)
	call	out8
	movl	$32, (%esp)
	call	in8
	testb	%al, %al
	je	.L1638
	movl	$4, %eax
	addl	$28, %esp
	.cfi_remember_state
	.cfi_def_cfa_offset 4
	ret
	.p2align 4,,7
	.p2align 3
.L1638:
	.cfi_restore_state
	xorl	%eax, %eax
	addl	$28, %esp
	.cfi_def_cfa_offset 4
	ret
	.p2align 4,,7
	.p2align 3
.L1637:
	movl	$4, %eax
	ret
	.cfi_endproc
.LFE456:
	.size	preemptionPoint, .-preemptionPoint
	.p2align 4,,15
	.globl	receiveAsyncIPC
	.type	receiveAsyncIPC, @function
receiveAsyncIPC:
.LFB460:
	.cfi_startproc
	pushl	%edi
	.cfi_def_cfa_offset 8
	.cfi_offset 7, -8
	pushl	%esi
	.cfi_def_cfa_offset 12
	.cfi_offset 6, -12
	pushl	%ebx
	.cfi_def_cfa_offset 16
	.cfi_offset 3, -16
	subl	$4, %esp
	.cfi_def_cfa_offset 20
	movl	24(%esp), %ebx
	movl	20(%esp), %esi
	andl	$-16, %ebx
	movl	(%ebx), %eax
	andl	$3, %eax
	cmpl	$1, %eax
	jbe	.L1641
	cmpl	$2, %eax
	jne	.L1639
	movl	12(%ebx), %edx
	movl	8(%ebx), %eax
	movl	$1, 16(%esi)
	movl	%edx, 20(%esi)
	movl	%eax, 4(%esi)
	andl	$-4, (%ebx)
.L1639:
	addl	$4, %esp
	.cfi_remember_state
	.cfi_def_cfa_offset 16
	popl	%ebx
	.cfi_restore 3
	.cfi_def_cfa_offset 12
	popl	%esi
	.cfi_restore 6
	.cfi_def_cfa_offset 8
	popl	%edi
	.cfi_restore 7
	.cfi_def_cfa_offset 4
	ret
	.p2align 4,,7
	.p2align 3
.L1641:
	.cfi_restore_state
	movl	%ebx, %eax
	orl	$6, %eax
	movl	%eax, 592(%esi)
	movl	%esi, (%esp)
	call	scheduleTCB
	movl	4(%ebx), %ecx
	movl	(%ebx), %eax
	movl	%ecx, %edx
	movl	%eax, %edi
	andl	$-16, %edi
	andl	$-16, %edx
	je	.L1644
	movl	%esi, 648(%edi)
.L1643:
	movl	%edi, 652(%esi)
	andl	$12, %eax
	andl	$-16, %edx
	movl	$0, 648(%esi)
	andl	$-16, %esi
	andl	$15, %ecx
	orl	%esi, %eax
	orl	%ecx, %edx
	orl	$1, %eax
	movl	%edx, 4(%ebx)
	movl	%eax, (%ebx)
	addl	$4, %esp
	.cfi_remember_state
	.cfi_def_cfa_offset 16
	popl	%ebx
	.cfi_restore 3
	.cfi_def_cfa_offset 12
	popl	%esi
	.cfi_restore 6
	.cfi_def_cfa_offset 8
	popl	%edi
	.cfi_restore 7
	.cfi_def_cfa_offset 4
	ret
	.p2align 4,,7
	.p2align 3
.L1644:
	.cfi_restore_state
	movl	%esi, %edx
	jmp	.L1643
	.cfi_endproc
.LFE460:
	.size	receiveAsyncIPC, .-receiveAsyncIPC
	.p2align 4,,15
	.globl	aepCancelAll
	.type	aepCancelAll, @function
aepCancelAll:
.LFB461:
	.cfi_startproc
	pushl	%edi
	.cfi_def_cfa_offset 8
	.cfi_offset 7, -8
	pushl	%esi
	.cfi_def_cfa_offset 12
	.cfi_offset 6, -12
	pushl	%ebx
	.cfi_def_cfa_offset 16
	.cfi_offset 3, -16
	movl	16(%esp), %edx
	movl	(%edx), %ecx
	movl	%ecx, %eax
	andl	$3, %eax
	cmpl	$1, %eax
	je	.L1663
	popl	%ebx
	.cfi_remember_state
	.cfi_restore 3
	.cfi_def_cfa_offset 12
	popl	%esi
	.cfi_restore 6
	.cfi_def_cfa_offset 8
	popl	%edi
	.cfi_restore 7
	.cfi_def_cfa_offset 4
	ret
	.p2align 4,,7
	.p2align 3
.L1663:
	.cfi_restore_state
	movl	4(%edx), %eax
	andl	$12, %ecx
	movl	%ecx, (%edx)
	movl	%eax, %ebx
	andl	$15, %ebx
	andl	$-16, %eax
	movl	%ebx, 4(%edx)
	jne	.L1660
	jmp	.L1653
	.p2align 4,,7
	.p2align 3
.L1664:
	movl	%eax, 644(%edi)
.L1652:
	orl	$1, %ecx
	movl	$0, 644(%eax)
	movl	%edi, 640(%eax)
	movl	%eax, ksReadyQueues(,%edx,8)
	movl	%ebx, 4(%esi)
	movl	%ecx, 600(%eax)
.L1651:
	movl	648(%eax), %eax
	testl	%eax, %eax
	je	.L1653
.L1660:
	movl	592(%eax), %edx
	movl	600(%eax), %ecx
	andl	$-16, %edx
	orl	$2, %edx
	testb	$1, %cl
	movl	%edx, 592(%eax)
	jne	.L1651
	movl	620(%eax), %edx
	sall	$8, %edx
	addl	624(%eax), %edx
	leal	ksReadyQueues(,%edx,8), %esi
	movl	ksReadyQueues(,%edx,8), %edi
	movl	4(%esi), %ebx
	testl	%ebx, %ebx
	jne	.L1664
	movl	%eax, %ebx
	jmp	.L1652
	.p2align 4,,7
	.p2align 3
.L1653:
	movl	ksSchedulerAction, %eax
	leal	-1(%eax), %edx
	cmpl	$-3, %edx
	jbe	.L1665
.L1650:
	popl	%ebx
	.cfi_remember_state
	.cfi_restore 3
	.cfi_def_cfa_offset 12
	movl	$-1, ksSchedulerAction
	popl	%esi
	.cfi_restore 6
	.cfi_def_cfa_offset 8
	popl	%edi
	.cfi_restore 7
	.cfi_def_cfa_offset 4
	ret
	.p2align 4,,7
	.p2align 3
.L1665:
	.cfi_restore_state
	movl	600(%eax), %ecx
	testb	$1, %cl
	jne	.L1650
	movl	620(%eax), %edx
	sall	$8, %edx
	addl	624(%eax), %edx
	leal	ksReadyQueues(,%edx,8), %esi
	movl	ksReadyQueues(,%edx,8), %edi
	movl	4(%esi), %ebx
	testl	%ebx, %ebx
	je	.L1657
	movl	%eax, 644(%edi)
.L1655:
	orl	$1, %ecx
	movl	$0, 644(%eax)
	movl	%edi, 640(%eax)
	movl	%eax, ksReadyQueues(,%edx,8)
	movl	%ebx, 4(%esi)
	movl	%ecx, 600(%eax)
	jmp	.L1650
.L1657:
	movl	%eax, %ebx
	jmp	.L1655
	.cfi_endproc
.LFE461:
	.size	aepCancelAll, .-aepCancelAll
	.p2align 4,,15
	.globl	asyncIPCCancel
	.type	asyncIPCCancel, @function
asyncIPCCancel:
.LFB462:
	.cfi_startproc
	pushl	%ebp
	.cfi_def_cfa_offset 8
	.cfi_offset 5, -8
	pushl	%edi
	.cfi_def_cfa_offset 12
	.cfi_offset 7, -12
	pushl	%esi
	.cfi_def_cfa_offset 16
	.cfi_offset 6, -16
	pushl	%ebx
	.cfi_def_cfa_offset 20
	.cfi_offset 3, -20
	subl	$4, %esp
	.cfi_def_cfa_offset 24
	movl	28(%esp), %edx
	movl	24(%esp), %eax
	movl	(%edx), %esi
	movl	4(%edx), %edi
	movl	%esi, %ecx
	andl	$-16, %ecx
	movl	%edi, %ebx
	movl	%ecx, (%esp)
	movl	652(%eax), %ecx
	andl	$-16, %ebx
	testl	%ecx, %ecx
	je	.L1667
	movl	648(%eax), %ebp
	movl	%ebp, 648(%ecx)
	movl	648(%eax), %ebp
	testl	%ebp, %ebp
	je	.L1673
.L1677:
	movl	%ecx, 652(%ebp)
.L1669:
	movl	%ebx, %ecx
	andl	$15, %edi
	andl	$-16, %ecx
	andl	$15, %esi
	orl	%edi, %ecx
	movl	%ecx, 4(%edx)
	movl	(%esp), %ecx
	andl	$-16, %ecx
	orl	%esi, %ecx
	testl	%ebx, %ebx
	je	.L1670
.L1675:
	movl	%ecx, (%edx)
	andl	$-16, 592(%eax)
	cmpl	ksCurThread, %eax
	je	.L1676
.L1666:
	addl	$4, %esp
	.cfi_remember_state
	.cfi_def_cfa_offset 20
	popl	%ebx
	.cfi_restore 3
	.cfi_def_cfa_offset 16
	popl	%esi
	.cfi_restore 6
	.cfi_def_cfa_offset 12
	popl	%edi
	.cfi_restore 7
	.cfi_def_cfa_offset 8
	popl	%ebp
	.cfi_restore 5
	.cfi_def_cfa_offset 4
	ret
	.p2align 4,,7
	.p2align 3
.L1670:
	.cfi_restore_state
	andl	$-4, %ecx
	jmp	.L1675
	.p2align 4,,7
	.p2align 3
.L1676:
	movl	ksSchedulerAction, %eax
	testl	%eax, %eax
	jne	.L1666
	addl	$4, %esp
	.cfi_remember_state
	.cfi_def_cfa_offset 20
	popl	%ebx
	.cfi_restore 3
	.cfi_def_cfa_offset 16
	popl	%esi
	.cfi_restore 6
	.cfi_def_cfa_offset 12
	popl	%edi
	.cfi_restore 7
	.cfi_def_cfa_offset 8
	popl	%ebp
	.cfi_restore 5
	.cfi_def_cfa_offset 4
	jmp	rescheduleRequired
	.p2align 4,,7
	.p2align 3
.L1667:
	.cfi_restore_state
	movl	648(%eax), %ebx
	movl	%ebx, %ebp
	testl	%ebp, %ebp
	jne	.L1677
	.p2align 4,,7
	.p2align 3
.L1673:
	movl	%ecx, (%esp)
	jmp	.L1669
	.cfi_endproc
.LFE462:
	.size	asyncIPCCancel, .-asyncIPCCancel
	.p2align 4,,15
	.globl	invokeCNodeMove
	.type	invokeCNodeMove, @function
invokeCNodeMove:
.LFB468:
	.cfi_startproc
	pushl	%edi
	.cfi_def_cfa_offset 8
	.cfi_offset 7, -8
	pushl	%esi
	.cfi_def_cfa_offset 12
	.cfi_offset 6, -12
	pushl	%ebx
	.cfi_def_cfa_offset 16
	.cfi_offset 3, -16
	movl	24(%esp), %ecx
	movl	28(%esp), %ebx
	movl	16(%esp), %eax
	movl	20(%esp), %edx
	movl	8(%ecx), %edi
	movl	12(%ecx), %esi
	movl	%eax, (%ebx)
	movl	%edx, 4(%ebx)
	movl	$0, (%ecx)
	movl	$0, 4(%ecx)
	movl	%edi, 8(%ebx)
	andl	$-8, %edi
	movl	%esi, 12(%ebx)
	movl	$0, 8(%ecx)
	movl	$0, 12(%ecx)
	je	.L1679
	movl	12(%edi), %eax
	movl	%ebx, %edx
	andl	$-8, %edx
	andl	$7, %eax
	orl	%edx, %eax
	movl	%eax, 12(%edi)
.L1679:
	andl	$-8, %esi
	je	.L1680
	movl	8(%esi), %eax
	andl	$-8, %ebx
	andl	$7, %eax
	orl	%ebx, %eax
	movl	%eax, 8(%esi)
.L1680:
	popl	%ebx
	.cfi_restore 3
	.cfi_def_cfa_offset 12
	xorl	%eax, %eax
	popl	%esi
	.cfi_restore 6
	.cfi_def_cfa_offset 8
	popl	%edi
	.cfi_restore 7
	.cfi_def_cfa_offset 4
	ret
	.cfi_endproc
.LFE468:
	.size	invokeCNodeMove, .-invokeCNodeMove
	.p2align 4,,15
	.globl	invokeCNodeSaveCaller
	.type	invokeCNodeSaveCaller, @function
invokeCNodeSaveCaller:
.LFB470:
	.cfi_startproc
	pushl	%ebp
	.cfi_def_cfa_offset 8
	.cfi_offset 5, -8
	pushl	%edi
	.cfi_def_cfa_offset 12
	.cfi_offset 7, -12
	pushl	%esi
	.cfi_def_cfa_offset 16
	.cfi_offset 6, -16
	pushl	%ebx
	.cfi_def_cfa_offset 20
	.cfi_offset 3, -20
	subl	$12, %esp
	.cfi_def_cfa_offset 32
	movl	ksCurThread, %eax
	andl	$-1024, %eax
	movl	48(%eax), %ecx
	leal	48(%eax), %ebx
	movl	52(%eax), %ebp
	movl	%ecx, %edi
	movl	%ecx, %edx
	andl	$14, %edi
	andl	$15, %edx
	movzbl	%cl, %esi
	cmpl	$14, %edi
	cmove	%esi, %edx
	testl	%edx, %edx
	je	.L1692
	cmpl	$8, %edx
	jne	.L1706
	testl	$1, %ebp
	je	.L1708
.L1692:
	addl	$12, %esp
	.cfi_remember_state
	.cfi_def_cfa_offset 20
	xorl	%eax, %eax
	popl	%ebx
	.cfi_restore 3
	.cfi_def_cfa_offset 16
	popl	%esi
	.cfi_restore 6
	.cfi_def_cfa_offset 12
	popl	%edi
	.cfi_restore 7
	.cfi_def_cfa_offset 8
	popl	%ebp
	.cfi_restore 5
	.cfi_def_cfa_offset 4
	ret
	.p2align 4,,7
	.p2align 3
.L1706:
	.cfi_restore_state
	call	halt
	.p2align 4,,7
	.p2align 3
.L1708:
	movl	56(%eax), %esi
	movl	32(%esp), %edi
	movl	60(%eax), %edx
	movl	%ecx, (%edi)
	movl	%edi, %ecx
	movl	%ebp, 4(%edi)
	movl	$0, 48(%eax)
	movl	$0, 52(%eax)
	movl	%esi, 8(%edi)
	andl	$-8, %esi
	movl	%edx, 12(%edi)
	movl	$0, 8(%ebx)
	movl	$0, 12(%ebx)
	jne	.L1709
.L1695:
	andl	$-8, %edx
	je	.L1692
	movl	8(%edx), %eax
	movl	32(%esp), %ecx
	andl	$7, %eax
	andl	$-8, %ecx
	orl	%ecx, %eax
	movl	%eax, 8(%edx)
	jmp	.L1692
	.p2align 4,,7
	.p2align 3
.L1709:
	movl	12(%esi), %eax
	andl	$-8, %ecx
	andl	$7, %eax
	orl	%ecx, %eax
	movl	%eax, 12(%esi)
	jmp	.L1695
	.cfi_endproc
.LFE470:
	.size	invokeCNodeSaveCaller, .-invokeCNodeSaveCaller
	.p2align 4,,15
	.globl	cteInsert
	.type	cteInsert, @function
cteInsert:
.LFB472:
	.cfi_startproc
	pushl	%ebp
	.cfi_def_cfa_offset 8
	.cfi_offset 5, -8
	pushl	%edi
	.cfi_def_cfa_offset 12
	.cfi_offset 7, -12
	pushl	%esi
	.cfi_def_cfa_offset 16
	.cfi_offset 6, -16
	pushl	%ebx
	.cfi_def_cfa_offset 20
	.cfi_offset 3, -20
	subl	$28, %esp
	.cfi_def_cfa_offset 48
	movl	52(%esp), %eax
	movl	48(%esp), %ebx
	movl	60(%esp), %esi
	movl	%eax, 4(%esp)
	movl	56(%esp), %eax
	movl	%ebx, %edx
	andl	$15, %edx
	movl	4(%eax), %ecx
	movl	12(%eax), %edi
	movl	%ecx, 20(%esp)
	movl	%ebx, %ecx
	andl	$14, %ecx
	movl	%ecx, %ebp
	movl	%edi, 16(%esp)
	movl	8(%eax), %edi
	cmpl	$14, %ebp
	movl	%ecx, 24(%esp)
	movzbl	%bl, %ecx
	cmove	%ecx, %edx
	cmpl	$4, %edx
	movl	%edi, 12(%esp)
	movl	(%eax), %edi
	je	.L1717
	jbe	.L1732
	cmpl	$6, %edx
	je	.L1717
	cmpl	$30, %edx
	.p2align 4,,5
	jne	.L1713
	movl	%edi, %ecx
	movl	%edi, %edx
	andl	$14, %ecx
	andl	$15, %edx
	movl	%ecx, %ebp
	movl	%ecx, 8(%esp)
	movl	%edi, %ecx
	cmpl	$14, %ebp
	movzbl	%cl, %ecx
	cmove	%ecx, %edx
	cmpl	$14, %edx
	sete	%dl
	movzbl	%dl, %edx
	leal	(%edx,%edx), %ecx
	movl	%edx, %ebp
	andl	$2, %ecx
.L1719:
	movl	%eax, %edx
	andl	$-8, %edx
	movl	%edx, (%esp)
	movl	12(%esp), %edx
	andl	$7, %edx
	orl	%edx, (%esp)
	movl	16(%esp), %edx
	andl	$-4, %edx
	orl	%ecx, %edx
	movl	%edi, %ecx
	andl	$15, %ecx
	orl	%ebp, %edx
	movl	%ecx, 12(%esp)
	movl	%edi, %ecx
	cmpl	$14, 8(%esp)
	movzbl	%cl, %ebp
	cmovne	12(%esp), %ebp
	cmpl	$2, %ebp
	je	.L1733
.L1724:
	movl	%ebx, (%esi)
	movl	(%esp), %edi
	movl	4(%esp), %ebx
	movl	%edx, 12(%esi)
	movl	%edi, 8(%esi)
	movl	%ebx, 4(%esi)
	movl	12(%eax), %ecx
	andl	$-8, %esi
	andl	$7, %ecx
	orl	%esi, %ecx
	andl	$-8, %edx
	movl	%ecx, 12(%eax)
	je	.L1710
	movl	8(%edx), %eax
	andl	$7, %eax
	orl	%esi, %eax
	movl	%eax, 8(%edx)
.L1710:
	addl	$28, %esp
	.cfi_remember_state
	.cfi_def_cfa_offset 20
	popl	%ebx
	.cfi_restore 3
	.cfi_def_cfa_offset 16
	popl	%esi
	.cfi_restore 6
	.cfi_def_cfa_offset 12
	popl	%edi
	.cfi_restore 7
	.cfi_def_cfa_offset 8
	popl	%ebp
	.cfi_restore 5
	.cfi_def_cfa_offset 4
	ret
	.p2align 4,,7
	.p2align 3
.L1717:
	.cfi_restore_state
	movl	4(%esp), %ecx
	movl	20(%esp), %edx
	shrl	$3, %ecx
	shrl	$3, %edx
	cmpl	%edx, %ecx
	setne	%cl
	movzbl	%cl, %ecx
	movl	%ecx, %ebp
	movl	%edi, %ecx
	andl	$14, %ecx
	movl	%ecx, 8(%esp)
	leal	(%ebp,%ebp), %ecx
	andl	$2, %ecx
	jmp	.L1719
	.p2align 4,,7
	.p2align 3
.L1733:
	movl	%ebx, %ecx
	movzbl	%bl, %ebp
	andl	$15, %ecx
	cmpl	$14, 24(%esp)
	cmove	%ebp, %ecx
	cmpl	$2, %ecx
	jne	.L1724
	movl	%ebx, %ecx
	andl	$-16, %edi
	andl	$-16, %ecx
	cmpl	%ecx, %edi
	jne	.L1724
	movl	4(%esp), %ebp
	movl	20(%esp), %ecx
	andl	$31, %ebp
	andl	$31, %ecx
	cmpl	%ecx, %ebp
	jne	.L1724
	leal	-4(%ebp), %ecx
	movl	$32, %edi
	sall	%cl, %edi
	orl	%ebp, %edi
	movl	%edi, 4(%eax)
	jmp	.L1724
	.p2align 4,,7
	.p2align 3
.L1732:
	cmpl	$2, %edx
	jne	.L1713
	movl	%edi, %ecx
	movl	$1, %ebp
	andl	$14, %ecx
	movl	%ecx, 8(%esp)
	movl	$2, %ecx
	jmp	.L1719
	.p2align 4,,7
	.p2align 3
.L1713:
	movl	%edi, %ecx
	xorl	%ebp, %ebp
	andl	$14, %ecx
	movl	%ecx, 8(%esp)
	xorl	%ecx, %ecx
	jmp	.L1719
	.cfi_endproc
.LFE472:
	.size	cteInsert, .-cteInsert
	.p2align 4,,15
	.globl	invokeCNodeInsert
	.type	invokeCNodeInsert, @function
invokeCNodeInsert:
.LFB467:
	.cfi_startproc
	subl	$16, %esp
	.cfi_def_cfa_offset 20
	movl	32(%esp), %eax
	movl	24(%esp), %edx
	movl	%eax, 12(%esp)
	movl	28(%esp), %eax
	movl	%edx, 4(%esp)
	movl	%eax, 8(%esp)
	movl	20(%esp), %eax
	movl	%eax, (%esp)
	call	cteInsert
	xorl	%eax, %eax
	addl	$16, %esp
	.cfi_def_cfa_offset 4
	ret
	.cfi_endproc
.LFE467:
	.size	invokeCNodeInsert, .-invokeCNodeInsert
	.p2align 4,,15
	.globl	cteMove
	.type	cteMove, @function
cteMove:
.LFB473:
	.cfi_startproc
	pushl	%edi
	.cfi_def_cfa_offset 8
	.cfi_offset 7, -8
	pushl	%esi
	.cfi_def_cfa_offset 12
	.cfi_offset 6, -12
	pushl	%ebx
	.cfi_def_cfa_offset 16
	.cfi_offset 3, -16
	movl	24(%esp), %ecx
	movl	28(%esp), %ebx
	movl	16(%esp), %eax
	movl	20(%esp), %edx
	movl	8(%ecx), %edi
	movl	12(%ecx), %esi
	movl	%eax, (%ebx)
	movl	%edx, 4(%ebx)
	movl	$0, (%ecx)
	movl	$0, 4(%ecx)
	movl	%edi, 8(%ebx)
	andl	$-8, %edi
	movl	%esi, 12(%ebx)
	movl	$0, 8(%ecx)
	movl	$0, 12(%ecx)
	je	.L1737
	movl	12(%edi), %eax
	movl	%ebx, %edx
	andl	$-8, %edx
	andl	$7, %eax
	orl	%edx, %eax
	movl	%eax, 12(%edi)
.L1737:
	andl	$-8, %esi
	je	.L1736
	movl	8(%esi), %eax
	andl	$-8, %ebx
	andl	$7, %eax
	orl	%ebx, %eax
	movl	%eax, 8(%esi)
.L1736:
	popl	%ebx
	.cfi_restore 3
	.cfi_def_cfa_offset 12
	popl	%esi
	.cfi_restore 6
	.cfi_def_cfa_offset 8
	popl	%edi
	.cfi_restore 7
	.cfi_def_cfa_offset 4
	ret
	.cfi_endproc
.LFE473:
	.size	cteMove, .-cteMove
	.p2align 4,,15
	.globl	capSwapForDelete
	.type	capSwapForDelete, @function
capSwapForDelete:
.LFB474:
	.cfi_startproc
	pushl	%ebp
	.cfi_def_cfa_offset 8
	.cfi_offset 5, -8
	pushl	%edi
	.cfi_def_cfa_offset 12
	.cfi_offset 7, -12
	pushl	%esi
	.cfi_def_cfa_offset 16
	.cfi_offset 6, -16
	pushl	%ebx
	.cfi_def_cfa_offset 20
	.cfi_offset 3, -20
	movl	20(%esp), %esi
	movl	24(%esp), %edi
	cmpl	%edi, %esi
	je	.L1746
	movl	(%esi), %ecx
	movl	4(%esi), %ebx
	movl	4(%edi), %edx
	movl	(%edi), %eax
	movl	%edx, 4(%esi)
	movl	%eax, (%esi)
	movl	%ecx, (%edi)
	movl	%ebx, 4(%edi)
	movl	8(%esi), %ebx
	movl	12(%esi), %ecx
	movl	%ebx, %edx
	andl	$-8, %edx
	je	.L1748
	movl	12(%edx), %eax
	movl	%edi, %ebp
	andl	$-8, %ebp
	andl	$7, %eax
	orl	%ebp, %eax
	movl	%eax, 12(%edx)
.L1748:
	movl	%ecx, %edx
	andl	$-8, %edx
	je	.L1749
	movl	8(%edx), %eax
	movl	%edi, %ebp
	andl	$-8, %ebp
	andl	$7, %eax
	orl	%ebp, %eax
	movl	%eax, 8(%edx)
.L1749:
	movl	8(%edi), %edx
	movl	12(%edi), %eax
	movl	%edx, 8(%esi)
	andl	$-8, %edx
	movl	%eax, 12(%esi)
	movl	%ebx, 8(%edi)
	movl	%ecx, 12(%edi)
	je	.L1750
	movl	12(%edx), %ecx
	movl	%esi, %ebx
	andl	$-8, %ebx
	andl	$7, %ecx
	orl	%ebx, %ecx
	movl	%ecx, 12(%edx)
.L1750:
	andl	$-8, %eax
	je	.L1746
	movl	8(%eax), %edx
	andl	$-8, %esi
	andl	$7, %edx
	orl	%esi, %edx
	movl	%edx, 8(%eax)
.L1746:
	popl	%ebx
	.cfi_restore 3
	.cfi_def_cfa_offset 16
	popl	%esi
	.cfi_restore 6
	.cfi_def_cfa_offset 12
	popl	%edi
	.cfi_restore 7
	.cfi_def_cfa_offset 8
	popl	%ebp
	.cfi_restore 5
	.cfi_def_cfa_offset 4
	ret
	.cfi_endproc
.LFE474:
	.size	capSwapForDelete, .-capSwapForDelete
	.p2align 4,,15
	.globl	cteSwap
	.type	cteSwap, @function
cteSwap:
.LFB475:
	.cfi_startproc
	pushl	%ebp
	.cfi_def_cfa_offset 8
	.cfi_offset 5, -8
	pushl	%edi
	.cfi_def_cfa_offset 12
	.cfi_offset 7, -12
	pushl	%esi
	.cfi_def_cfa_offset 16
	.cfi_offset 6, -16
	pushl	%ebx
	.cfi_def_cfa_offset 20
	.cfi_offset 3, -20
	movl	28(%esp), %ecx
	movl	32(%esp), %eax
	movl	36(%esp), %edx
	movl	40(%esp), %ebx
	movl	%eax, (%ecx)
	movl	20(%esp), %eax
	movl	%edx, 4(%ecx)
	movl	24(%esp), %edx
	movl	%eax, (%ebx)
	movl	%edx, 4(%ebx)
	movl	8(%ecx), %edi
	movl	12(%ecx), %esi
	movl	%edi, %edx
	andl	$-8, %edx
	je	.L1767
	movl	12(%edx), %eax
	movl	%ebx, %ebp
	andl	$-8, %ebp
	andl	$7, %eax
	orl	%ebp, %eax
	movl	%eax, 12(%edx)
.L1767:
	movl	%esi, %edx
	andl	$-8, %edx
	je	.L1768
	movl	8(%edx), %eax
	movl	%ebx, %ebp
	andl	$-8, %ebp
	andl	$7, %eax
	orl	%ebp, %eax
	movl	%eax, 8(%edx)
.L1768:
	movl	8(%ebx), %edx
	movl	12(%ebx), %eax
	movl	%edx, 8(%ecx)
	andl	$-8, %edx
	movl	%eax, 12(%ecx)
	movl	%edi, 8(%ebx)
	movl	%esi, 12(%ebx)
	je	.L1769
	movl	12(%edx), %ebx
	movl	%ecx, %esi
	andl	$-8, %esi
	andl	$7, %ebx
	orl	%esi, %ebx
	movl	%ebx, 12(%edx)
.L1769:
	andl	$-8, %eax
	je	.L1766
	movl	8(%eax), %edx
	andl	$-8, %ecx
	andl	$7, %edx
	orl	%ecx, %edx
	movl	%edx, 8(%eax)
.L1766:
	popl	%ebx
	.cfi_restore 3
	.cfi_def_cfa_offset 16
	popl	%esi
	.cfi_restore 6
	.cfi_def_cfa_offset 12
	popl	%edi
	.cfi_restore 7
	.cfi_def_cfa_offset 8
	popl	%ebp
	.cfi_restore 5
	.cfi_def_cfa_offset 4
	ret
	.cfi_endproc
.LFE475:
	.size	cteSwap, .-cteSwap
	.p2align 4,,15
	.globl	invokeCNodeRotate
	.type	invokeCNodeRotate, @function
invokeCNodeRotate:
.LFB469:
	.cfi_startproc
	pushl	%ebp
	.cfi_def_cfa_offset 8
	.cfi_offset 5, -8
	pushl	%edi
	.cfi_def_cfa_offset 12
	.cfi_offset 7, -12
	pushl	%esi
	.cfi_def_cfa_offset 16
	.cfi_offset 6, -16
	pushl	%ebx
	.cfi_def_cfa_offset 20
	.cfi_offset 3, -20
	subl	$24, %esp
	.cfi_def_cfa_offset 44
	movl	60(%esp), %edx
	movl	68(%esp), %ecx
	movl	64(%esp), %eax
	cmpl	%ecx, %edx
	je	.L1803
	movl	8(%eax), %esi
	movl	52(%esp), %edi
	movl	56(%esp), %ebp
	movl	12(%eax), %ebx
	movl	%edi, (%ecx)
	movl	%ebp, 4(%ecx)
	movl	$0, (%eax)
	movl	$0, 4(%eax)
	movl	%esi, 8(%ecx)
	andl	$-8, %esi
	movl	%ebx, 12(%ecx)
	movl	$0, 8(%eax)
	movl	$0, 12(%eax)
	jne	.L1804
.L1787:
	andl	$-8, %ebx
	je	.L1788
	movl	8(%ebx), %esi
	andl	$-8, %ecx
	andl	$7, %esi
	orl	%ecx, %esi
	movl	%esi, 8(%ebx)
.L1788:
	movl	8(%edx), %ebx
	movl	44(%esp), %edi
	movl	48(%esp), %ebp
	movl	12(%edx), %ecx
	movl	%edi, (%eax)
	movl	%ebp, 4(%eax)
	movl	$0, (%edx)
	movl	$0, 4(%edx)
	movl	%ebx, 8(%eax)
	andl	$-8, %ebx
	movl	%ecx, 12(%eax)
	movl	$0, 8(%edx)
	movl	$0, 12(%edx)
	jne	.L1805
.L1789:
	andl	$-8, %ecx
	je	.L1786
	movl	8(%ecx), %edx
	andl	$-8, %eax
	andl	$7, %edx
	orl	%eax, %edx
	movl	%edx, 8(%ecx)
.L1786:
	addl	$24, %esp
	.cfi_remember_state
	.cfi_def_cfa_offset 20
	xorl	%eax, %eax
	popl	%ebx
	.cfi_restore 3
	.cfi_def_cfa_offset 16
	popl	%esi
	.cfi_restore 6
	.cfi_def_cfa_offset 12
	popl	%edi
	.cfi_restore 7
	.cfi_def_cfa_offset 8
	popl	%ebp
	.cfi_restore 5
	.cfi_def_cfa_offset 4
	ret
	.p2align 4,,7
	.p2align 3
.L1805:
	.cfi_restore_state
	movl	12(%ebx), %edx
	movl	%eax, %esi
	andl	$-8, %esi
	andl	$7, %edx
	orl	%esi, %edx
	movl	%edx, 12(%ebx)
	jmp	.L1789
	.p2align 4,,7
	.p2align 3
.L1804:
	movl	12(%esi), %edi
	movl	%ecx, %ebp
	andl	$-8, %ebp
	andl	$7, %edi
	orl	%ebp, %edi
	movl	%edi, 12(%esi)
	jmp	.L1787
	.p2align 4,,7
	.p2align 3
.L1803:
	movl	52(%esp), %edi
	movl	56(%esp), %ebp
	movl	%eax, 20(%esp)
	movl	44(%esp), %eax
	movl	%edx, 8(%esp)
	movl	48(%esp), %edx
	movl	%edi, 12(%esp)
	movl	%ebp, 16(%esp)
	movl	%eax, (%esp)
	movl	%edx, 4(%esp)
	call	cteSwap
	addl	$24, %esp
	.cfi_def_cfa_offset 20
	xorl	%eax, %eax
	popl	%ebx
	.cfi_restore 3
	.cfi_def_cfa_offset 16
	popl	%esi
	.cfi_restore 6
	.cfi_def_cfa_offset 12
	popl	%edi
	.cfi_restore 7
	.cfi_def_cfa_offset 8
	popl	%ebp
	.cfi_restore 5
	.cfi_def_cfa_offset 4
	ret
	.cfi_endproc
.LFE469:
	.size	invokeCNodeRotate, .-invokeCNodeRotate
	.p2align 4,,15
	.globl	insertNewCap
	.type	insertNewCap, @function
insertNewCap:
.LFB485:
	.cfi_startproc
	pushl	%esi
	.cfi_def_cfa_offset 8
	.cfi_offset 6, -8
	pushl	%ebx
	.cfi_def_cfa_offset 12
	.cfi_offset 3, -12
	movl	12(%esp), %ebx
	movl	16(%esp), %esi
	movl	20(%esp), %eax
	movl	24(%esp), %edx
	movl	12(%ebx), %ecx
	movl	%eax, (%esi)
	movl	%ebx, %eax
	andl	$-8, %eax
	andl	$-8, %ecx
	movl	%eax, 8(%esi)
	movl	%ecx, %eax
	orl	$3, %eax
	movl	%edx, 4(%esi)
	movl	%eax, 12(%esi)
	andl	$-8, %esi
	testl	%ecx, %ecx
	je	.L1808
	movl	8(%ecx), %eax
	andl	$7, %eax
	orl	%esi, %eax
	movl	%eax, 8(%ecx)
.L1808:
	movl	12(%ebx), %eax
	andl	$7, %eax
	orl	%esi, %eax
	movl	%eax, 12(%ebx)
	popl	%ebx
	.cfi_restore 3
	.cfi_def_cfa_offset 8
	popl	%esi
	.cfi_restore 6
	.cfi_def_cfa_offset 4
	ret
	.cfi_endproc
.LFE485:
	.size	insertNewCap, .-insertNewCap
	.p2align 4,,15
	.globl	setupReplyMaster
	.type	setupReplyMaster, @function
setupReplyMaster:
.LFB486:
	.cfi_startproc
	pushl	%edi
	.cfi_def_cfa_offset 8
	.cfi_offset 7, -8
	pushl	%esi
	.cfi_def_cfa_offset 12
	.cfi_offset 6, -12
	pushl	%ebx
	.cfi_def_cfa_offset 16
	.cfi_offset 3, -16
	movl	16(%esp), %esi
	movl	%esi, %ecx
	andl	$-1024, %ecx
	movl	32(%ecx), %edx
	movl	%edx, %edi
	movl	%edx, %eax
	andl	$14, %edi
	andl	$15, %eax
	movzbl	%dl, %edx
	cmpl	$14, %edi
	cmove	%edx, %eax
	testl	%eax, %eax
	jne	.L1810
	andl	$-16, %esi
	orl	$8, %esi
	movl	%esi, 32(%ecx)
	movl	$1, 36(%ecx)
	movl	$0, 40(%ecx)
	movl	$3, 44(%ecx)
.L1810:
	popl	%ebx
	.cfi_restore 3
	.cfi_def_cfa_offset 12
	popl	%esi
	.cfi_restore 6
	.cfi_def_cfa_offset 8
	popl	%edi
	.cfi_restore 7
	.cfi_def_cfa_offset 4
	ret
	.cfi_endproc
.LFE486:
	.size	setupReplyMaster, .-setupReplyMaster
	.p2align 4,,15
	.globl	ensureEmptySlot
	.type	ensureEmptySlot, @function
ensureEmptySlot:
.LFB489:
	.cfi_startproc
	movl	4(%esp), %eax
	movl	(%eax), %eax
	movl	%eax, %ecx
	movl	%eax, %edx
	andl	$14, %ecx
	andl	$15, %edx
	movzbl	%al, %eax
	cmpl	$14, %ecx
	cmove	%eax, %edx
	xorl	%eax, %eax
	testl	%edx, %edx
	je	.L1818
	movl	$8, current_syscall_error+24
	movb	$3, %al
.L1818:
	rep ret
	.cfi_endproc
.LFE489:
	.size	ensureEmptySlot, .-ensureEmptySlot
	.p2align 4,,15
	.globl	getReceiveSlots
	.type	getReceiveSlots, @function
getReceiveSlots:
.LFB492:
	.cfi_startproc
	pushl	%ebp
	.cfi_def_cfa_offset 8
	.cfi_offset 5, -8
	movl	%esp, %ebp
	.cfi_def_cfa_register 5
	pushl	%edi
	pushl	%esi
	pushl	%ebx
	subl	$52, %esp
	.cfi_offset 7, -12
	.cfi_offset 6, -16
	.cfi_offset 3, -20
	movl	12(%ebp), %eax
	testl	%eax, %eax
	je	.L1829
	movl	500(%eax), %ecx
	leal	-28(%ebp), %edi
	movl	504(%eax), %ebx
	movl	508(%eax), %esi
	movl	8(%ebp), %eax
	andl	$-1024, %eax
	movl	4(%eax), %edx
	movl	(%eax), %eax
	movl	%ecx, 12(%esp)
	movl	$32, 16(%esp)
	movl	%edx, 8(%esp)
	movl	%eax, 4(%esp)
	movl	%edi, (%esp)
	call	resolveAddressBits
	movl	-28(%ebp), %ecx
	movl	-24(%ebp), %eax
	subl	$4, %esp
	testl	%ecx, %ecx
	jne	.L1829
	movl	4(%eax), %edx
	movl	(%eax), %ecx
	leal	-40(%ebp), %eax
	movl	%eax, (%esp)
	movl	%esi, 20(%esp)
	movl	%edx, 12(%esp)
	movl	%ebx, 16(%esp)
	movl	%ecx, 8(%esp)
	movl	$0, 4(%esp)
	call	lookupSlotForCNodeOp
	movl	-40(%ebp), %edx
	movl	-36(%ebp), %eax
	subl	$4, %esp
	testl	%edx, %edx
	jne	.L1829
	movl	(%eax), %ecx
	movl	%ecx, %ebx
	movl	%ecx, %edx
	andl	$14, %ebx
	andl	$15, %edx
	movzbl	%cl, %ecx
	cmpl	$14, %ebx
	cmove	%ecx, %edx
	testl	%edx, %edx
	jne	.L1829
	leal	-12(%ebp), %esp
	popl	%ebx
	.cfi_remember_state
	.cfi_restore 3
	popl	%esi
	.cfi_restore 6
	popl	%edi
	.cfi_restore 7
	popl	%ebp
	.cfi_restore 5
	.cfi_def_cfa 4, 4
	ret
	.p2align 4,,7
	.p2align 3
.L1829:
	.cfi_restore_state
	leal	-12(%ebp), %esp
	xorl	%eax, %eax
	popl	%ebx
	.cfi_restore 3
	popl	%esi
	.cfi_restore 6
	popl	%edi
	.cfi_restore 7
	popl	%ebp
	.cfi_restore 5
	.cfi_def_cfa 4, 4
	ret
	.cfi_endproc
.LFE492:
	.size	getReceiveSlots, .-getReceiveSlots
	.p2align 4,,15
	.globl	loadCapTransfer
	.type	loadCapTransfer, @function
loadCapTransfer:
.LFB493:
	.cfi_startproc
	pushl	%ebx
	.cfi_def_cfa_offset 8
	.cfi_offset 3, -8
	movl	12(%esp), %edx
	movl	8(%esp), %eax
	movl	504(%edx), %ecx
	movl	%ecx, %ebx
	movl	508(%edx), %ecx
	movl	500(%edx), %edx
	movl	%ebx, 4(%eax)
	movl	%ecx, 8(%eax)
	movl	%edx, (%eax)
	popl	%ebx
	.cfi_restore 3
	.cfi_def_cfa_offset 4
	ret	$4
	.cfi_endproc
.LFE493:
	.size	loadCapTransfer, .-loadCapTransfer
	.p2align 4,,15
	.globl	replyFromKernel_error
	.type	replyFromKernel_error, @function
replyFromKernel_error:
.LFB498:
	.cfi_startproc
	pushl	%ebp
	.cfi_def_cfa_offset 8
	.cfi_offset 5, -8
	pushl	%edi
	.cfi_def_cfa_offset 12
	.cfi_offset 7, -12
	pushl	%esi
	.cfi_def_cfa_offset 16
	.cfi_offset 6, -16
	pushl	%ebx
	.cfi_def_cfa_offset 20
	.cfi_offset 3, -20
	subl	$12, %esp
	.cfi_def_cfa_offset 32
	movl	32(%esp), %edx
	movl	%edx, %ecx
	movl	636(%edx), %edi
	andl	$-1024, %ecx
	movl	64(%ecx), %eax
	movl	68(%ecx), %ebp
	movl	%eax, %esi
	movl	%eax, %ecx
	andl	$14, %esi
	andl	$15, %ecx
	movzbl	%al, %ebx
	cmpl	$14, %esi
	cmove	%ebx, %ecx
	cmpl	$1, %ecx
	jne	.L1851
	movl	%eax, %ecx
	xorl	%ebx, %ebx
	andl	$50331648, %ecx
	cmpl	$50331648, %ecx
	je	.L1859
.L1835:
	movl	current_syscall_error+24, %ecx
	movl	$0, 4(%edx)
	cmpl	$10, %ecx
	ja	.L1839
	jmp	*.L1841(,%ecx,4)
	.section	.rodata
	.align 4
	.align 4
.L1841:
	.long	.L1839
	.long	.L1840
	.long	.L1842
	.long	.L1854
	.long	.L1844
	.long	.L1854
	.long	.L1845
	.long	.L1854
	.long	.L1854
	.long	.L1854
	.long	.L1846
	.text
	.p2align 4,,7
	.p2align 3
.L1859:
	movl	%ebp, %ecx
	shrl	$31, %ecx
	testl	%ecx, %ecx
	je	.L1837
	cmpl	$1, %ecx
	jne	.L1839
	movl	$4194303, %ebx
.L1838:
	andl	$16777200, %eax
	andl	%ebx, %edi
	sall	$8, %eax
	leal	(%edi,%eax), %ebx
	jmp	.L1835
	.p2align 4,,7
	.p2align 3
.L1837:
	movl	$4095, %ebx
	jmp	.L1838
	.p2align 4,,7
	.p2align 3
.L1839:
	call	halt
	.p2align 4,,7
	.p2align 3
.L1851:
	xorl	%ebx, %ebx
	jmp	.L1835
	.p2align 4,,7
	.p2align 3
.L1854:
	movl	%ecx, %eax
	xorl	%ecx, %ecx
.L1843:
	sall	$12, %eax
	orl	%ecx, %eax
	movl	%eax, 16(%edx)
	addl	$12, %esp
	.cfi_remember_state
	.cfi_def_cfa_offset 20
	popl	%ebx
	.cfi_restore 3
	.cfi_def_cfa_offset 16
	popl	%esi
	.cfi_restore 6
	.cfi_def_cfa_offset 12
	popl	%edi
	.cfi_restore 7
	.cfi_def_cfa_offset 8
	popl	%ebp
	.cfi_restore 5
	.cfi_def_cfa_offset 4
	ret
	.p2align 4,,7
	.p2align 3
.L1840:
	.cfi_restore_state
	movl	current_syscall_error, %eax
	movl	%eax, 20(%edx)
	movl	$1, %eax
	sall	$12, %eax
	orl	%ecx, %eax
	movl	%eax, 16(%edx)
	addl	$12, %esp
	.cfi_remember_state
	.cfi_def_cfa_offset 20
	popl	%ebx
	.cfi_restore 3
	.cfi_def_cfa_offset 16
	popl	%esi
	.cfi_restore 6
	.cfi_def_cfa_offset 12
	popl	%edi
	.cfi_restore 7
	.cfi_def_cfa_offset 8
	popl	%ebp
	.cfi_restore 5
	.cfi_def_cfa_offset 4
	ret
	.p2align 4,,7
	.p2align 3
.L1842:
	.cfi_restore_state
	movl	current_syscall_error+4, %eax
	movl	$1, %ecx
	movl	%eax, 20(%edx)
	movl	$2, %eax
	sall	$12, %eax
	orl	%ecx, %eax
	movl	%eax, 16(%edx)
	addl	$12, %esp
	.cfi_remember_state
	.cfi_def_cfa_offset 20
	popl	%ebx
	.cfi_restore 3
	.cfi_def_cfa_offset 16
	popl	%esi
	.cfi_restore 6
	.cfi_def_cfa_offset 12
	popl	%edi
	.cfi_restore 7
	.cfi_def_cfa_offset 8
	popl	%ebp
	.cfi_restore 5
	.cfi_def_cfa_offset 4
	ret
	.p2align 4,,7
	.p2align 3
.L1846:
	.cfi_restore_state
	movl	current_syscall_error+16, %eax
	xorl	%ecx, %ecx
	movl	%eax, 20(%edx)
	movl	$10, %eax
	sall	$12, %eax
	orl	%ecx, %eax
	movl	%eax, 16(%edx)
	addl	$12, %esp
	.cfi_remember_state
	.cfi_def_cfa_offset 20
	popl	%ebx
	.cfi_restore 3
	.cfi_def_cfa_offset 16
	popl	%esi
	.cfi_restore 6
	.cfi_def_cfa_offset 12
	popl	%edi
	.cfi_restore 7
	.cfi_def_cfa_offset 8
	popl	%ebp
	.cfi_restore 5
	.cfi_def_cfa_offset 4
	ret
	.p2align 4,,7
	.p2align 3
.L1845:
	.cfi_restore_state
	movl	current_syscall_error+20, %ecx
	xorl	%eax, %eax
	movl	current_lookup_fault+4, %edi
	testl	%ecx, %ecx
	movl	current_lookup_fault, %ecx
	setne	%al
	movl	%eax, 20(%edx)
	movl	%ecx, %eax
	andl	$3, %eax
	testl	%ebx, %ebx
	leal	1(%eax), %esi
	movl	%esi, 24(%edx)
	je	.L1857
	cmpl	$2, %eax
	je	.L1848
	cmpl	$3, %eax
	je	.L1849
	cmpl	$1, %eax
	.p2align 4,,2
	je	.L1860
.L1857:
	movl	$2, %ecx
	movl	$6, %eax
	jmp	.L1843
	.p2align 4,,7
	.p2align 3
.L1844:
	movl	current_syscall_error+8, %eax
	movl	$2, %ecx
	movl	%eax, 20(%edx)
	movl	current_syscall_error+12, %eax
	movl	%eax, 24(%edx)
	movl	$4, %eax
	sall	$12, %eax
	orl	%ecx, %eax
	movl	%eax, 16(%edx)
	addl	$12, %esp
	.cfi_remember_state
	.cfi_def_cfa_offset 20
	popl	%ebx
	.cfi_restore 3
	.cfi_def_cfa_offset 16
	popl	%esi
	.cfi_restore 6
	.cfi_def_cfa_offset 12
	popl	%edi
	.cfi_restore 7
	.cfi_def_cfa_offset 8
	popl	%ebp
	.cfi_restore 5
	.cfi_def_cfa_offset 4
	ret
	.p2align 4,,7
	.p2align 3
.L1849:
	.cfi_restore_state
	movl	%ecx, %eax
	andl	$252, %ecx
	andl	$16128, %eax
	shrl	$8, %eax
	shrl	$2, %ecx
	movl	%ecx, 20(%ebx)
	movl	$5, %ecx
	movl	%eax, 12(%ebx)
	movl	%edi, 16(%ebx)
	movl	current_syscall_error+24, %eax
	jmp	.L1843
	.p2align 4,,7
	.p2align 3
.L1848:
	movl	%ecx, %eax
	andl	$16128, %ecx
	andl	$252, %eax
