	.file	"kernel_final.c"
	.text
.Ltext0:
	.p2align 4,,15
	.type	fastpath_restore, @function
fastpath_restore:
.LFB291:
	.file 1 "/home/mscapero/Desktop/sel4-benchmark/sel4test-manifest/kernel/src/arch/ia32/fastpath/fastpath.c"
	.loc 1 196 0
	.cfi_startproc
.LVL0:
	pushl	%esi
	.cfi_def_cfa_offset 8
	.cfi_offset 6, -8
	.loc 1 197 0
	movl	ksCurThread, %eax
	.loc 1 196 0
	movl	%edx, %esi
	pushl	%ebx
	.cfi_def_cfa_offset 12
	.cfi_offset 3, -12
	.loc 1 196 0
	movl	%ecx, %ebx
	.loc 1 197 0
	movl	ia32KSfpuOwner, %ecx
.LVL1:
	cmpl	%ecx, %eax
	je	.L12
	.loc 1 200 0
	testl	%ecx, %ecx
	jne	.L13
.L3:
.LVL2:
	.loc 1 208 0
	andl	$-513, 64(%eax)
.LVL3:
.LBB3391:
.LBB3392:
	.loc 1 190 0
	cmpl	$35, 28(%eax)
.LBE3392:
.LBE3391:
	.loc 1 207 0
	leal	76(%eax), %ecx
.LVL4:
	movl	%ecx, ia32KStss+4
.LBB3395:
.LBB3393:
	.loc 1 190 0
	je	.L14
.L4:
.LBE3393:
.LBE3395:
	.loc 1 250 0
	leal	20(%eax), %ecx
.LVL5:
	.loc 1 233 0
	movl	(%eax), %eax
.LVL6:
#APP
# 233 "/home/mscapero/Desktop/sel4-benchmark/sel4test-manifest/kernel/src/arch/ia32/fastpath/fastpath.c" 1
	                movl %ecx, %esp 
                popl %edi 
                popl %ebp 
                popl %ds 
                popl %es 
                popl %fs 
                popl %gs 
                addl $20, %esp 
                popfl 
                orl $0x200, 44(%ecx) 
                movl 36(%ecx), %edx 
                pop %ecx 
                sti 
                sysexit 
            
# 0 "" 2
#NO_APP
.L8:
.L7:
	jmp	.L7
.LVL7:
.L14:
.LBB3396:
.LBB3394:
	.loc 1 190 0
	cmpl	$35, 32(%eax)
	jne	.L4
.LBE3394:
.LBE3396:
	.loc 1 226 0
	leal	20(%eax), %ecx
.LVL8:
	.loc 1 210 0
	movl	(%eax), %eax
.LVL9:
#APP
# 210 "/home/mscapero/Desktop/sel4-benchmark/sel4test-manifest/kernel/src/arch/ia32/fastpath/fastpath.c" 1
	                movl %ecx, %esp 
                popl %edi 
                popl %ebp 
                addl $8, %esp 
                popl %fs 
                popl %gs 
                addl $20, %esp 
                popfl 
                orl $0x200, 44(%ecx) 
                movl 36(%ecx), %edx 
                pop %ecx 
                sti 
                sysexit 
            
# 0 "" 2
#NO_APP
	jmp	.L8
.LVL10:
.L13:
.LBB3397:
.LBB3398:
.LBB3399:
.LBB3400:
	.file 2 "/home/mscapero/Desktop/sel4-benchmark/sel4test-manifest/kernel/include/arch/ia32/arch/machine/cpu_registers.h"
	.loc 2 41 0
#APP
# 41 "/home/mscapero/Desktop/sel4-benchmark/sel4test-manifest/kernel/include/arch/ia32/arch/machine/cpu_registers.h" 1
	movl %cr0, %ecx
# 0 "" 2
.LVL11:
#NO_APP
.LBE3400:
.LBE3399:
	.file 3 "/home/mscapero/Desktop/sel4-benchmark/sel4test-manifest/kernel/include/arch/ia32/arch/machine/fpu.h"
	.loc 3 53 0
	orl	$8, %ecx
.LVL12:
.LBB3401:
.LBB3402:
	.loc 2 47 0
#APP
# 47 "/home/mscapero/Desktop/sel4-benchmark/sel4test-manifest/kernel/include/arch/ia32/arch/machine/cpu_registers.h" 1
	movl %ecx, %cr0
# 0 "" 2
#NO_APP
	jmp	.L3
.LVL13:
.L12:
.LBE3402:
.LBE3401:
.LBE3398:
.LBE3397:
.LBB3403:
.LBB3404:
	.loc 3 45 0
#APP
# 45 "/home/mscapero/Desktop/sel4-benchmark/sel4test-manifest/kernel/include/arch/ia32/arch/machine/fpu.h" 1
	clts
# 0 "" 2
#NO_APP
	.p2align 4,,3
	jmp	.L3
.LBE3404:
.LBE3403:
	.cfi_endproc
.LFE291:
	.size	fastpath_restore, .-fastpath_restore
	.p2align 4,,15
	.type	findPDForASID, @function
findPDForASID:
.LFB367:
	.file 4 "/home/mscapero/Desktop/sel4-benchmark/sel4test-manifest/kernel/src/arch/ia32/kernel/vspace.c"
	.loc 4 1163 0
	.cfi_startproc
.LVL14:
	.loc 4 1168 0
	movl	%edx, %ecx
	shrl	$10, %ecx
	movl	ia32KSASIDTable(,%ecx,4), %ecx
.LVL15:
	.loc 4 1169 0
	testl	%ecx, %ecx
	je	.L18
	.loc 4 1177 0
	andl	$1023, %edx
.LVL16:
	movl	(%ecx,%edx,4), %edx
.LVL17:
	.loc 4 1178 0
	testl	%edx, %edx
	je	.L18
.LVL18:
	.loc 4 1188 0
	movl	$0, (%eax)
	movl	%edx, 4(%eax)
	.loc 4 1189 0
	ret
.LVL19:
	.p2align 4,,7
	.p2align 3
.L18:
	.loc 4 1170 0
	movl	$0, current_lookup_fault
	movl	$0, current_lookup_fault+4
.LVL20:
	.loc 4 1174 0
	movl	$2, (%eax)
	movl	$0, 4(%eax)
	ret
	.cfi_endproc
.LFE367:
	.size	findPDForASID, .-findPDForASID
	.p2align 4,,15
	.type	parse_opt.constprop.219, @function
parse_opt.constprop.219:
.LFB935:
	.file 5 "/home/mscapero/Desktop/sel4-benchmark/sel4test-manifest/kernel/src/arch/ia32/kernel/cmdline.c"
	.loc 5 35 0
	.cfi_startproc
.LVL21:
	pushl	%edi
	.cfi_def_cfa_offset 8
	.cfi_offset 7, -8
	movl	%eax, %ecx
	pushl	%esi
	.cfi_def_cfa_offset 12
	.cfi_offset 6, -12
	movl	%edx, %esi
	pushl	%ebx
	.cfi_def_cfa_offset 16
	.cfi_offset 3, -16
	movzbl	(%eax), %ebx
	.loc 5 37 0
	movl	$-1, %eax
.LVL22:
	.p2align 4,,7
	.p2align 3
.L23:
	.loc 5 41 0
	cmpb	$32, %bl
	jg	.L51
	testb	%bl, %bl
	jne	.L28
	.loc 5 62 0
	popl	%ebx
	.cfi_remember_state
	.cfi_restore 3
	.cfi_def_cfa_offset 12
	popl	%esi
	.cfi_restore 6
	.cfi_def_cfa_offset 8
.LVL23:
	popl	%edi
	.cfi_restore 7
	.cfi_def_cfa_offset 4
	ret
.LVL24:
	.p2align 4,,7
	.p2align 3
.L51:
	.cfi_restore_state
	.loc 5 46 0
	movzbl	(%esi), %edx
	testb	%dl, %dl
	.p2align 4,,2
	je	.L25
	cmpb	$61, %bl
	je	.L39
.LVL25:
	cmpb	%bl, %dl
	jne	.L39
	movl	%esi, %ebx
	.p2align 4,,4
	jmp	.L31
.LVL26:
	.p2align 4,,7
	.p2align 3
.L30:
	movzbl	1(%ecx), %ecx
	cmpb	$61, %cl
	je	.L40
.LVL27:
	cmpb	$32, %cl
	jle	.L42
	cmpb	%cl, %dl
	jne	.L42
	movl	%edi, %ecx
.LVL28:
.L31:
	addl	$1, %ebx
.LVL29:
	movzbl	(%ebx), %edx
	leal	1(%ecx), %edi
.LVL30:
	testb	%dl, %dl
	jne	.L30
.LVL31:
	movzbl	1(%ecx), %ebx
.LVL32:
	movl	%edi, %ecx
.LVL33:
.L25:
	.loc 5 48 0
	cmpb	$61, %bl
	je	.L52
.LVL34:
	.p2align 4,,7
	.p2align 3
.L37:
	.loc 5 58 0
	cmpb	$32, %bl
	jle	.L23
.LVL35:
	.p2align 4,,7
	.p2align 3
.L36:
	addl	$1, %ecx
.LVL36:
	movzbl	(%ecx), %ebx
.LVL37:
	cmpb	$32, %bl
	jg	.L36
	jmp	.L23
.LVL38:
	.p2align 4,,7
	.p2align 3
.L28:
	movzbl	1(%ecx), %ebx
	.loc 5 41 0
	addl	$1, %ecx
.LVL39:
	jmp	.L23
.LVL40:
	.p2align 4,,7
	.p2align 3
.L42:
	.loc 5 46 0
	movl	%ecx, %ebx
.LVL41:
	.loc 5 51 0
	movl	%edi, %ecx
.LVL42:
	jmp	.L37
.LVL43:
	.p2align 4,,7
	.p2align 3
.L40:
	.loc 5 46 0
	movl	$61, %ebx
.LVL44:
	.loc 5 51 0
	movl	%edi, %ecx
	jmp	.L37
.LVL45:
.L52:
	.loc 5 49 0
	leal	1(%ecx), %edx
.LVL46:
	.loc 5 51 0
	movzbl	1(%ecx), %ecx
.LVL47:
	cmpb	$32, %cl
	jle	.L43
	xorl	%eax, %eax
	jmp	.L34
.LVL48:
	.p2align 4,,7
	.p2align 3
.L33:
	cmpl	$999, %eax
	je	.L53
.LVL49:
.L34:
	addl	$1, %edx
.LVL50:
	addl	$1, %eax
.LVL51:
	.loc 5 52 0
	movb	%cl, cmdline_val-1(%eax)
.LVL52:
	.loc 5 51 0
	movzbl	(%edx), %ecx
.LVL53:
	cmpb	$32, %cl
	jg	.L33
	leal	cmdline_val(%eax), %ecx
.LVL54:
.L32:
	.loc 5 55 0
	movb	$0, (%ecx)
.LVL55:
	movl	%edx, %ecx
	movzbl	(%edx), %ebx
	jmp	.L37
.LVL56:
.L53:
	.loc 5 51 0
	movl	$cmdline_val+999, %ecx
.LVL57:
	jmp	.L32
.LVL58:
.L39:
	.loc 5 46 0
	movl	%ecx, %edi
	.loc 5 51 0
	movl	%edi, %ecx
	jmp	.L37
.LVL59:
.L43:
	movl	$cmdline_val, %ecx
.LVL60:
	xorl	%eax, %eax
	jmp	.L32
	.cfi_endproc
.LFE935:
	.size	parse_opt.constprop.219, .-parse_opt.constprop.219
	.p2align 4,,15
	.type	putDebugChar.constprop.247, @function
putDebugChar.constprop.247:
.LFB907:
	.file 6 "/home/mscapero/Desktop/sel4-benchmark/sel4test-manifest/kernel/src/plat/pc99/machine/debug_helpers.c"
	.loc 6 25 0
	.cfi_startproc
	subl	$28, %esp
	.cfi_def_cfa_offset 32
	.p2align 4,,7
	.p2align 3
.L56:
	.loc 6 27 0
	movzwl	ia32KSdebugPort, %eax
	addl	$5, %eax
	movzwl	%ax, %eax
	movl	%eax, (%esp)
	call	in8
.LVL61:
	testb	$32, %al
	je	.L56
	.loc 6 28 0
	movzwl	ia32KSdebugPort, %eax
	movl	$187, 4(%esp)
	movl	%eax, (%esp)
	call	out8
.LVL62:
	.loc 6 29 0
	addl	$28, %esp
	.cfi_def_cfa_offset 4
	ret
	.cfi_endproc
.LFE907:
	.size	putDebugChar.constprop.247, .-putDebugChar.constprop.247
	.p2align 4,,15
	.globl	restore_user_context
	.type	restore_user_context, @function
restore_user_context:
.LFB273:
	.file 7 "/home/mscapero/Desktop/sel4-benchmark/sel4test-manifest/kernel/src/arch/ia32/c_traps.c"
	.loc 7 21 0
	.cfi_startproc
	.loc 7 23 0
	movl	ksCurThread, %eax
.LVL63:
	leal	76(%eax), %edx
.LVL64:
	movl	%edx, ia32KStss+4
	.loc 7 24 0
	movl	ia32KSfpuOwner, %edx
.LVL65:
	cmpl	%edx, %eax
	je	.L66
	.loc 7 27 0
	testl	%edx, %edx
	jne	.L67
.L60:
	.loc 7 35 0
	cmpl	$-1, 52(%eax)
	jne	.L61
	.loc 7 36 0
	andl	$-513, 64(%eax)
	.loc 7 37 0
#APP
# 37 "/home/mscapero/Desktop/sel4-benchmark/sel4test-manifest/kernel/src/arch/ia32/c_traps.c" 1
	movl %eax, %esp
popl %eax
popl %ebx
addl $8, %esp
popl %esi
popl %edi
popl %ebp
cmpl $0x23, (%esp)
je 1f
popl %ds
jmp 2f
1: addl $4, %esp
2:
cmpl $0x23, (%esp)
je 1f
popl %es
jmp 2f
1: addl $4, %esp
2:
popl %fs
popl %gs
addl $12, %esp
popl %edx
addl $4,  %esp
popfl
orl $0x200, -4(%esp)
pop %ecx
sti
sysexit

# 0 "" 2
#NO_APP
.L63:
.L62:
	jmp	.L62
.L61:
	.loc 7 89 0
#APP
# 89 "/home/mscapero/Desktop/sel4-benchmark/sel4test-manifest/kernel/src/arch/ia32/c_traps.c" 1
	movl %eax, %esp
popl %eax
popl %ebx
popl %ecx
popl %edx
popl %esi
popl %edi
popl %ebp
popl %ds
popl %es
popl %fs
popl %gs
addl $12, %esp
iret

# 0 "" 2
#NO_APP
	jmp	.L63
.L67:
.LBB3411:
.LBB3412:
.LBB3413:
.LBB3414:
	.loc 2 41 0
#APP
# 41 "/home/mscapero/Desktop/sel4-benchmark/sel4test-manifest/kernel/include/arch/ia32/arch/machine/cpu_registers.h" 1
	movl %cr0, %edx
# 0 "" 2
.LVL66:
#NO_APP
.LBE3414:
.LBE3413:
	.loc 3 53 0
	orl	$8, %edx
.LVL67:
.LBB3415:
.LBB3416:
	.loc 2 47 0
#APP
# 47 "/home/mscapero/Desktop/sel4-benchmark/sel4test-manifest/kernel/include/arch/ia32/arch/machine/cpu_registers.h" 1
	movl %edx, %cr0
# 0 "" 2
#NO_APP
	jmp	.L60
.LVL68:
.L66:
.LBE3416:
.LBE3415:
.LBE3412:
.LBE3411:
.LBB3417:
.LBB3418:
	.loc 3 45 0
#APP
# 45 "/home/mscapero/Desktop/sel4-benchmark/sel4test-manifest/kernel/include/arch/ia32/arch/machine/fpu.h" 1
	clts
# 0 "" 2
#NO_APP
	.p2align 4,,8
	jmp	.L60
.LBE3418:
.LBE3417:
	.cfi_endproc
.LFE273:
	.size	restore_user_context, .-restore_user_context
	.p2align 4,,15
	.globl	apic_is_interrupt_pending
	.type	apic_is_interrupt_pending, @function
apic_is_interrupt_pending:
.LFB301:
	.file 8 "/home/mscapero/Desktop/sel4-benchmark/sel4test-manifest/kernel/src/arch/ia32/kernel/apic.c"
	.loc 8 198 0
	.cfi_startproc
.LVL69:
.LBB3419:
.LBB3420:
	.loc 8 63 0
	movl	-65008, %eax
.LBE3420:
.LBE3419:
	.loc 8 204 0
	testl	%eax, %eax
	setne	%al
	movzbl	%al, %eax
	.loc 8 209 0
	ret
	.cfi_endproc
.LFE301:
	.size	apic_is_interrupt_pending, .-apic_is_interrupt_pending
	.p2align 4,,15
	.globl	apic_ack_active_interrupt
	.type	apic_ack_active_interrupt, @function
apic_ack_active_interrupt:
.LFB302:
	.loc 8 212 0
	.cfi_startproc
.LVL70:
.LBB3421:
.LBB3422:
	.loc 8 69 0
	movl	$0, -65360
	ret
.LBE3422:
.LBE3421:
	.cfi_endproc
.LFE302:
	.size	apic_ack_active_interrupt, .-apic_ack_active_interrupt
	.p2align 4,,15
	.globl	in_boot_phase
	.type	in_boot_phase, @function
in_boot_phase:
.LFB315:
	.file 9 "/home/mscapero/Desktop/sel4-benchmark/sel4test-manifest/kernel/src/arch/ia32/kernel/boot_sys.c"
	.loc 9 119 0
	.cfi_startproc
	subl	$12, %esp
	.cfi_def_cfa_offset 16
	.loc 9 120 0
	call	get_current_esp
.LVL71:
.LBB3425:
.LBB3426:
	.file 10 "/home/mscapero/Desktop/sel4-benchmark/sel4test-manifest/kernel/include/plat/pc99/plat/machine/hardware.h"
	.loc 10 41 0
	leal	536870912(%eax), %edx
.LBE3426:
.LBE3425:
	movl	$1, %eax
.LVL72:
	.loc 9 122 0
	cmpl	$524288, %edx
	jbe	.L71
	xorb	%al, %al
	.loc 9 122 0 is_stmt 0 discriminator 2
	cmpl	$_boot_stack_top, %edx
	ja	.L71
	.loc 9 123 0 is_stmt 1
	xorl	%eax, %eax
	cmpl	$_boot_stack_bottom, %edx
	seta	%al
.L71:
	.loc 9 124 0 discriminator 4
	addl	$12, %esp
	.cfi_def_cfa_offset 4
	ret
	.cfi_endproc
.LFE315:
	.size	in_boot_phase, .-in_boot_phase
	.section	.boot.text,"ax",@progbits
	.p2align 4,,15
	.globl	console_port_of_node
	.type	console_port_of_node, @function
console_port_of_node:
.LFB316:
	.loc 9 128 0
	.cfi_startproc
.LVL73:
	.loc 9 129 0
	movl	4(%esp), %eax
	movzwl	cmdline_opt(%eax,%eax), %eax
	.loc 9 130 0
	ret
	.cfi_endproc
.LFE316:
	.size	console_port_of_node, .-console_port_of_node
	.p2align 4,,15
	.globl	debug_port_of_node
	.type	debug_port_of_node, @function
debug_port_of_node:
.LFB317:
	.loc 9 134 0
	.cfi_startproc
.LVL74:
	.loc 9 135 0
	movl	4(%esp), %eax
	movzwl	cmdline_opt+80(%eax,%eax), %eax
	.loc 9 136 0
	ret
	.cfi_endproc
.LFE317:
	.size	debug_port_of_node, .-debug_port_of_node
	.p2align 4,,15
	.globl	cur_cpu_id
	.type	cur_cpu_id, @function
cur_cpu_id:
.LFB320:
	.loc 9 224 0
	.cfi_startproc
	subl	$12, %esp
	.cfi_def_cfa_offset 16
	.loc 9 226 0
	call	get_current_esp
.LVL75:
.LBB3429:
.LBB3430:
	.loc 10 41 0
	addl	$536870912, %eax
.LVL76:
.LBE3430:
.LBE3429:
	.loc 9 228 0
	cmpl	$_boot_stack_top, %eax
	ja	.L78
	.loc 9 228 0 is_stmt 0 discriminator 1
	cmpl	$_boot_stack_bottom, %eax
	ja	.L81
.L78:
	.loc 9 231 0 is_stmt 1
	shrl	$11, %eax
.LVL77:
	.loc 9 235 0
	addl	$12, %esp
	.cfi_remember_state
	.cfi_def_cfa_offset 4
	ret
.LVL78:
	.p2align 4,,7
	.p2align 3
.L81:
	.cfi_restore_state
	.loc 9 229 0
	movl	glks+28, %eax
.LVL79:
	.loc 9 235 0
	addl	$12, %esp
	.cfi_def_cfa_offset 4
	ret
	.cfi_endproc
.LFE320:
	.size	cur_cpu_id, .-cur_cpu_id
	.p2align 4,,15
	.globl	elf32_checkFile
	.type	elf32_checkFile, @function
elf32_checkFile:
.LFB334:
	.file 11 "/home/mscapero/Desktop/sel4-benchmark/sel4test-manifest/kernel/src/arch/ia32/kernel/elf.c"
	.loc 11 18 0
	.cfi_startproc
.LVL80:
	.loc 11 18 0
	movl	4(%esp), %edx
	xorl	%eax, %eax
	.loc 11 23 0
	cmpl	$1179403647, (%edx)
	je	.L85
	.loc 11 26 0
	rep ret
	.p2align 4,,7
	.p2align 3
.L85:
	.loc 11 23 0 discriminator 1
	xorl	%eax, %eax
	cmpb	$1, 4(%edx)
	sete	%al
	.loc 11 26 0 discriminator 1
	ret
	.cfi_endproc
.LFE334:
	.size	elf32_checkFile, .-elf32_checkFile
	.p2align 4,,15
	.globl	elf32_getMemoryBounds
	.type	elf32_getMemoryBounds, @function
elf32_getMemoryBounds:
.LFB335:
	.loc 11 30 0
	.cfi_startproc
.LVL81:
	pushl	%ebp
	.cfi_def_cfa_offset 8
	.cfi_offset 5, -8
	pushl	%edi
	.cfi_def_cfa_offset 12
	.cfi_offset 7, -12
	pushl	%esi
	.cfi_def_cfa_offset 16
	.cfi_offset 6, -16
	pushl	%ebx
	.cfi_def_cfa_offset 20
	.cfi_offset 3, -20
	.loc 11 30 0
	movl	24(%esp), %edx
	movl	20(%esp), %eax
	.loc 11 31 0
	movl	28(%edx), %ebx
	.loc 11 41 0
	movzwl	44(%edx), %ecx
	.loc 11 31 0
	addl	%edx, %ebx
.LVL82:
	.loc 11 41 0
	testw	%cx, %cx
	je	.L90
	sall	$5, %ecx
	.loc 11 37 0
	movl	$-1, %edi
	leal	20(%ebx), %edx
	.loc 11 38 0
	xorl	%esi, %esi
	leal	20(%ebx,%ecx), %ebp
.LVL83:
	.p2align 4,,7
	.p2align 3
.L89:
	.loc 11 42 0
	movl	(%edx), %ecx
	testl	%ecx, %ecx
	je	.L88
	.loc 11 43 0
	movl	-12(%edx), %ebx
.LVL84:
	.loc 11 44 0
	addl	%ebx, %ecx
.LVL85:
	cmpl	%ebx, %edi
	cmova	%ebx, %edi
.LVL86:
	cmpl	%ecx, %esi
	cmovb	%ecx, %esi
.LVL87:
.L88:
	addl	$32, %edx
	.loc 11 41 0
	cmpl	%ebp, %edx
	jne	.L89
.LVL88:
.L87:
	.loc 11 54 0
	movl	%edi, (%eax)
	movl	%esi, 4(%eax)
	.loc 11 55 0
	popl	%ebx
	.cfi_remember_state
	.cfi_restore 3
	.cfi_def_cfa_offset 16
	popl	%esi
	.cfi_restore 6
	.cfi_def_cfa_offset 12
	popl	%edi
	.cfi_restore 7
	.cfi_def_cfa_offset 8
	popl	%ebp
	.cfi_restore 5
	.cfi_def_cfa_offset 4
	ret	$4
.LVL89:
.L90:
	.cfi_restore_state
	.loc 11 37 0
	movl	$-1, %edi
	.loc 11 38 0
	xorl	%esi, %esi
	jmp	.L87
	.cfi_endproc
.LFE335:
	.size	elf32_getMemoryBounds, .-elf32_getMemoryBounds
	.p2align 4,,15
	.globl	Arch_configureIdleThread
	.type	Arch_configureIdleThread, @function
Arch_configureIdleThread:
.LFB338:
	.file 12 "/home/mscapero/Desktop/sel4-benchmark/sel4test-manifest/kernel/src/arch/ia32/kernel/thread.c"
	.loc 12 41 0
	.cfi_startproc
.LVL90:
	.loc 12 41 0
	movl	4(%esp), %eax
.LVL91:
.LBB3431:
.LBB3432:
	.file 13 "/home/mscapero/Desktop/sel4-benchmark/sel4test-manifest/kernel/include/machine/registerset.h"
	.loc 13 21 0
	movl	$514, 64(%eax)
.LVL92:
.LBE3432:
.LBE3431:
.LBB3433:
.LBB3434:
	movl	$idle_thread, 56(%eax)
.LVL93:
.LBE3434:
.LBE3433:
.LBB3435:
.LBB3436:
	movl	$8, 60(%eax)
.LVL94:
.LBE3436:
.LBE3435:
.LBB3437:
.LBB3438:
	movl	$16, 28(%eax)
.LVL95:
.LBE3438:
.LBE3437:
.LBB3439:
.LBB3440:
	movl	$16, 32(%eax)
.LVL96:
.LBE3440:
.LBE3439:
.LBB3441:
.LBB3442:
	movl	$16, 36(%eax)
.LVL97:
.LBE3442:
.LBE3441:
.LBB3443:
.LBB3444:
	movl	$16, 40(%eax)
.LVL98:
.LBE3444:
.LBE3443:
.LBB3445:
.LBB3446:
	movl	$16, 72(%eax)
	ret
.LBE3446:
.LBE3445:
	.cfi_endproc
.LFE338:
	.size	Arch_configureIdleThread, .-Arch_configureIdleThread
	.text
	.p2align 4,,15
	.globl	Arch_switchToIdleThread
	.type	Arch_switchToIdleThread, @function
Arch_switchToIdleThread:
.LFB339:
	.loc 12 54 0
	.cfi_startproc
	rep ret
	.cfi_endproc
.LFE339:
	.size	Arch_switchToIdleThread, .-Arch_switchToIdleThread
	.p2align 4,,15
	.globl	Arch_activateIdleThread
	.type	Arch_activateIdleThread, @function
Arch_activateIdleThread:
.LFB340:
	.loc 12 60 0
	.cfi_startproc
.LVL99:
	rep ret
	.cfi_endproc
.LFE340:
	.size	Arch_activateIdleThread, .-Arch_activateIdleThread
	.section	.phys.text,"ax",@progbits
	.p2align 4,,15
	.globl	init_boot_pd
	.type	init_boot_pd, @function
init_boot_pd:
.LFB342:
	.loc 4 76 0
	.cfi_startproc
.LVL100:
	.loc 4 80 0
	xorl	%eax, %eax
.LVL101:
	.p2align 4,,7
	.p2align 3
.L100:
	.loc 4 81 0
	movl	%eax, %edx
	sall	$22, %edx
.LVL102:
.LBB3451:
.LBB3452:
	.loc 4 71 0
	orl	$387, %edx
.LVL103:
	movl	%edx, _boot_pd(,%eax,4)
.LBE3452:
.LBE3451:
	.loc 4 80 0
	addl	$1, %eax
.LVL104:
	cmpl	$896, %eax
	jne	.L100
	xorw	%ax, %ax
.LVL105:
	.p2align 4,,7
	.p2align 3
.L102:
	.loc 4 99 0
	movl	%eax, %edx
	sall	$22, %edx
.LVL106:
.LBB3453:
.LBB3454:
	.loc 4 71 0
	orl	$387, %edx
.LVL107:
	movl	%edx, _boot_pd+3584(,%eax,4)
.LBE3454:
.LBE3453:
	.loc 4 98 0
	addl	$1, %eax
.LVL108:
	cmpl	$128, %eax
	jne	.L102
	.loc 4 114 0
	rep ret
	.cfi_endproc
.LFE342:
	.size	init_boot_pd, .-init_boot_pd
	.section	.boot.text
	.p2align 4,,15
	.globl	init_dtrs
	.type	init_dtrs, @function
init_dtrs:
.LFB350:
	.loc 4 846 0
	.cfi_startproc
	.loc 4 848 0
	movl	$63, %eax
	.loc 4 846 0
	subl	$28, %esp
	.cfi_def_cfa_offset 32
	.loc 4 848 0
	movw	%ax, gdt_idt_ptr
	.loc 4 849 0
	movl	$ia32KSgdt, %eax
	movw	%ax, gdt_idt_ptr+2
	.loc 4 850 0
	shrl	$16, %eax
	.loc 4 851 0
	movl	$gdt_idt_ptr, (%esp)
	.loc 4 850 0
	movw	%ax, gdt_idt_ptr+4
	.loc 4 851 0
	call	ia32_install_gdt
.LVL109:
	.loc 4 855 0
	movl	$ia32KSidt, %eax
	.loc 4 854 0
	movl	$2047, %edx
	.loc 4 855 0
	movw	%ax, gdt_idt_ptr+2
	.loc 4 856 0
	shrl	$16, %eax
	.loc 4 857 0
	movl	$gdt_idt_ptr, (%esp)
	.loc 4 854 0
	movw	%dx, gdt_idt_ptr
	.loc 4 856 0
	movw	%ax, gdt_idt_ptr+4
	.loc 4 857 0
	call	ia32_install_idt
.LVL110:
	.loc 4 860 0
	movl	$0, (%esp)
	call	ia32_install_ldt
.LVL111:
	.loc 4 863 0
	movl	$40, (%esp)
	call	ia32_install_tss
.LVL112:
	.loc 4 864 0
	addl	$28, %esp
	.cfi_def_cfa_offset 4
	ret
	.cfi_endproc
.LFE350:
	.size	init_dtrs, .-init_dtrs
	.text
	.p2align 4,,15
	.globl	maskVMRights
	.type	maskVMRights, @function
maskVMRights:
.LFB365:
	.loc 4 1127 0
	.cfi_startproc
.LVL113:
	.loc 4 1127 0
	movl	4(%esp), %edx
	.loc 4 1128 0
	cmpl	$2, %edx
	je	.L113
	.loc 4 1131 0
	cmpl	$3, %edx
	.loc 4 1138 0
	movl	$1, %eax
	.loc 4 1131 0
	je	.L114
.LVL114:
.L107:
	.loc 4 1139 0
	rep ret
	.p2align 4,,7
	.p2align 3
.L114:
.LVL115:
	.loc 4 1131 0 discriminator 1
	testb	$2, 8(%esp)
	je	.L107
.LVL116:
.LBB3455:
.LBB3456:
	.file 14 "./api/types_gen.h"
	.loc 14 125 0
	movl	8(%esp), %eax
	andl	$1, %eax
.LBE3456:
.LBE3455:
	.loc 4 1135 0
	cmpl	$1, %eax
	sbbl	%eax, %eax
	addl	$3, %eax
	.loc 4 1139 0
	ret
.LVL117:
	.p2align 4,,7
	.p2align 3
.L113:
.LBB3457:
.LBB3458:
	.loc 14 120 0 discriminator 1
	movl	8(%esp), %eax
	andl	$2, %eax
	shrl	%eax
.LBE3458:
.LBE3457:
	.loc 4 1129 0 discriminator 1
	cmpl	$1, %eax
	sbbl	%eax, %eax
	addl	$2, %eax
	ret
	.cfi_endproc
.LFE365:
	.size	maskVMRights, .-maskVMRights
	.p2align 4,,15
	.globl	copyGlobalMappings
	.type	copyGlobalMappings, @function
copyGlobalMappings:
.LFB373:
	.loc 4 1348 0
	.cfi_startproc
.LVL118:
	pushl	%ebx
	.cfi_def_cfa_offset 8
	.cfi_offset 3, -8
	movl	ia32KSkernelPD, %ecx
	.loc 4 1351 0
	movl	$896, %eax
	.loc 4 1348 0
	movl	8(%esp), %ebx
.LVL119:
	.p2align 4,,7
	.p2align 3
.L117:
	.loc 4 1352 0 discriminator 2
	movl	(%ecx,%eax,4), %edx
	movl	%edx, (%ebx,%eax,4)
	.loc 4 1351 0 discriminator 2
	addl	$1, %eax
.LVL120:
	cmpl	$1024, %eax
	jne	.L117
	.loc 4 1354 0
	popl	%ebx
	.cfi_restore 3
	.cfi_def_cfa_offset 4
	ret
	.cfi_endproc
.LFE373:
	.size	copyGlobalMappings, .-copyGlobalMappings
	.p2align 4,,15
	.globl	Arch_initFpuContext
	.type	Arch_initFpuContext, @function
Arch_initFpuContext:
.LFB395:
	.file 15 "/home/mscapero/Desktop/sel4-benchmark/sel4test-manifest/kernel/src/arch/ia32/machine/fpu.c"
	.loc 15 24 0
	.cfi_startproc
.LVL121:
	pushl	%edi
	.cfi_def_cfa_offset 8
	.cfi_offset 7, -8
	.loc 15 25 0
	movl	$128, %ecx
	.loc 15 24 0
	pushl	%esi
	.cfi_def_cfa_offset 12
	.cfi_offset 6, -12
	.loc 15 25 0
	movl	12(%esp), %eax
	movl	$ia32KSnullFpuState, %esi
	leal	80(%eax), %edi
	rep movsl
	.loc 15 26 0
	popl	%esi
	.cfi_restore 6
	.cfi_def_cfa_offset 8
	popl	%edi
	.cfi_restore 7
	.cfi_def_cfa_offset 4
	ret
	.cfi_endproc
.LFE395:
	.size	Arch_initFpuContext, .-Arch_initFpuContext
	.p2align 4,,15
	.globl	Arch_fpuThreadDelete
	.type	Arch_fpuThreadDelete, @function
Arch_fpuThreadDelete:
.LFB398:
	.loc 15 75 0
	.cfi_startproc
.LVL122:
	subl	$28, %esp
	.cfi_def_cfa_offset 32
	.loc 15 80 0
	movl	ia32KSfpuOwner, %eax
	cmpl	32(%esp), %eax
	je	.L128
	.loc 15 83 0
	addl	$28, %esp
	.cfi_remember_state
	.cfi_def_cfa_offset 4
	ret
	.p2align 4,,7
	.p2align 3
.L128:
	.cfi_restore_state
.LVL123:
.LBB3469:
.LBB3470:
.LBB3471:
.LBB3472:
	.loc 3 45 0
#APP
# 45 "/home/mscapero/Desktop/sel4-benchmark/sel4test-manifest/kernel/include/arch/ia32/arch/machine/fpu.h" 1
	clts
# 0 "" 2
#NO_APP
.LBE3472:
.LBE3471:
	.loc 15 35 0
	testl	%eax, %eax
	je	.L123
	.loc 15 36 0
	addl	$80, %eax
	movl	%eax, (%esp)
	call	saveFpuState
.LVL124:
.L123:
.LBB3473:
.LBB3474:
.LBB3475:
.LBB3476:
	.loc 2 41 0
#APP
# 41 "/home/mscapero/Desktop/sel4-benchmark/sel4test-manifest/kernel/include/arch/ia32/arch/machine/cpu_registers.h" 1
	movl %cr0, %eax
# 0 "" 2
.LVL125:
#NO_APP
.LBE3476:
.LBE3475:
	.loc 3 53 0
	orl	$8, %eax
.LVL126:
.LBB3477:
.LBB3478:
	.loc 2 47 0
#APP
# 47 "/home/mscapero/Desktop/sel4-benchmark/sel4test-manifest/kernel/include/arch/ia32/arch/machine/cpu_registers.h" 1
	movl %eax, %cr0
# 0 "" 2
#NO_APP
.LBE3478:
.LBE3477:
.LBE3474:
.LBE3473:
	.loc 15 43 0
	movl	$0, ia32KSfpuOwner
.LBE3470:
.LBE3469:
	.loc 15 83 0
	addl	$28, %esp
	.cfi_def_cfa_offset 4
	ret
	.cfi_endproc
.LFE398:
	.size	Arch_fpuThreadDelete, .-Arch_fpuThreadDelete
	.section	.boot.text
	.p2align 4,,15
	.globl	Arch_initFpu
	.type	Arch_initFpu, @function
Arch_initFpu:
.LFB399:
	.loc 15 90 0
	.cfi_startproc
	subl	$28, %esp
	.cfi_def_cfa_offset 32
	.loc 15 92 0
	call	read_cr4
.LVL127:
	orb	$2, %ah
	movl	%eax, (%esp)
	call	write_cr4
.LVL128:
.LBB3483:
.LBB3484:
	.loc 2 41 0
#APP
# 41 "/home/mscapero/Desktop/sel4-benchmark/sel4test-manifest/kernel/include/arch/ia32/arch/machine/cpu_registers.h" 1
	movl %cr0, %eax
# 0 "" 2
.LVL129:
#NO_APP
.LBE3484:
.LBE3483:
	.loc 15 97 0
	andl	$-47, %eax
.LVL130:
	orl	$42, %eax
.LVL131:
.LBB3485:
.LBB3486:
	.loc 2 47 0
#APP
# 47 "/home/mscapero/Desktop/sel4-benchmark/sel4test-manifest/kernel/include/arch/ia32/arch/machine/cpu_registers.h" 1
	movl %eax, %cr0
# 0 "" 2
#NO_APP
.LBE3486:
.LBE3485:
	.loc 15 98 0
	addl	$28, %esp
	.cfi_def_cfa_offset 4
	ret
	.cfi_endproc
.LFE399:
	.size	Arch_initFpu, .-Arch_initFpu
	.p2align 4,,15
	.globl	init_sysenter_msrs
	.type	init_sysenter_msrs, @function
init_sysenter_msrs:
.LFB400:
	.file 16 "/home/mscapero/Desktop/sel4-benchmark/sel4test-manifest/kernel/src/arch/ia32/machine/hardware.c"
	.loc 16 23 0
	.cfi_startproc
	subl	$28, %esp
	.cfi_def_cfa_offset 32
	.loc 16 24 0
	movl	$8, 8(%esp)
	movl	$0, 4(%esp)
	movl	$372, (%esp)
	call	ia32_wrmsr
.LVL132:
	.loc 16 25 0
	movl	$handle_syscall, 8(%esp)
	movl	$0, 4(%esp)
	movl	$374, (%esp)
	call	ia32_wrmsr
.LVL133:
	.loc 16 26 0
	movl	$ia32KStss+4, 8(%esp)
	movl	$0, 4(%esp)
	movl	$373, (%esp)
	call	ia32_wrmsr
.LVL134:
	.loc 16 27 0
	addl	$28, %esp
	.cfi_def_cfa_offset 4
	ret
	.cfi_endproc
.LFE400:
	.size	init_sysenter_msrs, .-init_sysenter_msrs
	.text
	.p2align 4,,15
	.globl	getRestartPC
	.type	getRestartPC, @function
getRestartPC:
.LFB401:
	.loc 16 30 0
	.cfi_startproc
.LVL135:
	.loc 16 31 0
	movl	4(%esp), %eax
	movl	44(%eax), %eax
	.loc 16 32 0
	ret
	.cfi_endproc
.LFE401:
	.size	getRestartPC, .-getRestartPC
	.p2align 4,,15
	.globl	setNextPC
	.type	setNextPC, @function
setNextPC:
.LFB402:
	.loc 16 35 0
	.cfi_startproc
.LVL136:
.LBB3487:
.LBB3488:
	.loc 13 21 0
	movl	8(%esp), %edx
	movl	4(%esp), %eax
	movl	%edx, 56(%eax)
	ret
.LBE3488:
.LBE3487:
	.cfi_endproc
.LFE402:
	.size	setNextPC, .-setNextPC
	.p2align 4,,15
	.globl	Arch_initContext
	.type	Arch_initContext, @function
Arch_initContext:
.LFB405:
	.file 17 "/home/mscapero/Desktop/sel4-benchmark/sel4test-manifest/kernel/src/arch/ia32/machine/registerset.c"
	.loc 17 36 0
	.cfi_startproc
.LVL137:
	pushl	%edi
	.cfi_def_cfa_offset 8
	.cfi_offset 7, -8
.LBB3491:
.LBB3492:
	.loc 15 25 0
	movl	$128, %ecx
.LBE3492:
.LBE3491:
	.loc 17 36 0
	pushl	%esi
	.cfi_def_cfa_offset 12
	.cfi_offset 6, -12
	.loc 17 36 0
	movl	12(%esp), %edi
.LBB3496:
.LBB3493:
	.loc 15 25 0
	movl	$ia32KSnullFpuState, %esi
.LBE3493:
.LBE3496:
	.loc 17 37 0
	movl	$0, (%edi)
.LBB3497:
.LBB3494:
	.loc 15 25 0
	addl	$80, %edi
.LBE3494:
.LBE3497:
	.loc 17 38 0
	movl	$0, -76(%edi)
	.loc 17 39 0
	movl	$0, -72(%edi)
	.loc 17 40 0
	movl	$0, -68(%edi)
	.loc 17 41 0
	movl	$0, -64(%edi)
	.loc 17 42 0
	movl	$0, -60(%edi)
	.loc 17 43 0
	movl	$0, -56(%edi)
	.loc 17 44 0
	movl	$35, -52(%edi)
	.loc 17 45 0
	movl	$35, -48(%edi)
	.loc 17 46 0
	movl	$0, -44(%edi)
	.loc 17 47 0
	movl	$0, -40(%edi)
	.loc 17 48 0
	movl	$0, -32(%edi)
	.loc 17 49 0
	movl	$0, -28(%edi)
	.loc 17 50 0
	movl	$0, -36(%edi)
	.loc 17 51 0
	movl	$0, -24(%edi)
	.loc 17 52 0
	movl	$27, -20(%edi)
	.loc 17 53 0
	movl	$514, -16(%edi)
	.loc 17 54 0
	movl	$0, -12(%edi)
	.loc 17 55 0
	movl	$35, -8(%edi)
.LBB3498:
.LBB3495:
	.loc 15 25 0
	rep movsl
.LBE3495:
.LBE3498:
	.loc 17 58 0
	popl	%esi
	.cfi_restore 6
	.cfi_def_cfa_offset 8
	popl	%edi
	.cfi_restore 7
	.cfi_def_cfa_offset 4
	ret
	.cfi_endproc
.LFE405:
	.size	Arch_initContext, .-Arch_initContext
	.p2align 4,,15
	.globl	sanitiseRegister
	.type	sanitiseRegister, @function
sanitiseRegister:
.LFB406:
	.loc 17 61 0
	.cfi_startproc
.LVL138:
	.loc 17 61 0
	movl	4(%esp), %edx
	movl	8(%esp), %eax
	.loc 17 62 0
	cmpl	$16, %edx
	je	.L141
	.loc 17 69 0
	subl	$9, %edx
	cmpl	$1, %edx
	ja	.L139
	.loc 17 70 0
	movl	%eax, %edx
	andl	$-9, %edx
	.loc 17 71 0
	cmpl	$51, %edx
	movl	$0, %edx
	cmovne	%edx, %eax
.L139:
.LVL139:
	.loc 17 75 0
	rep ret
.LVL140:
	.p2align 4,,7
	.p2align 3
.L141:
	.loc 17 67 0
	andl	$4055, %eax
.LVL141:
	orl	$514, %eax
.LVL142:
	ret
	.cfi_endproc
.LFE406:
	.size	sanitiseRegister, .-sanitiseRegister
	.p2align 4,,15
	.globl	Arch_decodeInterruptControl
	.type	Arch_decodeInterruptControl, @function
Arch_decodeInterruptControl:
.LFB407:
	.file 18 "/home/mscapero/Desktop/sel4-benchmark/sel4test-manifest/kernel/src/arch/ia32/object/interrupt.c"
	.loc 18 17 0
	.cfi_startproc
.LVL143:
	.loc 18 18 0
	movl	$3, current_syscall_error+24
	.loc 18 20 0
	movl	$3, %eax
	ret
	.cfi_endproc
.LFE407:
	.size	Arch_decodeInterruptControl, .-Arch_decodeInterruptControl
	.p2align 4,,15
	.globl	Arch_prepareThreadDelete
	.type	Arch_prepareThreadDelete, @function
Arch_prepareThreadDelete:
.LFB422:
	.file 19 "/home/mscapero/Desktop/sel4-benchmark/sel4test-manifest/kernel/src/arch/ia32/object/objecttype.c"
	.loc 19 531 0
	.cfi_startproc
.LVL144:
	subl	$28, %esp
	.cfi_def_cfa_offset 32
	.loc 19 531 0
	movl	32(%esp), %eax
.LVL145:
.LBB3511:
.LBB3512:
	.loc 15 80 0
	cmpl	ia32KSfpuOwner, %eax
	je	.L150
.LBE3512:
.LBE3511:
	.loc 19 534 0
	addl	$28, %esp
	.cfi_remember_state
	.cfi_def_cfa_offset 4
	ret
	.p2align 4,,7
	.p2align 3
.L150:
	.cfi_restore_state
.LVL146:
.LBB3524:
.LBB3523:
.LBB3513:
.LBB3514:
.LBB3515:
.LBB3516:
	.loc 3 45 0
#APP
# 45 "/home/mscapero/Desktop/sel4-benchmark/sel4test-manifest/kernel/include/arch/ia32/arch/machine/fpu.h" 1
	clts
# 0 "" 2
#NO_APP
.LBE3516:
.LBE3515:
	.loc 15 35 0
	testl	%eax, %eax
	je	.L145
	.loc 15 36 0
	addl	$80, %eax
.LVL147:
	movl	%eax, (%esp)
	call	saveFpuState
.LVL148:
.L145:
.LBB3517:
.LBB3518:
.LBB3519:
.LBB3520:
	.loc 2 41 0
#APP
# 41 "/home/mscapero/Desktop/sel4-benchmark/sel4test-manifest/kernel/include/arch/ia32/arch/machine/cpu_registers.h" 1
	movl %cr0, %eax
# 0 "" 2
.LVL149:
#NO_APP
.LBE3520:
.LBE3519:
	.loc 3 53 0
	orl	$8, %eax
.LVL150:
.LBB3521:
.LBB3522:
	.loc 2 47 0
#APP
# 47 "/home/mscapero/Desktop/sel4-benchmark/sel4test-manifest/kernel/include/arch/ia32/arch/machine/cpu_registers.h" 1
	movl %eax, %cr0
# 0 "" 2
#NO_APP
.LBE3522:
.LBE3521:
.LBE3518:
.LBE3517:
	.loc 15 43 0
	movl	$0, ia32KSfpuOwner
.LBE3514:
.LBE3513:
.LBE3523:
.LBE3524:
	.loc 19 534 0
	addl	$28, %esp
	.cfi_def_cfa_offset 4
	ret
	.cfi_endproc
.LFE422:
	.size	Arch_prepareThreadDelete, .-Arch_prepareThreadDelete
	.p2align 4,,15
	.globl	Arch_decodeTransfer
	.type	Arch_decodeTransfer, @function
Arch_decodeTransfer:
.LFB426:
	.file 20 "/home/mscapero/Desktop/sel4-benchmark/sel4test-manifest/kernel/src/arch/ia32/object/tcb.c"
	.loc 20 192 0
	.cfi_startproc
.LVL151:
	.loc 20 194 0
	xorl	%eax, %eax
	ret
	.cfi_endproc
.LFE426:
	.size	Arch_decodeTransfer, .-Arch_decodeTransfer
	.p2align 4,,15
	.globl	Arch_performTransfer
	.type	Arch_performTransfer, @function
Arch_performTransfer:
.LFB427:
	.loc 20 197 0
	.cfi_startproc
.LVL152:
	.loc 20 199 0
	xorl	%eax, %eax
	ret
	.cfi_endproc
.LFE427:
	.size	Arch_performTransfer, .-Arch_performTransfer
	.section	.boot.text
	.p2align 4,,15
	.globl	bi_finalise
	.type	bi_finalise, @function
bi_finalise:
.LFB450:
	.file 21 "/home/mscapero/Desktop/sel4-benchmark/sel4test-manifest/kernel/src/kernel/boot.c"
	.loc 21 526 0
	.cfi_startproc
.LVL153:
	.loc 21 528 0
	movl	ndks_boot+24, %edx
.LVL154:
	.loc 21 529 0
	movl	ndks_boot+16, %eax
	movl	ndks_boot+20, %ecx
	movl	%edx, 20(%eax)
.LVL155:
	movl	%ecx, 16(%eax)
	ret
	.cfi_endproc
.LFE450:
	.size	bi_finalise, .-bi_finalise
	.text
	.p2align 4,,15
	.globl	switchToIdleThread
	.type	switchToIdleThread, @function
switchToIdleThread:
.LFB479:
	.file 22 "/home/mscapero/Desktop/sel4-benchmark/sel4test-manifest/kernel/src/kernel/thread.c"
	.loc 22 353 0
	.cfi_startproc
	.loc 22 355 0
	movl	ksIdleThread, %eax
	movl	%eax, ksCurThread
	ret
	.cfi_endproc
.LFE479:
	.size	switchToIdleThread, .-switchToIdleThread
	.p2align 4,,15
	.globl	preemptionPoint
	.type	preemptionPoint, @function
preemptionPoint:
.LFB497:
	.file 23 "/home/mscapero/Desktop/sel4-benchmark/sel4test-manifest/kernel/src/model/preemption.c"
	.loc 23 22 0
	.cfi_startproc
	.loc 23 24 0
	movl	ksWorkUnitsCompleted, %eax
	addl	$1, %eax
	.loc 23 34 0
	cmpl	$99, %eax
	ja	.L156
	.loc 23 24 0
	movl	%eax, ksWorkUnitsCompleted
	.loc 23 41 0
	xorl	%eax, %eax
	ret
	.p2align 4,,7
	.p2align 3
.L156:
.LBB3535:
	.loc 23 35 0
	movl	$0, ksWorkUnitsCompleted
.LVL156:
.LBB3536:
.LBB3537:
.LBB3538:
.LBB3539:
.LBB3540:
.LBB3541:
	.loc 8 63 0
	movl	-65008, %eax
.LBE3541:
.LBE3540:
	.loc 8 204 0
	testl	%eax, %eax
	jne	.L165
.LVL157:
.LBE3539:
.LBE3538:
.LBE3537:
.LBE3536:
.LBE3535:
	.loc 23 22 0
	subl	$28, %esp
	.cfi_def_cfa_offset 32
.LBB3546:
.LBB3545:
.LBB3544:
.LBB3542:
.LBB3543:
	.file 24 "/home/mscapero/Desktop/sel4-benchmark/sel4test-manifest/kernel/src/plat/pc99/machine/pic.c"
	.loc 24 67 0
	movl	$10, 4(%esp)
	movl	$32, (%esp)
	call	out8
.LVL158:
	.loc 24 70 0
	movl	$32, (%esp)
	call	in8
.LVL159:
.LBE3543:
.LBE3542:
	.file 25 "/home/mscapero/Desktop/sel4-benchmark/sel4test-manifest/kernel/src/plat/pc99/machine/hardware.c"
	.loc 25 81 0
	testb	%al, %al
	je	.L166
.LBE3544:
.LBE3545:
	.loc 23 37 0
	movl	$4, %eax
.LVL160:
.LBE3546:
	.loc 23 42 0
	addl	$28, %esp
	.cfi_remember_state
	.cfi_def_cfa_offset 4
	ret
.LVL161:
	.p2align 4,,7
	.p2align 3
.L166:
	.cfi_restore_state
.LBB3547:
	.loc 23 41 0
	xorl	%eax, %eax
.LVL162:
.LBE3547:
	.loc 23 42 0
	addl	$28, %esp
	.cfi_def_cfa_offset 4
	ret
.LVL163:
	.p2align 4,,7
	.p2align 3
.L165:
.LBB3548:
	.loc 23 37 0
	movl	$4, %eax
.LBE3548:
	.loc 23 42 0
	ret
	.cfi_endproc
.LFE497:
	.size	preemptionPoint, .-preemptionPoint
	.p2align 4,,15
	.globl	ensureEmptySlot
	.type	ensureEmptySlot, @function
ensureEmptySlot:
.LFB530:
	.file 26 "/home/mscapero/Desktop/sel4-benchmark/sel4test-manifest/kernel/src/object/cnode.c"
	.loc 26 889 0
	.cfi_startproc
.LVL164:
	.loc 26 890 0
	movl	4(%esp), %eax
	movl	(%eax), %eax
.LVL165:
.LBB3549:
.LBB3550:
	.file 27 "./arch/object/structures_gen.h"
	.loc 27 872 0
	movl	%eax, %ecx
	.loc 27 873 0
	movl	%eax, %edx
	.loc 27 872 0
	andl	$14, %ecx
	.loc 27 873 0
	andl	$15, %edx
	movzbl	%al, %eax
.LVL166:
	cmpl	$14, %ecx
	cmove	%eax, %edx
.LBE3550:
.LBE3549:
	.loc 26 895 0
	xorl	%eax, %eax
	.loc 26 890 0
	testl	%edx, %edx
	je	.L170
	.loc 26 891 0
	movl	$8, current_syscall_error+24
	.loc 26 892 0
	movb	$3, %al
.L170:
	.loc 26 896 0
	rep ret
	.cfi_endproc
.LFE530:
	.size	ensureEmptySlot, .-ensureEmptySlot
	.p2align 4,,15
	.globl	loadCapTransfer
	.type	loadCapTransfer, @function
loadCapTransfer:
.LFB534:
	.loc 26 987 0
	.cfi_startproc
.LVL167:
	pushl	%ebx
	.cfi_def_cfa_offset 8
	.cfi_offset 3, -8
	.loc 26 987 0
	movl	12(%esp), %edx
.LVL168:
	movl	8(%esp), %eax
.LBB3551:
.LBB3552:
	.file 28 "/home/mscapero/Desktop/sel4-benchmark/sel4test-manifest/kernel/include/api/types.h"
	.loc 28 65 0
	movl	504(%edx), %ecx
	movl	%ecx, %ebx
.LVL169:
	.loc 28 66 0
	movl	508(%edx), %ecx
.LVL170:
	.loc 28 67 0
	movl	500(%edx), %edx
	movl	%ebx, 4(%eax)
	movl	%ecx, 8(%eax)
	movl	%edx, (%eax)
.LBE3552:
.LBE3551:
	.loc 26 990 0
	popl	%ebx
	.cfi_restore 3
	.cfi_def_cfa_offset 4
.LVL171:
	ret	$4
	.cfi_endproc
.LFE534:
	.size	loadCapTransfer, .-loadCapTransfer
	.p2align 4,,15
	.globl	isIRQActive
	.type	isIRQActive, @function
isIRQActive:
.LFB553:
	.file 29 "/home/mscapero/Desktop/sel4-benchmark/sel4test-manifest/kernel/src/object/interrupt.c"
	.loc 29 236 0
	.cfi_startproc
.LVL172:
	.loc 29 237 0
	movl	4(%esp), %eax
	movl	intStateIRQTable(,%eax,4), %eax
	testl	%eax, %eax
	setne	%al
	movzbl	%al, %eax
	.loc 29 238 0
	ret
	.cfi_endproc
.LFE553:
	.size	isIRQActive, .-isIRQActive
	.p2align 4,,15
	.globl	tcbEPAppend
	.type	tcbEPAppend, @function
tcbEPAppend:
.LFB574:
	.file 30 "/home/mscapero/Desktop/sel4-benchmark/sel4test-manifest/kernel/src/object/tcb.c"
	.loc 30 129 0
	.cfi_startproc
.LVL173:
	pushl	%ebx
	.cfi_def_cfa_offset 8
	.cfi_offset 3, -8
	movl	16(%esp), %ecx
.LVL174:
	.loc 30 129 0
	movl	8(%esp), %eax
	movl	12(%esp), %edx
.LVL175:
	movl	20(%esp), %ebx
.LVL176:
	.loc 30 130 0
	testl	%ecx, %ecx
	je	.L178
	.loc 30 133 0
	movl	%edx, 648(%ebx)
.LVL177:
.L177:
	.loc 30 135 0
	movl	%ebx, 652(%edx)
	.loc 30 136 0
	movl	$0, 648(%edx)
.LVL178:
	.loc 30 139 0
	movl	%ecx, (%eax)
	movl	%edx, 4(%eax)
	.loc 30 140 0
	popl	%ebx
	.cfi_remember_state
	.cfi_restore 3
	.cfi_def_cfa_offset 4
	ret	$4
.LVL179:
	.p2align 4,,7
	.p2align 3
.L178:
	.cfi_restore_state
	movl	%edx, %ecx
.LVL180:
	jmp	.L177
	.cfi_endproc
.LFE574:
	.size	tcbEPAppend, .-tcbEPAppend
	.p2align 4,,15
	.globl	tcbEPDequeue
	.type	tcbEPDequeue, @function
tcbEPDequeue:
.LFB575:
	.loc 30 145 0
	.cfi_startproc
.LVL181:
	pushl	%edi
	.cfi_def_cfa_offset 8
	.cfi_offset 7, -8
	pushl	%esi
	.cfi_def_cfa_offset 12
	.cfi_offset 6, -12
	pushl	%ebx
	.cfi_def_cfa_offset 16
	.cfi_offset 3, -16
	.loc 30 145 0
	movl	20(%esp), %edx
	movl	16(%esp), %eax
	movl	24(%esp), %ebx
.LVL182:
	movl	28(%esp), %esi
.LVL183:
	.loc 30 146 0
	movl	652(%edx), %ecx
	testl	%ecx, %ecx
	je	.L181
	.loc 30 147 0
	movl	648(%edx), %edi
	movl	%edi, 648(%ecx)
	movl	648(%edx), %edx
.LVL184:
	.loc 30 152 0
	testl	%edx, %edx
	je	.L184
.L186:
	.loc 30 153 0
	movl	%ecx, 652(%edx)
	.loc 30 158 0
	movl	%ebx, (%eax)
	movl	%esi, 4(%eax)
	.loc 30 159 0
	popl	%ebx
	.cfi_remember_state
	.cfi_restore 3
	.cfi_def_cfa_offset 12
.LVL185:
	popl	%esi
	.cfi_restore 6
	.cfi_def_cfa_offset 8
.LVL186:
	popl	%edi
	.cfi_restore 7
	.cfi_def_cfa_offset 4
	ret	$4
.LVL187:
	.p2align 4,,7
	.p2align 3
.L181:
	.cfi_restore_state
	.loc 30 149 0
	movl	648(%edx), %ebx
.LVL188:
	movl	%ebx, %edx
.LVL189:
	.loc 30 152 0
	testl	%edx, %edx
	jne	.L186
	.p2align 4,,7
	.p2align 3
.L184:
	.loc 30 146 0
	movl	%ecx, %esi
.LVL190:
	.loc 30 158 0
	movl	%ebx, (%eax)
	movl	%esi, 4(%eax)
	.loc 30 159 0
	popl	%ebx
	.cfi_restore 3
	.cfi_def_cfa_offset 12
.LVL191:
	popl	%esi
	.cfi_restore 6
	.cfi_def_cfa_offset 8
.LVL192:
	popl	%edi
	.cfi_restore 7
	.cfi_def_cfa_offset 4
	ret	$4
	.cfi_endproc
.LFE575:
	.size	tcbEPDequeue, .-tcbEPDequeue
	.p2align 4,,15
	.globl	getExtraCPtr
	.type	getExtraCPtr, @function
getExtraCPtr:
.LFB576:
	.loc 30 163 0
	.cfi_startproc
.LVL193:
	.loc 30 164 0
	movl	8(%esp), %edx
	movl	4(%esp), %eax
	movl	488(%eax,%edx,4), %eax
	.loc 30 165 0
	ret
	.cfi_endproc
.LFE576:
	.size	getExtraCPtr, .-getExtraCPtr
	.p2align 4,,15
	.globl	setExtraBadge
	.type	setExtraBadge, @function
setExtraBadge:
.LFB577:
	.loc 30 170 0
	.cfi_startproc
.LVL194:
	.loc 30 171 0
	movl	12(%esp), %edx
	movl	8(%esp), %ecx
	movl	4(%esp), %eax
	movl	%ecx, 488(%eax,%edx,4)
	ret
	.cfi_endproc
.LFE577:
	.size	setExtraBadge, .-setExtraBadge
	.p2align 4,,15
	.globl	copyMRs
	.type	copyMRs, @function
copyMRs:
.LFB581:
	.loc 30 242 0
	.cfi_startproc
.LVL195:
	pushl	%edi
	.cfi_def_cfa_offset 8
	.cfi_offset 7, -8
	pushl	%esi
	.cfi_def_cfa_offset 12
	.cfi_offset 6, -12
	pushl	%ebx
	.cfi_def_cfa_offset 16
	.cfi_offset 3, -16
	.loc 30 242 0
	movl	32(%esp), %eax
	movl	16(%esp), %ecx
	movl	20(%esp), %esi
	movl	24(%esp), %edx
	.loc 30 246 0
	testl	%eax, %eax
	.loc 30 242 0
	movl	28(%esp), %ebx
	.loc 30 246 0
	je	.L197
.LVL196:
.LBB3557:
.LBB3558:
	.loc 13 21 0
	movl	20(%ecx), %edi
.LBE3558:
.LBE3557:
	.loc 30 246 0
	cmpl	$1, %eax
.LBB3561:
.LBB3559:
	.loc 13 21 0
	movl	%edi, 20(%edx)
.LVL197:
.LBE3559:
.LBE3561:
	.loc 30 246 0
	jbe	.L193
.LVL198:
.LBB3562:
.LBB3563:
	.loc 13 27 0
	movl	24(%ecx), %ecx
.LVL199:
.LBE3563:
.LBE3562:
	.loc 30 251 0
	testl	%ebx, %ebx
.LBB3564:
.LBB3560:
	.loc 13 21 0
	movl	%ecx, 24(%edx)
.LVL200:
.LBE3560:
.LBE3564:
	.loc 30 251 0
	je	.L195
	testl	%esi, %esi
	je	.L195
	.loc 30 256 0 discriminator 1
	cmpl	$2, %eax
	jbe	.L195
	.loc 30 246 0
	movl	$2, %edx
.LVL201:
	.p2align 4,,7
	.p2align 3
.L192:
	.loc 30 257 0 discriminator 2
	addl	$1, %edx
.LVL202:
	movl	(%esi,%edx,4), %ecx
	.loc 30 256 0 discriminator 2
	cmpl	%eax, %edx
	.loc 30 257 0 discriminator 2
	movl	%ecx, (%ebx,%edx,4)
.LVL203:
	.loc 30 256 0 discriminator 2
	jne	.L192
.LVL204:
.L197:
	.loc 30 261 0
	popl	%ebx
	.cfi_remember_state
	.cfi_restore 3
	.cfi_def_cfa_offset 12
.LVL205:
	popl	%esi
	.cfi_restore 6
	.cfi_def_cfa_offset 8
.LVL206:
	popl	%edi
	.cfi_restore 7
	.cfi_def_cfa_offset 4
	ret
.LVL207:
	.p2align 4,,7
	.p2align 3
.L195:
	.cfi_restore_state
	popl	%ebx
	.cfi_remember_state
	.cfi_restore 3
	.cfi_def_cfa_offset 12
.LVL208:
	.loc 30 246 0
	movl	$2, %eax
.LVL209:
	.loc 30 261 0
	popl	%esi
	.cfi_restore 6
	.cfi_def_cfa_offset 8
.LVL210:
	popl	%edi
	.cfi_restore 7
	.cfi_def_cfa_offset 4
	ret
.LVL211:
	.p2align 4,,7
	.p2align 3
.L193:
	.cfi_restore_state
	popl	%ebx
	.cfi_restore 3
	.cfi_def_cfa_offset 12
.LVL212:
	.loc 30 246 0
	movl	$1, %eax
.LVL213:
	.loc 30 261 0
	popl	%esi
	.cfi_restore 6
	.cfi_def_cfa_offset 8
.LVL214:
	popl	%edi
	.cfi_restore 7
	.cfi_def_cfa_offset 4
.LVL215:
	ret
	.cfi_endproc
.LFE581:
	.size	copyMRs, .-copyMRs
	.p2align 4,,15
	.globl	getDebugChar
	.type	getDebugChar, @function
getDebugChar:
.LFB605:
	.loc 6 20 0
	.cfi_startproc
	subl	$28, %esp
	.cfi_def_cfa_offset 32
	.p2align 4,,7
	.p2align 3
.L203:
	.loc 6 21 0 discriminator 1
	movzwl	ia32KSdebugPort, %eax
	addl	$5, %eax
	movzwl	%ax, %eax
	movl	%eax, (%esp)
	call	in8
.LVL216:
	testb	$1, %al
	je	.L203
	.loc 6 22 0
	movzwl	ia32KSdebugPort, %eax
	movl	%eax, (%esp)
	call	in8
.LVL217:
	.loc 6 23 0
	addl	$28, %esp
	.cfi_def_cfa_offset 4
	ret
	.cfi_endproc
.LFE605:
	.size	getDebugChar, .-getDebugChar
	.p2align 4,,15
	.type	getDecodedChar, @function
getDecodedChar:
.LFB381:
	.file 31 "/home/mscapero/Desktop/sel4-benchmark/sel4test-manifest/kernel/src/arch/ia32/machine/capdl.c"
	.loc 31 31 0
	.cfi_startproc
.LVL218:
	pushl	%ebx
	.cfi_def_cfa_offset 8
	.cfi_offset 3, -8
	movl	%eax, %ebx
	subl	$24, %esp
	.cfi_def_cfa_offset 32
.LVL219:
	.p2align 4,,7
	.p2align 3
.L207:
.LBB3569:
.LBB3570:
	.loc 6 21 0
	movzwl	ia32KSdebugPort, %eax
	leal	5(%eax), %edx
	movzwl	%dx, %edx
	movl	%edx, (%esp)
	call	in8
.LVL220:
	testb	$1, %al
	je	.L207
	.loc 6 22 0
	movzwl	ia32KSdebugPort, %eax
	movl	%eax, (%esp)
	call	in8
.LVL221:
.LBE3570:
.LBE3569:
	.loc 31 34 0
	cmpb	$-1, %al
	je	.L215
	.loc 31 37 0
	cmpb	$-86, %al
	je	.L220
	.loc 31 59 0
	movb	%al, (%ebx)
	.loc 31 60 0
	xorl	%eax, %eax
.L208:
	.loc 31 62 0
	addl	$24, %esp
	.cfi_remember_state
	.cfi_def_cfa_offset 8
	popl	%ebx
	.cfi_restore 3
	.cfi_def_cfa_offset 4
.LVL222:
	ret
.LVL223:
	.p2align 4,,7
	.p2align 3
.L215:
	.cfi_restore_state
	addl	$24, %esp
	.cfi_remember_state
	.cfi_def_cfa_offset 8
	.loc 31 35 0
	movl	$1, %eax
	.loc 31 62 0
	popl	%ebx
	.cfi_restore 3
	.cfi_def_cfa_offset 4
.LVL224:
	ret
.LVL225:
.L220:
	.cfi_restore_state
.LBB3571:
.LBB3572:
	.loc 31 38 0
	call	getDebugChar
.LVL226:
	.loc 31 39 0
	cmpb	$-1, %al
	je	.L215
	.loc 31 42 0
	cmpb	$-95, %al
	.p2align 4,,4
	je	.L212
	cmpb	$-94, %al
	.p2align 4,,5
	je	.L213
	cmpb	$-96, %al
	.p2align 4,,5
	je	.L221
	.loc 31 53 0
	leal	-20(%eax), %edx
	.loc 31 57 0
	xorl	%eax, %eax
.LVL227:
	.loc 31 53 0
	cmpb	$19, %dl
	ja	.L208
	.loc 31 54 0
	movb	%dl, (%ebx)
	jmp	.L208
.LVL228:
.L213:
	.loc 31 50 0
	movb	$-69, (%ebx)
	.loc 31 57 0
	xorl	%eax, %eax
.LVL229:
	jmp	.L208
.LVL230:
.L212:
	.loc 31 44 0
	movb	$-86, (%ebx)
	.loc 31 57 0
	xorl	%eax, %eax
.LVL231:
	jmp	.L208
.LVL232:
.L221:
	.loc 31 47 0
	movb	$-1, (%ebx)
	.loc 31 57 0
	xorl	%eax, %eax
.LVL233:
	jmp	.L208
.LBE3572:
.LBE3571:
	.cfi_endproc
.LFE381:
	.size	getDecodedChar, .-getDecodedChar
	.p2align 4,,15
	.type	getArg32, @function
getArg32:
.LFB383:
	.loc 31 90 0
	.cfi_startproc
.LVL234:
	pushl	%edi
	.cfi_def_cfa_offset 8
	.cfi_offset 7, -8
	pushl	%esi
	.cfi_def_cfa_offset 12
	.cfi_offset 6, -12
	pushl	%ebx
	.cfi_def_cfa_offset 16
	.cfi_offset 3, -16
	movl	%eax, %ebx
	subl	$32, %esp
	.cfi_def_cfa_offset 48
	.loc 31 93 0
	movb	$0, 24(%esp)
	.loc 31 94 0
	movb	$0, 28(%esp)
.LVL235:
	.p2align 4,,7
	.p2align 3
.L224:
.LBB3585:
.LBB3586:
.LBB3587:
.LBB3588:
	.loc 6 21 0
	movzwl	ia32KSdebugPort, %eax
	leal	5(%eax), %edx
	movzwl	%dx, %edx
	movl	%edx, (%esp)
	call	in8
.LVL236:
	testb	$1, %al
	je	.L224
	.loc 6 22 0
	movzwl	ia32KSdebugPort, %eax
	movl	%eax, (%esp)
	call	in8
.LVL237:
.LBE3588:
.LBE3587:
	.loc 31 34 0
	cmpb	$-1, %al
.LBB3590:
.LBB3589:
	.loc 6 22 0
	movl	%eax, %esi
.LBE3589:
.LBE3590:
	.loc 31 34 0
	je	.L228
	.loc 31 37 0
	movl	%esi, %eax
	cmpb	$-86, %al
	je	.L263
.LVL238:
	.p2align 4,,7
	.p2align 3
.L233:
.LBE3586:
.LBE3585:
.LBB3594:
.LBB3595:
.LBB3596:
.LBB3597:
	.loc 6 21 0
	movzwl	ia32KSdebugPort, %eax
	leal	5(%eax), %edx
	movzwl	%dx, %edx
	movl	%edx, (%esp)
	call	in8
.LVL239:
	testb	$1, %al
	je	.L233
	.loc 6 22 0
	movzwl	ia32KSdebugPort, %eax
	movl	%eax, (%esp)
	call	in8
.LVL240:
.LBE3597:
.LBE3596:
	.loc 31 34 0
	cmpb	$-1, %al
.LBB3599:
.LBB3598:
	.loc 6 22 0
	movl	%eax, %edi
.LBE3598:
.LBE3599:
	.loc 31 34 0
	je	.L228
	.loc 31 37 0
	cmpb	$-86, %al
	je	.L264
.L234:
.LVL241:
.LBE3595:
.LBE3594:
	.loc 31 101 0
	leal	24(%esp), %eax
	call	getDecodedChar
.LVL242:
	testl	%eax, %eax
	je	.L265
.LVL243:
.L228:
	.loc 31 96 0
	movl	$1, %eax
.L261:
	.loc 31 109 0
	addl	$32, %esp
	.cfi_remember_state
	.cfi_def_cfa_offset 16
	popl	%ebx
	.cfi_restore 3
	.cfi_def_cfa_offset 12
.LVL244:
	popl	%esi
	.cfi_restore 6
	.cfi_def_cfa_offset 8
	popl	%edi
	.cfi_restore 7
	.cfi_def_cfa_offset 4
	ret
.LVL245:
.L265:
	.cfi_restore_state
	.loc 31 104 0
	leal	28(%esp), %eax
	call	getDecodedChar
.LVL246:
	testl	%eax, %eax
	jne	.L228
	.loc 31 107 0
	movzbl	24(%esp), %edx
	sall	$24, %esi
	movzbl	28(%esp), %ecx
	sall	$8, %edx
	orl	%ecx, %edx
	movl	%edi, %ecx
	movzbl	%cl, %edi
.LVL247:
	orl	%esi, %edx
	sall	$16, %edi
	orl	%edi, %edx
	movl	%edx, (%ebx)
	.loc 31 108 0
	jmp	.L261
.LVL248:
.L263:
.LBB3603:
.LBB3593:
.LBB3591:
.LBB3592:
	.loc 31 38 0
	call	getDebugChar
.LVL249:
	.loc 31 39 0
	cmpb	$-1, %al
	je	.L228
	.loc 31 42 0
	cmpb	$-95, %al
	.p2align 4,,4
	je	.L233
	cmpb	$-94, %al
	.loc 31 50 0
	movl	$-69, %esi
	.loc 31 42 0
	je	.L233
	cmpb	$-96, %al
	.loc 31 47 0
	movl	$-1, %esi
	.loc 31 42 0
	je	.L233
	.loc 31 53 0
	leal	-20(%eax), %esi
.LBE3592:
.LBE3591:
.LBE3593:
.LBE3603:
	.loc 31 91 0
	movl	%esi, %eax
.LVL250:
	cmpb	$20, %al
	movl	$0, %eax
	cmovae	%eax, %esi
.LVL251:
	jmp	.L233
.LVL252:
.L264:
.LBB3604:
.LBB3602:
.LBB3600:
.LBB3601:
	.loc 31 38 0
	call	getDebugChar
.LVL253:
	.loc 31 39 0
	cmpb	$-1, %al
	je	.L228
	.loc 31 42 0
	cmpb	$-95, %al
	.p2align 4,,4
	je	.L234
	cmpb	$-94, %al
	.loc 31 50 0
	movl	$-69, %edi
	.loc 31 42 0
	je	.L234
	cmpb	$-96, %al
	.loc 31 47 0
	movl	$-1, %edi
	.loc 31 42 0
	je	.L234
	.loc 31 53 0
	leal	-20(%eax), %edi
.LBE3601:
.LBE3600:
.LBE3602:
.LBE3604:
	.loc 31 92 0
	movl	%edi, %eax
.LVL254:
	cmpb	$20, %al
	movl	$0, %eax
	cmovae	%eax, %edi
	jmp	.L234
	.cfi_endproc
.LFE383:
	.size	getArg32, .-getArg32
	.p2align 4,,15
	.globl	putDebugChar
	.type	putDebugChar, @function
putDebugChar:
.LFB606:
	.loc 6 26 0
	.cfi_startproc
.LVL255:
	pushl	%ebx
	.cfi_def_cfa_offset 8
	.cfi_offset 3, -8
	subl	$24, %esp
	.cfi_def_cfa_offset 32
	movl	32(%esp), %ebx
	.p2align 4,,7
	.p2align 3
.L268:
	.loc 6 27 0 discriminator 1
	movzwl	ia32KSdebugPort, %eax
	addl	$5, %eax
	movzwl	%ax, %eax
	movl	%eax, (%esp)
	call	in8
.LVL256:
	testb	$32, %al
	je	.L268
	.loc 6 28 0
	movzwl	ia32KSdebugPort, %eax
	movzbl	%bl, %ebx
	movl	%ebx, 4(%esp)
	movl	%eax, (%esp)
	call	out8
.LVL257:
	.loc 6 29 0
	addl	$24, %esp
	.cfi_def_cfa_offset 8
	popl	%ebx
	.cfi_restore 3
	.cfi_def_cfa_offset 4
	ret
	.cfi_endproc
.LFE606:
	.size	putDebugChar, .-putDebugChar
	.p2align 4,,15
	.type	putEncodedChar, @function
putEncodedChar:
.LFB382:
	.loc 31 65 0
	.cfi_startproc
.LVL258:
	subl	$28, %esp
	.cfi_def_cfa_offset 32
	.loc 31 66 0
	cmpb	$-69, %al
	je	.L279
	cmpb	$-1, %al
	je	.L273
	cmpb	$-86, %al
	je	.L283
	.loc 31 80 0
	cmpb	$19, %al
	.p2align 4,,5
	jbe	.L284
	.loc 31 84 0
	movl	%eax, (%esp)
	call	putDebugChar
.LVL259:
	.loc 31 87 0
	addl	$28, %esp
	.cfi_remember_state
	.cfi_def_cfa_offset 4
	ret
	.p2align 4,,7
	.p2align 3
.L279:
	.cfi_restore_state
.LBB3611:
.LBB3612:
	.loc 6 27 0
	movzwl	ia32KSdebugPort, %eax
	addl	$5, %eax
	movzwl	%ax, %eax
	movl	%eax, (%esp)
	call	in8
.LVL260:
	testb	$32, %al
	je	.L279
	.loc 6 28 0
	movzwl	ia32KSdebugPort, %eax
	movl	$170, 4(%esp)
	movl	%eax, (%esp)
	call	out8
.LVL261:
.LBE3612:
.LBE3611:
	.loc 31 77 0
	movl	$162, (%esp)
	call	putDebugChar
.LVL262:
.L270:
	.loc 31 87 0
	addl	$28, %esp
	.cfi_remember_state
	.cfi_def_cfa_offset 4
	ret
.LVL263:
	.p2align 4,,7
	.p2align 3
.L283:
	.cfi_restore_state
	.loc 31 68 0
	movl	$170, (%esp)
	call	putDebugChar
.LVL264:
	.p2align 4,,7
	.p2align 3
.L276:
.LBB3613:
.LBB3614:
	.loc 6 27 0
	movzwl	ia32KSdebugPort, %eax
	addl	$5, %eax
	movzwl	%ax, %eax
	movl	%eax, (%esp)
	call	in8
.LVL265:
	testb	$32, %al
	je	.L276
	.loc 6 28 0
	movzwl	ia32KSdebugPort, %eax
	movl	$161, 4(%esp)
	movl	%eax, (%esp)
	call	out8
.LVL266:
.LBE3614:
.LBE3613:
	.loc 31 87 0
	addl	$28, %esp
	.cfi_remember_state
	.cfi_def_cfa_offset 4
	ret
.LVL267:
	.p2align 4,,7
	.p2align 3
.L273:
	.cfi_restore_state
	.loc 31 72 0
	movl	$170, (%esp)
	call	putDebugChar
.LVL268:
	.loc 31 73 0
	movl	$160, (%esp)
	call	putDebugChar
.LVL269:
	.loc 31 87 0
	addl	$28, %esp
	.cfi_remember_state
	.cfi_def_cfa_offset 4
	ret
.LVL270:
	.p2align 4,,7
	.p2align 3
.L284:
	.cfi_restore_state
.LBB3615:
.LBB3616:
	.loc 31 81 0
	movl	$170, (%esp)
	movl	%eax, 12(%esp)
.LVL271:
	call	putDebugChar
.LVL272:
	.loc 31 82 0
	movl	12(%esp), %eax
	addl	$20, %eax
	movzbl	%al, %eax
	movl	%eax, (%esp)
	call	putDebugChar
.LVL273:
	jmp	.L270
.LBE3616:
.LBE3615:
	.cfi_endproc
.LFE382:
	.size	putEncodedChar, .-putEncodedChar
	.p2align 4,,15
	.type	sendWord, @function
sendWord:
.LFB384:
	.loc 31 112 0
	.cfi_startproc
.LVL274:
	pushl	%ebx
	.cfi_def_cfa_offset 8
	.cfi_offset 3, -8
	movl	%eax, %ebx
	subl	$8, %esp
	.cfi_def_cfa_offset 16
	movzbl	%al, %eax
.LVL275:
	.loc 31 113 0
	call	putEncodedChar
.LVL276:
	movzbl	%bh, %eax
	.loc 31 114 0
	call	putEncodedChar
.LVL277:
	.loc 31 115 0
	movl	%ebx, %eax
	shrl	$16, %eax
	movzbl	%al, %eax
	call	putEncodedChar
.LVL278:
	.loc 31 117 0
	addl	$8, %esp
	.cfi_def_cfa_offset 8
	.loc 31 116 0
	movl	%ebx, %eax
	.loc 31 117 0
	popl	%ebx
	.cfi_restore 3
	.cfi_def_cfa_offset 4
.LVL279:
	.loc 31 116 0
	shrl	$24, %eax
.LVL280:
	jmp	putEncodedChar
.LVL281:
	.cfi_endproc
.LFE384:
	.size	sendWord, .-sendWord
	.p2align 4,,15
	.globl	getActiveIRQ
	.type	getActiveIRQ, @function
getActiveIRQ:
.LFB610:
	.loc 25 70 0
	.cfi_startproc
	.loc 25 71 0
	movl	ia32KScurInterrupt, %eax
	cmpl	$-1, %eax
	je	.L289
	.loc 25 74 0
	subl	$32, %eax
	ret
	.p2align 4,,7
	.p2align 3
.L289:
	.loc 25 72 0
	movl	$-1, %eax
	.loc 25 76 0
	ret
	.cfi_endproc
.LFE610:
	.size	getActiveIRQ, .-getActiveIRQ
	.p2align 4,,15
	.globl	isIRQPending
	.type	isIRQPending, @function
isIRQPending:
.LFB611:
	.loc 25 80 0
	.cfi_startproc
.LVL282:
.LBB3627:
.LBB3628:
.LBB3629:
.LBB3630:
	.loc 8 63 0
	movl	-65008, %eax
.LBE3630:
.LBE3629:
	.loc 8 204 0
	testl	%eax, %eax
	jne	.L295
.LVL283:
.LBE3628:
.LBE3627:
	.loc 25 80 0
	subl	$28, %esp
	.cfi_def_cfa_offset 32
.LBB3632:
.LBB3633:
	.loc 24 67 0
	movl	$10, 4(%esp)
	movl	$32, (%esp)
	call	out8
.LVL284:
	.loc 24 70 0
	movl	$32, (%esp)
	call	in8
.LVL285:
.LBE3633:
.LBE3632:
	.loc 25 81 0
	testb	%al, %al
	setne	%al
.LVL286:
	.loc 25 82 0
	addl	$28, %esp
	.cfi_def_cfa_offset 4
	.loc 25 81 0
	movzbl	%al, %eax
	.loc 25 82 0
	ret
.LVL287:
	.p2align 4,,7
	.p2align 3
.L295:
.LBB3634:
.LBB3631:
	.loc 8 204 0
	movl	$1, %eax
.LBE3631:
.LBE3634:
	.loc 25 82 0
	ret
	.cfi_endproc
.LFE611:
	.size	isIRQPending, .-isIRQPending
	.p2align 4,,15
	.globl	ackInterrupt
	.type	ackInterrupt, @function
ackInterrupt:
.LFB612:
	.loc 25 85 0
	.cfi_startproc
.LVL288:
	subl	$28, %esp
	.cfi_def_cfa_offset 32
	.loc 25 86 0
	cmpl	$15, 32(%esp)
	jle	.L301
.LVL289:
.LBB3642:
.LBB3643:
.LBB3644:
	.loc 8 69 0
	movl	$0, -65360
.LBE3644:
.LBE3643:
.LBE3642:
	.loc 25 91 0
	addl	$28, %esp
	.cfi_remember_state
	.cfi_def_cfa_offset 4
	ret
.LVL290:
	.p2align 4,,7
	.p2align 3
.L301:
	.cfi_restore_state
.LBB3645:
.LBB3646:
	.loc 24 80 0
	cmpl	$39, ia32KScurInterrupt
	jle	.L298
	.loc 24 82 0
	movl	$32, 4(%esp)
	movl	$160, (%esp)
	call	out8
.LVL291:
.L298:
	.loc 24 85 0
	movl	$32, 4(%esp)
	movl	$32, (%esp)
	call	out8
.LVL292:
.LBE3646:
.LBE3645:
	.loc 25 91 0
	addl	$28, %esp
	.cfi_def_cfa_offset 4
	ret
	.cfi_endproc
.LFE612:
	.size	ackInterrupt, .-ackInterrupt
	.p2align 4,,15
	.globl	handleSpuriousIRQ
	.type	handleSpuriousIRQ, @function
handleSpuriousIRQ:
.LFB613:
	.loc 25 94 0
	.cfi_startproc
	rep ret
	.cfi_endproc
.LFE613:
	.size	handleSpuriousIRQ, .-handleSpuriousIRQ
	.p2align 4,,15
	.globl	resetTimer
	.type	resetTimer, @function
resetTimer:
.LFB614:
	.loc 25 101 0
	.cfi_startproc
	rep ret
	.cfi_endproc
.LFE614:
	.size	resetTimer, .-resetTimer
	.p2align 4,,15
	.globl	serial_init
	.type	serial_init, @function
serial_init:
.LFB616:
	.file 32 "/home/mscapero/Desktop/sel4-benchmark/sel4test-manifest/kernel/src/plat/pc99/machine/io.c"
	.loc 32 28 0
	.cfi_startproc
.LVL293:
	.loc 32 28 0
	pushl	%ebp
	.cfi_def_cfa_offset 8
	.cfi_offset 5, -8
	pushl	%edi
	.cfi_def_cfa_offset 12
	.cfi_offset 7, -12
	pushl	%esi
	.cfi_def_cfa_offset 16
	.cfi_offset 6, -16
	pushl	%ebx
	.cfi_def_cfa_offset 20
	.cfi_offset 3, -20
	subl	$28, %esp
	.cfi_def_cfa_offset 48
	.loc 32 28 0
	movl	48(%esp), %esi
	leal	5(%esi), %ebx
	movzwl	%bx, %ebx
	.p2align 4,,7
	.p2align 3
.L306:
	.loc 32 29 0 discriminator 1
	movl	%ebx, (%esp)
	call	in8
.LVL294:
	testb	$96, %al
	je	.L306
	.loc 32 31 0
	leal	1(%esi), %eax
	.loc 32 33 0
	movzwl	%si, %edi
	.loc 32 31 0
	movzwl	%ax, %eax
	.loc 32 32 0
	leal	3(%esi), %ebp
	.loc 32 31 0
	movl	%eax, (%esp)
	.loc 32 32 0
	movzwl	%bp, %ebp
	.loc 32 31 0
	movl	$0, 4(%esp)
	movl	%eax, 12(%esp)
	call	out8
.LVL295:
	.loc 32 32 0
	movl	%ebp, (%esp)
	movl	$128, 4(%esp)
	call	out8
.LVL296:
	.loc 32 33 0
	movl	%edi, (%esp)
	movl	$1, 4(%esp)
	call	out8
.LVL297:
	.loc 32 34 0
	movl	12(%esp), %eax
	movl	$0, 4(%esp)
	movl	%eax, (%esp)
	call	out8
.LVL298:
	.loc 32 35 0
	movl	%ebp, (%esp)
	movl	$3, 4(%esp)
	call	out8
.LVL299:
	.loc 32 36 0
	leal	4(%esi), %eax
	.loc 32 40 0
	addl	$6, %esi
	.loc 32 36 0
	movzwl	%ax, %eax
	.loc 32 40 0
	movzwl	%si, %esi
	.loc 32 36 0
	movl	%eax, (%esp)
	movl	$11, 4(%esp)
	call	out8
.LVL300:
	.loc 32 38 0
	movl	%edi, (%esp)
	call	in8
.LVL301:
	.loc 32 39 0
	movl	%ebx, (%esp)
	call	in8
.LVL302:
	.loc 32 40 0
	movl	%esi, 48(%esp)
	.loc 32 41 0
	addl	$28, %esp
	.cfi_def_cfa_offset 20
	popl	%ebx
	.cfi_restore 3
	.cfi_def_cfa_offset 16
	popl	%esi
	.cfi_restore 6
	.cfi_def_cfa_offset 12
	popl	%edi
	.cfi_restore 7
	.cfi_def_cfa_offset 8
	popl	%ebp
	.cfi_restore 5
	.cfi_def_cfa_offset 4
	.loc 32 40 0
	jmp	in8
.LVL303:
	.cfi_endproc
.LFE616:
	.size	serial_init, .-serial_init
	.p2align 4,,15
	.globl	console_putchar
	.type	console_putchar, @function
console_putchar:
.LFB617:
	.loc 32 44 0
	.cfi_startproc
.LVL304:
	pushl	%edi
	.cfi_def_cfa_offset 8
	.cfi_offset 7, -8
	pushl	%esi
	.cfi_def_cfa_offset 12
	.cfi_offset 6, -12
	pushl	%ebx
	.cfi_def_cfa_offset 16
	.cfi_offset 3, -16
	subl	$16, %esp
	.cfi_def_cfa_offset 32
	.loc 32 44 0
	movl	32(%esp), %edi
	.loc 32 45 0
	call	get_console_port
.LVL305:
.LBB3647:
.LBB3648:
	.file 33 "/home/mscapero/Desktop/sel4-benchmark/sel4test-manifest/kernel/include/arch/ia32/arch/kernel/lock.h"
	.loc 33 28 0
	movl	$lock_debug, %edx
.LBE3648:
.LBE3647:
	.loc 32 45 0
	movzwl	%ax, %esi
.LVL306:
.LBB3650:
.LBB3649:
	.loc 33 28 0
#APP
# 28 "/home/mscapero/Desktop/sel4-benchmark/sel4test-manifest/kernel/include/arch/ia32/arch/kernel/lock.h" 1
	1:                 
movl  $1,    %eax 
xchgl (%edx),  %eax 
testl %eax, %eax 
jnz   1b           

# 0 "" 2
#NO_APP
	leal	5(%esi), %ebx
.LBE3649:
.LBE3650:
	.loc 32 49 0
	testw	%si, %si
	movzwl	%bx, %ebx
	je	.L310
	.p2align 4,,7
	.p2align 3
.L316:
	.loc 32 50 0 discriminator 1
	movl	%ebx, (%esp)
	call	in8
.LVL307:
	testb	$96, %al
	je	.L316
	.loc 32 51 0
	movl	%edi, %eax
	movzbl	%al, %eax
	movl	%eax, 4(%esp)
	movl	%esi, (%esp)
	call	out8
.LVL308:
	.loc 32 52 0
	movl	%edi, %eax
	cmpb	$10, %al
	je	.L315
.L310:
.LVL309:
.LBB3651:
.LBB3652:
	.loc 33 42 0
	movl	$0, lock_debug
.LBE3652:
.LBE3651:
	.loc 32 59 0
	addl	$16, %esp
	.cfi_remember_state
	.cfi_def_cfa_offset 16
	popl	%ebx
	.cfi_restore 3
	.cfi_def_cfa_offset 12
	popl	%esi
	.cfi_restore 6
	.cfi_def_cfa_offset 8
.LVL310:
	popl	%edi
	.cfi_restore 7
	.cfi_def_cfa_offset 4
	ret
.LVL311:
	.p2align 4,,7
	.p2align 3
.L315:
	.cfi_restore_state
	.loc 32 53 0 discriminator 1
	movl	%ebx, (%esp)
	call	in8
.LVL312:
	testb	$96, %al
	je	.L315
	.loc 32 54 0
	movl	$13, 4(%esp)
	movl	%esi, (%esp)
	call	out8
.LVL313:
	jmp	.L310
	.cfi_endproc
.LFE617:
	.size	console_putchar, .-console_putchar
	.p2align 4,,15
	.globl	puts
	.type	puts, @function
puts:
.LFB496:
	.file 34 "/home/mscapero/Desktop/sel4-benchmark/sel4test-manifest/kernel/src/machine/io.c"
	.loc 34 234 0
	.cfi_startproc
.LVL314:
	pushl	%ebx
	.cfi_def_cfa_offset 8
	.cfi_offset 3, -8
	subl	$24, %esp
	.cfi_def_cfa_offset 32
	.loc 34 234 0
	movl	32(%esp), %ebx
.LVL315:
	.loc 34 235 0
	movsbl	(%ebx), %eax
	testb	%al, %al
	je	.L320
	.p2align 4,,7
	.p2align 3
.L324:
	.loc 34 236 0 discriminator 2
	movl	%eax, (%esp)
	.loc 34 235 0 discriminator 2
	addl	$1, %ebx
.LVL316:
	.loc 34 236 0 discriminator 2
	call	console_putchar
.LVL317:
	.loc 34 235 0 discriminator 2
	movsbl	(%ebx), %eax
	testb	%al, %al
	jne	.L324
.L320:
	.loc 34 238 0
	movl	$10, (%esp)
	call	console_putchar
.LVL318:
	.loc 34 240 0
	addl	$24, %esp
	.cfi_def_cfa_offset 8
	xorl	%eax, %eax
	popl	%ebx
	.cfi_restore 3
	.cfi_def_cfa_offset 4
.LVL319:
	ret
	.cfi_endproc
.LFE496:
	.size	puts, .-puts
	.section	.rodata.str1.1,"aMS",@progbits,1
.LC0:
	.string	"(nil)"
.LC1:
	.string	"0x"
	.text
	.p2align 4,,15
	.globl	printf
	.type	printf, @function
printf:
.LFB495:
	.loc 34 223 0
	.cfi_startproc
.LVL320:
	pushl	%ebp
	.cfi_def_cfa_offset 8
	.cfi_offset 5, -8
	pushl	%edi
	.cfi_def_cfa_offset 12
	.cfi_offset 7, -12
	pushl	%esi
	.cfi_def_cfa_offset 16
	.cfi_offset 6, -16
	pushl	%ebx
	.cfi_def_cfa_offset 20
	.cfi_offset 3, -20
	subl	$44, %esp
	.cfi_def_cfa_offset 64
	.loc 34 223 0
	movl	64(%esp), %ebx
	.loc 34 227 0
	leal	68(%esp), %esi
.LVL321:
.LBB3688:
.LBB3689:
	.loc 34 133 0
	testl	%ebx, %ebx
	je	.L370
	xorl	%edi, %edi
	movl	$0, 8(%esp)
.LVL322:
	.p2align 4,,7
	.p2align 3
.L330:
	.loc 34 139 0
	movsbl	(%ebx), %eax
	testb	%al, %al
	je	.L402
.L369:
	.loc 34 140 0
	testl	%edi, %edi
	je	.L331
	.loc 34 141 0
	cmpb	$112, %al
	je	.L333
	.p2align 4,,7
	jg	.L334
	cmpb	$100, %al
	.p2align 4,,7
	je	.L335
	cmpb	$108, %al
	.p2align 4,,7
	je	.L336
	cmpb	$37, %al
	.p2align 4,,5
	je	.L403
.L332:
	.loc 34 197 0
	addl	$1, %ebx
.LVL323:
	.loc 34 139 0
	movsbl	(%ebx), %eax
	.loc 34 201 0
	xorl	%edi, %edi
.LVL324:
	.loc 34 139 0
	testb	%al, %al
	jne	.L369
	.p2align 4,,7
	.p2align 3
.L402:
	movl	8(%esp), %eax
.LVL325:
.LBE3689:
.LBE3688:
	.loc 34 231 0
	addl	$44, %esp
	.cfi_remember_state
	.cfi_def_cfa_offset 20
	popl	%ebx
	.cfi_restore 3
	.cfi_def_cfa_offset 16
.LVL326:
	popl	%esi
	.cfi_restore 6
	.cfi_def_cfa_offset 12
.LVL327:
	popl	%edi
	.cfi_restore 7
	.cfi_def_cfa_offset 8
.LVL328:
	popl	%ebp
	.cfi_restore 5
	.cfi_def_cfa_offset 4
	ret
.LVL329:
	.p2align 4,,7
	.p2align 3
.L331:
	.cfi_restore_state
.LBB3799:
.LBB3796:
	.loc 34 203 0
	cmpb	$37, %al
	jne	.L398
.LVL330:
	.loc 34 206 0
	addl	$1, %ebx
.LVL331:
	.loc 34 205 0
	movl	$1, %edi
	jmp	.L330
.LVL332:
	.p2align 4,,7
	.p2align 3
.L334:
	.loc 34 141 0
	cmpb	$117, %al
	je	.L338
	cmpb	$120, %al
	je	.L339
	cmpb	$115, %al
	.p2align 4,,5
	jne	.L332
	.loc 34 185 0
	movl	(%esi), %edi
.LVL333:
	leal	4(%esi), %ebp
.LVL334:
.LBB3690:
.LBB3691:
	.loc 34 21 0
	xorl	%esi, %esi
	movsbl	(%edi), %eax
	testb	%al, %al
	je	.L362
.LVL335:
	.p2align 4,,7
	.p2align 3
.L363:
	.loc 34 22 0
	movl	%eax, (%esp)
	.loc 34 21 0
	addl	$1, %esi
.LVL336:
	.loc 34 22 0
	call	console_putchar
.LVL337:
	.loc 34 21 0
	movsbl	(%edi,%esi), %eax
	testb	%al, %al
	jne	.L363
.LVL338:
.L362:
.LBE3691:
.LBE3690:
	.loc 34 185 0
	addl	%esi, 8(%esp)
	.loc 34 186 0
	addl	$1, %ebx
.LVL339:
	.loc 34 185 0
	movl	%ebp, %esi
	.loc 34 201 0
	xorl	%edi, %edi
	jmp	.L330
.LVL340:
	.p2align 4,,7
	.p2align 3
.L398:
	.loc 34 210 0
	movl	%eax, (%esp)
	.loc 34 212 0
	addl	$1, %ebx
.LVL341:
	.loc 34 210 0
	call	console_putchar
.LVL342:
	.loc 34 211 0
	addl	$1, 8(%esp)
.LVL343:
	jmp	.L330
	.p2align 4,,7
	.p2align 3
.L338:
	.loc 34 163 0
	leal	4(%esi), %edi
.LVL344:
	movl	(%esi), %esi
.LVL345:
.LBB3692:
.LBB3693:
	.loc 34 69 0
	testl	%esi, %esi
	je	.L351
.LVL346:
.LBB3694:
.LBB3695:
.LBB3696:
.LBB3697:
	.loc 34 48 0
	movl	$-858993459, %eax
	mull	%esi
	movl	%edx, %ecx
	shrl	$3, %ecx
	leal	(%ecx,%ecx,4), %eax
	addl	%eax, %eax
	subl	%eax, %esi
.LVL347:
.LBE3697:
.LBE3696:
	.loc 34 74 0
	testl	%ecx, %ecx
	.loc 34 80 0
	leal	48(%esi), %eax
	movb	%al, 20(%esp)
.LVL348:
	.loc 34 74 0
	je	.L380
.LVL349:
.LBB3708:
.LBB3698:
	.loc 34 48 0
	movl	$-858993459, %eax
	mull	%ecx
	movl	%edx, %esi
	shrl	$3, %esi
	leal	(%esi,%esi,4), %eax
	addl	%eax, %eax
	subl	%eax, %ecx
.LVL350:
.LBE3698:
.LBE3708:
	.loc 34 80 0
	addl	$48, %ecx
	.loc 34 74 0
	testl	%esi, %esi
	.loc 34 80 0
	movb	%cl, 21(%esp)
.LVL351:
	.loc 34 74 0
	je	.L381
.LVL352:
.LBB3709:
.LBB3699:
	.loc 34 48 0
	movl	$-858993459, %eax
.LVL353:
	mull	%esi
.LVL354:
	movl	%edx, %ecx
	shrl	$3, %ecx
	leal	(%ecx,%ecx,4), %eax
	addl	%eax, %eax
	subl	%eax, %esi
.LVL355:
.LBE3699:
.LBE3709:
	.loc 34 74 0
	testl	%ecx, %ecx
	.loc 34 80 0
	leal	48(%esi), %eax
	movb	%al, 22(%esp)
.LVL356:
	.loc 34 74 0
	je	.L382
.LVL357:
.LBB3710:
.LBB3700:
	.loc 34 48 0
	movl	$-858993459, %eax
.LVL358:
	mull	%ecx
.LVL359:
	movl	%edx, %esi
	shrl	$3, %esi
	leal	(%esi,%esi,4), %eax
	addl	%eax, %eax
	subl	%eax, %ecx
.LVL360:
.LBE3700:
.LBE3710:
	.loc 34 80 0
	addl	$48, %ecx
	.loc 34 74 0
	testl	%esi, %esi
	.loc 34 80 0
	movb	%cl, 23(%esp)
.LVL361:
	.loc 34 74 0
	je	.L383
.LVL362:
.LBB3711:
.LBB3701:
	.loc 34 48 0
	movl	$-858993459, %eax
.LVL363:
	mull	%esi
.LVL364:
	movl	%edx, %ecx
	shrl	$3, %ecx
	leal	(%ecx,%ecx,4), %eax
	addl	%eax, %eax
	subl	%eax, %esi
.LVL365:
.LBE3701:
.LBE3711:
	.loc 34 74 0
	testl	%ecx, %ecx
	.loc 34 80 0
	leal	48(%esi), %eax
	movb	%al, 24(%esp)
.LVL366:
	.loc 34 74 0
	je	.L384
.LVL367:
.LBB3712:
.LBB3702:
	.loc 34 48 0
	movl	$-858993459, %eax
.LVL368:
	mull	%ecx
.LVL369:
	movl	%edx, %esi
	shrl	$3, %esi
	leal	(%esi,%esi,4), %eax
	addl	%eax, %eax
	subl	%eax, %ecx
.LVL370:
.LBE3702:
.LBE3712:
	.loc 34 80 0
	addl	$48, %ecx
	.loc 34 74 0
	testl	%esi, %esi
	.loc 34 80 0
	movb	%cl, 25(%esp)
.LVL371:
	.loc 34 74 0
	je	.L385
.LVL372:
.LBB3713:
.LBB3703:
	.loc 34 48 0
	movl	$-858993459, %eax
.LVL373:
	mull	%esi
.LVL374:
	movl	%edx, %ecx
	shrl	$3, %ecx
	leal	(%ecx,%ecx,4), %eax
	addl	%eax, %eax
	subl	%eax, %esi
.LVL375:
.LBE3703:
.LBE3713:
	.loc 34 74 0
	testl	%ecx, %ecx
	.loc 34 80 0
	leal	48(%esi), %eax
	movb	%al, 26(%esp)
.LVL376:
	.loc 34 74 0
	je	.L386
.LVL377:
.LBB3714:
.LBB3704:
	.loc 34 48 0
	movl	$-858993459, %eax
.LVL378:
	mull	%ecx
.LVL379:
	movl	%edx, %esi
	shrl	$3, %esi
	leal	(%esi,%esi,4), %eax
	addl	%eax, %eax
	subl	%eax, %ecx
.LVL380:
.LBE3704:
.LBE3714:
	.loc 34 80 0
	addl	$48, %ecx
	.loc 34 74 0
	testl	%esi, %esi
	.loc 34 80 0
	movb	%cl, 27(%esp)
.LVL381:
	.loc 34 74 0
	je	.L387
.LVL382:
.LBB3715:
.LBB3705:
	.loc 34 48 0
	movl	$-858993459, %eax
.LVL383:
	mull	%esi
.LVL384:
	movl	%edx, %ecx
	shrl	$3, %ecx
	leal	(%ecx,%ecx,4), %eax
	addl	%eax, %eax
	subl	%eax, %esi
.LVL385:
.LBE3705:
.LBE3715:
	.loc 34 74 0
	testl	%ecx, %ecx
	.loc 34 80 0
	leal	48(%esi), %eax
	movb	%al, 28(%esp)
.LVL386:
	.loc 34 74 0
	je	.L388
.LVL387:
.LBB3716:
.LBB3706:
	.loc 34 48 0
	movl	$-858993459, %eax
.LVL388:
	mull	%ecx
.LVL389:
.LBE3706:
.LBE3716:
	.loc 34 74 0
	movl	$10, 12(%esp)
.LBB3717:
.LBB3707:
	.loc 34 48 0
	shrl	$3, %edx
	leal	(%edx,%edx,4), %eax
	addl	%eax, %eax
	subl	%eax, %ecx
.LBE3707:
.LBE3717:
	.loc 34 80 0
	addl	$48, %ecx
	movb	%cl, 29(%esp)
.LVL390:
.L352:
	.loc 34 74 0
	movl	12(%esp), %ebp
	leal	20(%esp), %esi
.LVL391:
	.p2align 4,,7
	.p2align 3
.L354:
	.loc 34 85 0
	subl	$1, %ebp
.LVL392:
	movsbl	(%esi,%ebp), %eax
	movl	%eax, (%esp)
	call	console_putchar
.LVL393:
	.loc 34 84 0
	testl	%ebp, %ebp
	jne	.L354
.LVL394:
.L401:
	movl	12(%esp), %ebp
.L355:
.LBE3695:
.LBE3694:
.LBE3693:
.LBE3692:
	.loc 34 163 0
	movl	%edi, %esi
	.loc 34 164 0
	addl	$1, %ebx
.LVL395:
	.loc 34 163 0
	addl	%ebp, 8(%esp)
.LVL396:
	.loc 34 201 0
	xorl	%edi, %edi
.LVL397:
	jmp	.L330
.LVL398:
	.p2align 4,,7
	.p2align 3
.L333:
.LBB3728:
	.loc 34 173 0
	movl	(%esi), %ebp
	leal	4(%esi), %eax
	.loc 34 174 0
	xorl	%esi, %esi
.LVL399:
	.loc 34 173 0
	movl	%eax, 12(%esp)
.LVL400:
	.loc 34 174 0
	testl	%ebp, %ebp
	jne	.L356
	movl	$.LC0, %ebp
.LVL401:
.LBB3729:
.LBB3730:
	.loc 34 21 0
	movl	$40, %eax
.LVL402:
	.p2align 4,,7
	.p2align 3
.L358:
	.loc 34 22 0
	movl	%eax, (%esp)
	.loc 34 21 0
	addl	$1, %ebp
.LVL403:
	addl	$1, %esi
.LVL404:
	.loc 34 22 0
	call	console_putchar
.LVL405:
	.loc 34 21 0
	movsbl	0(%ebp), %eax
	testb	%al, %al
	jne	.L358
.LBE3730:
.LBE3729:
	.loc 34 178 0
	addl	%esi, 8(%esp)
	.loc 34 180 0
	addl	$1, %ebx
.LVL406:
	.loc 34 173 0
	movl	12(%esp), %esi
.LVL407:
.LBE3728:
	.loc 34 201 0
	xorl	%edi, %edi
.LVL408:
	jmp	.L330
.LVL409:
	.p2align 4,,7
	.p2align 3
.L339:
	.loc 34 168 0
	movl	(%esi), %eax
	leal	4(%esi), %edi
.LVL410:
	.loc 34 169 0
	addl	$1, %ebx
.LVL411:
	.loc 34 168 0
	movl	%edi, %esi
	.loc 34 201 0
	xorl	%edi, %edi
.LVL412:
	.loc 34 168 0
	call	print_unsigned_long.constprop.298
.LVL413:
	addl	%eax, 8(%esp)
.LVL414:
	jmp	.L330
.LVL415:
	.p2align 4,,7
	.p2align 3
.L335:
.LBB3733:
	.loc 34 149 0
	leal	4(%esi), %edi
.LVL416:
	movl	(%esi), %esi
.LVL417:
	.loc 34 151 0
	testl	%esi, %esi
	js	.L404
.L345:
.LVL418:
.LBB3734:
.LBB3735:
	.loc 34 69 0
	testl	%esi, %esi
	je	.L351
.LVL419:
.LBB3736:
.LBB3737:
.LBB3738:
.LBB3739:
	.loc 34 48 0
	movl	$-858993459, %eax
	mull	%esi
	movl	%edx, %ecx
	shrl	$3, %ecx
	leal	(%ecx,%ecx,4), %eax
	addl	%eax, %eax
	subl	%eax, %esi
.LVL420:
.LBE3739:
.LBE3738:
	.loc 34 74 0
	testl	%ecx, %ecx
	.loc 34 80 0
	leal	48(%esi), %eax
	movb	%al, 20(%esp)
.LVL421:
	.loc 34 74 0
	je	.L371
.LVL422:
.LBB3750:
.LBB3740:
	.loc 34 48 0
	movl	$-858993459, %eax
	mull	%ecx
	movl	%edx, %esi
	shrl	$3, %esi
	leal	(%esi,%esi,4), %eax
	addl	%eax, %eax
	subl	%eax, %ecx
.LVL423:
.LBE3740:
.LBE3750:
	.loc 34 80 0
	addl	$48, %ecx
	.loc 34 74 0
	testl	%esi, %esi
	.loc 34 80 0
	movb	%cl, 21(%esp)
.LVL424:
	.loc 34 74 0
	je	.L372
.LVL425:
.LBB3751:
.LBB3741:
	.loc 34 48 0
	movl	$-858993459, %eax
	mull	%esi
	movl	%edx, %ecx
	shrl	$3, %ecx
	leal	(%ecx,%ecx,4), %eax
	addl	%eax, %eax
	subl	%eax, %esi
.LVL426:
.LBE3741:
.LBE3751:
	.loc 34 74 0
	testl	%ecx, %ecx
	.loc 34 80 0
	leal	48(%esi), %eax
	movb	%al, 22(%esp)
.LVL427:
	.loc 34 74 0
	je	.L373
.LVL428:
.LBB3752:
.LBB3742:
	.loc 34 48 0
	movl	$-858993459, %eax
	mull	%ecx
	movl	%edx, %esi
	shrl	$3, %esi
	leal	(%esi,%esi,4), %eax
	addl	%eax, %eax
	subl	%eax, %ecx
.LVL429:
.LBE3742:
.LBE3752:
	.loc 34 80 0
	addl	$48, %ecx
	.loc 34 74 0
	testl	%esi, %esi
	.loc 34 80 0
	movb	%cl, 23(%esp)
.LVL430:
	.loc 34 74 0
	je	.L374
.LVL431:
.LBB3753:
.LBB3743:
	.loc 34 48 0
	movl	$-858993459, %eax
	mull	%esi
	movl	%edx, %ecx
	shrl	$3, %ecx
	leal	(%ecx,%ecx,4), %eax
	addl	%eax, %eax
	subl	%eax, %esi
.LVL432:
.LBE3743:
.LBE3753:
	.loc 34 74 0
	testl	%ecx, %ecx
	.loc 34 80 0
	leal	48(%esi), %eax
	movb	%al, 24(%esp)
.LVL433:
	.loc 34 74 0
	je	.L375
.LVL434:
.LBB3754:
.LBB3744:
	.loc 34 48 0
	movl	$-858993459, %eax
	mull	%ecx
	movl	%edx, %esi
	shrl	$3, %esi
	leal	(%esi,%esi,4), %eax
	addl	%eax, %eax
	subl	%eax, %ecx
.LVL435:
.LBE3744:
.LBE3754:
	.loc 34 80 0
	addl	$48, %ecx
	.loc 34 74 0
	testl	%esi, %esi
	.loc 34 80 0
	movb	%cl, 25(%esp)
.LVL436:
	.loc 34 74 0
	je	.L376
.LVL437:
.LBB3755:
.LBB3745:
	.loc 34 48 0
	movl	$-858993459, %eax
	mull	%esi
	movl	%edx, %ecx
	shrl	$3, %ecx
	leal	(%ecx,%ecx,4), %eax
	addl	%eax, %eax
	subl	%eax, %esi
.LVL438:
.LBE3745:
.LBE3755:
	.loc 34 74 0
	testl	%ecx, %ecx
	.loc 34 80 0
	leal	48(%esi), %eax
	movb	%al, 26(%esp)
.LVL439:
	.loc 34 74 0
	je	.L377
.LVL440:
.LBB3756:
.LBB3746:
	.loc 34 48 0
	movl	$-858993459, %eax
	mull	%ecx
	movl	%edx, %esi
	shrl	$3, %esi
	leal	(%esi,%esi,4), %eax
	addl	%eax, %eax
	subl	%eax, %ecx
.LVL441:
.LBE3746:
.LBE3756:
	.loc 34 80 0
	addl	$48, %ecx
	.loc 34 74 0
	testl	%esi, %esi
	.loc 34 80 0
	movb	%cl, 27(%esp)
.LVL442:
	.loc 34 74 0
	je	.L378
.LVL443:
.LBB3757:
.LBB3747:
	.loc 34 48 0
	movl	$-858993459, %eax
	mull	%esi
	movl	%edx, %ecx
	shrl	$3, %ecx
	leal	(%ecx,%ecx,4), %eax
	addl	%eax, %eax
	subl	%eax, %esi
.LVL444:
.LBE3747:
.LBE3757:
	.loc 34 74 0
	testl	%ecx, %ecx
	.loc 34 80 0
	leal	48(%esi), %eax
	movb	%al, 28(%esp)
.LVL445:
	.loc 34 74 0
	je	.L379
.LVL446:
.LBB3758:
.LBB3748:
	.loc 34 48 0
	movl	$-858993459, %eax
	mull	%ecx
.LVL447:
.LBE3748:
.LBE3758:
	.loc 34 74 0
	movl	$10, 12(%esp)
.LBB3759:
.LBB3749:
	.loc 34 48 0
	shrl	$3, %edx
	leal	(%edx,%edx,4), %eax
	addl	%eax, %eax
	subl	%eax, %ecx
.LBE3749:
.LBE3759:
	.loc 34 80 0
	addl	$48, %ecx
	movb	%cl, 29(%esp)
.LVL448:
.L347:
	.loc 34 74 0
	movl	12(%esp), %ebp
	leal	20(%esp), %esi
.LVL449:
	.p2align 4,,7
	.p2align 3
.L349:
	.loc 34 85 0
	subl	$1, %ebp
.LVL450:
	movsbl	(%esi,%ebp), %eax
	movl	%eax, (%esp)
	call	console_putchar
.LVL451:
	.loc 34 84 0
	testl	%ebp, %ebp
	jne	.L349
	jmp	.L401
.LVL452:
	.p2align 4,,7
	.p2align 3
.L403:
.LBE3737:
.LBE3736:
.LBE3735:
.LBE3734:
.LBE3733:
.LBB3772:
.LBB3773:
	.loc 32 45 0
	.p2align 4,,9
	call	get_console_port
.LVL453:
.LBB3774:
.LBB3775:
	.loc 33 28 0
	movl	$lock_debug, %edx
.LBE3775:
.LBE3774:
	.loc 32 45 0
	movzwl	%ax, %ebp
.LVL454:
.LBB3777:
.LBB3776:
	.loc 33 28 0
#APP
# 28 "/home/mscapero/Desktop/sel4-benchmark/sel4test-manifest/kernel/include/arch/ia32/arch/kernel/lock.h" 1
	1:                 
movl  $1,    %eax 
xchgl (%edx),  %eax 
testl %eax, %eax 
jnz   1b           

# 0 "" 2
#NO_APP
.LBE3776:
.LBE3777:
	.loc 32 49 0
	testw	%bp, %bp
	je	.L341
	leal	5(%ebp), %edi
.LVL455:
	movzwl	%di, %edi
	.p2align 4,,7
	.p2align 3
.L343:
	.loc 32 50 0
	movl	%edi, (%esp)
	call	in8
.LVL456:
	testb	$96, %al
	je	.L343
	.loc 32 51 0
	movl	$37, 4(%esp)
	movl	%ebp, (%esp)
	call	out8
.LVL457:
.L341:
.LBB3778:
.LBB3779:
	.loc 33 42 0
	movl	$0, lock_debug
.LBE3779:
.LBE3778:
.LBE3773:
.LBE3772:
	.loc 34 145 0
	addl	$1, %ebx
.LVL458:
	.loc 34 201 0
	xorl	%edi, %edi
	.loc 34 144 0
	addl	$1, 8(%esp)
.LVL459:
	jmp	.L330
.LVL460:
	.p2align 4,,7
	.p2align 3
.L336:
	.loc 34 190 0
	cmpb	$108, 1(%ebx)
	je	.L405
.LVL461:
.L364:
	.loc 34 194 0
	addl	$3, %ebx
.LVL462:
	.loc 34 201 0
	xorl	%edi, %edi
	jmp	.L330
.LVL463:
	.p2align 4,,7
	.p2align 3
.L356:
.LBB3780:
	.loc 34 174 0
	movl	$.LC1, %edi
.LVL464:
.LBB3731:
.LBB3732:
	.loc 34 21 0
	movl	$48, %eax
.LVL465:
	.p2align 4,,7
	.p2align 3
.L361:
	.loc 34 22 0
	movl	%eax, (%esp)
	.loc 34 21 0
	addl	$1, %edi
.LVL466:
	addl	$1, %esi
.LVL467:
	.loc 34 22 0
	call	console_putchar
.LVL468:
	.loc 34 21 0
	movsbl	(%edi), %eax
	testb	%al, %al
	jne	.L361
.LVL469:
.LBE3732:
.LBE3731:
	.loc 34 178 0
	movl	%ebp, %eax
	.loc 34 180 0
	addl	$1, %ebx
.LVL470:
	.loc 34 178 0
	call	print_unsigned_long.constprop.298
.LVL471:
.LBE3780:
	.loc 34 201 0
	xorl	%edi, %edi
.LVL472:
.LBB3781:
	.loc 34 177 0
	addl	%eax, %esi
.LVL473:
	.loc 34 178 0
	addl	%esi, 8(%esp)
.LVL474:
	.loc 34 173 0
	movl	12(%esp), %esi
	jmp	.L330
.LVL475:
	.p2align 4,,7
	.p2align 3
.L405:
.LBE3781:
	.loc 34 190 0
	cmpb	$120, 2(%ebx)
	jne	.L364
.LBB3782:
	.loc 34 191 0
	leal	8(%esi), %eax
	movl	(%esi), %edi
.LVL476:
	movl	%eax, 12(%esp)
.LVL477:
	movl	4(%esi), %eax
.LVL478:
.LBB3783:
.LBB3784:
	.loc 34 96 0
	xorl	%esi, %esi
	.loc 34 109 0
	testl	%eax, %eax
	jne	.L406
.LVL479:
.L365:
	.loc 34 121 0
	movl	%edi, %eax
	call	print_unsigned_long.constprop.298
.LVL480:
	addl	%eax, %esi
.LVL481:
.LBE3784:
.LBE3783:
	.loc 34 192 0
	addl	%esi, 8(%esp)
	.loc 34 191 0
	movl	12(%esp), %esi
.LVL482:
	jmp	.L364
.LVL483:
	.p2align 4,,7
	.p2align 3
.L351:
.LBE3782:
.LBB3787:
.LBB3724:
	.loc 34 70 0
	call	console_putchar.constprop.295
.LVL484:
	.loc 34 71 0
	movl	$1, %ebp
	jmp	.L355
.LVL485:
.L404:
.LBE3724:
.LBE3787:
.LBB3788:
	.loc 34 152 0
	movl	$45, (%esp)
	.loc 34 154 0
	negl	%esi
.LVL486:
	.loc 34 152 0
	call	console_putchar
.LVL487:
	.loc 34 153 0
	addl	$1, 8(%esp)
.LVL488:
	jmp	.L345
.LVL489:
	.p2align 4,,7
	.p2align 3
.L370:
.LBE3788:
.LBE3796:
.LBE3799:
	.loc 34 231 0
	addl	$44, %esp
	.cfi_remember_state
	.cfi_def_cfa_offset 20
.LBB3800:
.LBB3797:
	.loc 34 133 0
	xorl	%eax, %eax
.LVL490:
.LBE3797:
.LBE3800:
	.loc 34 231 0
	popl	%ebx
	.cfi_restore 3
	.cfi_def_cfa_offset 16
.LVL491:
	popl	%esi
	.cfi_restore 6
	.cfi_def_cfa_offset 12
.LVL492:
	popl	%edi
	.cfi_restore 7
	.cfi_def_cfa_offset 8
	popl	%ebp
	.cfi_restore 5
	.cfi_def_cfa_offset 4
	ret
.LVL493:
.L376:
	.cfi_restore_state
.LBB3801:
.LBB3798:
.LBB3789:
.LBB3769:
.LBB3766:
.LBB3763:
.LBB3760:
	.loc 34 74 0
	movl	$6, 12(%esp)
	jmp	.L347
.LVL494:
.L377:
	movl	$7, 12(%esp)
	jmp	.L347
.LVL495:
.L378:
	movl	$8, 12(%esp)
	jmp	.L347
.LVL496:
.L379:
	movl	$9, 12(%esp)
	jmp	.L347
.LVL497:
.L380:
.LBE3760:
.LBE3763:
.LBE3766:
.LBE3769:
.LBE3789:
.LBB3790:
.LBB3725:
.LBB3721:
.LBB3718:
	movl	$1, 12(%esp)
	jmp	.L352
.LVL498:
.L381:
	movl	$2, 12(%esp)
	jmp	.L352
.LVL499:
.L382:
	movl	$3, 12(%esp)
	jmp	.L352
.LVL500:
.L383:
	movl	$4, 12(%esp)
	jmp	.L352
.LVL501:
.L372:
.LBE3718:
.LBE3721:
.LBE3725:
.LBE3790:
.LBB3791:
.LBB3770:
.LBB3767:
.LBB3764:
.LBB3761:
	movl	$2, 12(%esp)
	jmp	.L347
.LVL502:
.L373:
	movl	$3, 12(%esp)
	jmp	.L347
.LVL503:
.L374:
	movl	$4, 12(%esp)
	jmp	.L347
.LVL504:
.L375:
	movl	$5, 12(%esp)
	jmp	.L347
.LVL505:
.L384:
.LBE3761:
.LBE3764:
.LBE3767:
.LBE3770:
.LBE3791:
.LBB3792:
.LBB3726:
.LBB3722:
.LBB3719:
	movl	$5, 12(%esp)
	jmp	.L352
.LVL506:
.L385:
	movl	$6, 12(%esp)
	jmp	.L352
.LVL507:
.L386:
	movl	$7, 12(%esp)
	jmp	.L352
.LVL508:
.L387:
	movl	$8, 12(%esp)
	jmp	.L352
.LVL509:
.L371:
.LBE3719:
.LBE3722:
.LBE3726:
.LBE3792:
.LBB3793:
.LBB3771:
.LBB3768:
.LBB3765:
.LBB3762:
	movl	$1, 12(%esp)
	jmp	.L347
.LVL510:
.L388:
.LBE3762:
.LBE3765:
.LBE3768:
.LBE3771:
.LBE3793:
.LBB3794:
.LBB3727:
.LBB3723:
.LBB3720:
	movl	$9, 12(%esp)
	jmp	.L352
.LVL511:
.L406:
.LBE3720:
.LBE3723:
.LBE3727:
.LBE3794:
.LBB3795:
.LBB3786:
.LBB3785:
	.loc 34 110 0
	call	print_unsigned_long.constprop.298
.LVL512:
	.loc 34 113 0
	testl	$-268435456, %edi
	.loc 34 110 0
	movl	%eax, %esi
.LVL513:
	.loc 34 113 0
	jne	.L365
	.loc 34 97 0
	movl	$-268435456, %ebp
.LVL514:
.L366:
	.loc 34 116 0
	shrl	$4, %ebp
.LVL515:
	.loc 34 115 0
	addl	$1, %esi
.LVL516:
	.loc 34 114 0
	call	console_putchar.constprop.295
.LVL517:
	.loc 34 113 0
	testl	%ebp, %edi
	je	.L366
	jmp	.L365
.LBE3785:
.LBE3786:
.LBE3795:
.LBE3798:
.LBE3801:
	.cfi_endproc
.LFE495:
	.size	printf, .-printf
	.section	.rodata.str1.4,"aMS",@progbits,1
	.align 4
.LC2:
	.string	"\n========== KERNEL EXCEPTION ==========\n"
	.section	.rodata.str1.1
.LC3:
	.string	"Vector:  0x%x\n"
.LC4:
	.string	"ErrCode: 0x%x\n"
.LC5:
	.string	"EIP:     0x%x\n"
.LC6:
	.string	"ESP:     0x%x\n"
.LC7:
	.string	"EFLAGS:  0x%x\n"
.LC8:
	.string	"CR0:     0x%x\n"
	.section	.rodata.str1.4
	.align 4
.LC9:
	.string	"CR2:     0x%x (page-fault address)\n"
	.align 4
.LC10:
	.string	"CR3:     0x%x (page-directory physical address)\n"
	.section	.rodata.str1.1
.LC11:
	.string	"CR4:     0x%x\n"
.LC12:
	.string	"\nStack Dump:\n"
.LC13:
	.string	"*0x%x == 0x%x\n"
.LC14:
	.string	"\nHalting...\n"
	.text
	.p2align 4,,15
	.globl	handleKernelException
	.type	handleKernelException, @function
handleKernelException:
.LFB268:
	.file 35 "/home/mscapero/Desktop/sel4-benchmark/sel4test-manifest/kernel/src/arch/ia32/api/faults.c"
	.loc 35 123 0
	.cfi_startproc
.LVL518:
	pushl	%ebp
	.cfi_def_cfa_offset 8
	.cfi_offset 5, -8
	pushl	%edi
	.cfi_def_cfa_offset 12
	.cfi_offset 7, -12
	pushl	%esi
	.cfi_def_cfa_offset 16
	.cfi_offset 6, -16
	pushl	%ebx
	.cfi_def_cfa_offset 20
	.cfi_offset 3, -20
	subl	$44, %esp
	.cfi_def_cfa_offset 64
	.loc 35 123 0
	movl	64(%esp), %ecx
	movl	68(%esp), %edx
	movl	84(%esp), %eax
	.loc 35 126 0
	movl	$.LC2, (%esp)
	.loc 35 123 0
	movl	96(%esp), %esi
	movl	%ecx, 28(%esp)
	movl	92(%esp), %ecx
	movl	%edx, 24(%esp)
	movl	88(%esp), %edx
	movl	72(%esp), %ebp
	movl	76(%esp), %ebx
	movl	80(%esp), %edi
	movl	%edx, 16(%esp)
	movl	%ecx, 20(%esp)
	movl	%eax, 12(%esp)
	.loc 35 126 0
	call	printf
.LVL519:
	.loc 35 127 0
	movl	28(%esp), %ecx
	movl	$.LC3, (%esp)
	movl	%ecx, 4(%esp)
	call	printf
.LVL520:
	.loc 35 128 0
	movl	24(%esp), %edx
	movl	$.LC4, (%esp)
	movl	%edx, 4(%esp)
	call	printf
.LVL521:
	.loc 35 129 0
	movl	%ebp, 4(%esp)
	movl	$.LC5, (%esp)
	call	printf
.LVL522:
	.loc 35 130 0
	movl	%ebx, 4(%esp)
	movl	$.LC6, (%esp)
	call	printf
.LVL523:
	.loc 35 131 0
	movl	%edi, 4(%esp)
	movl	$.LC7, (%esp)
	call	printf
.LVL524:
	.loc 35 132 0
	movl	12(%esp), %eax
	movl	$.LC8, (%esp)
	movl	%eax, 4(%esp)
	call	printf
.LVL525:
	.loc 35 133 0
	movl	16(%esp), %edx
	movl	$.LC9, (%esp)
	movl	%edx, 4(%esp)
	call	printf
.LVL526:
	.loc 35 134 0
	movl	20(%esp), %ecx
	movl	$.LC10, (%esp)
	movl	%ecx, 4(%esp)
	call	printf
.LVL527:
	.loc 35 135 0
	movl	%esi, 4(%esp)
	.loc 35 137 0
	xorl	%esi, %esi
	.loc 35 135 0
	movl	$.LC11, (%esp)
	call	printf
.LVL528:
	.loc 35 136 0
	movl	$.LC12, (%esp)
	call	printf
.LVL529:
	.p2align 4,,7
	.p2align 3
.L409:
	.loc 35 138 0 discriminator 2
	movl	(%ebx), %eax
	.loc 35 137 0 discriminator 2
	addl	$1, %esi
.LVL530:
	.loc 35 138 0 discriminator 2
	movl	%ebx, 4(%esp)
	addl	$4, %ebx
	movl	$.LC13, (%esp)
	movl	%eax, 8(%esp)
	call	printf
.LVL531:
	.loc 35 137 0 discriminator 2
	cmpl	$20, %esi
	jne	.L409
	.loc 35 140 0
	movl	$.LC14, 64(%esp)
	.loc 35 141 0
	addl	$44, %esp
	.cfi_def_cfa_offset 20
	popl	%ebx
	.cfi_restore 3
	.cfi_def_cfa_offset 16
	popl	%esi
	.cfi_restore 6
	.cfi_def_cfa_offset 12
.LVL532:
	popl	%edi
	.cfi_restore 7
	.cfi_def_cfa_offset 8
	popl	%ebp
	.cfi_restore 5
	.cfi_def_cfa_offset 4
	.loc 35 140 0
	jmp	printf
.LVL533:
	.cfi_endproc
.LFE268:
	.size	handleKernelException, .-handleKernelException
	.section	.rodata.str1.1
.LC15:
	.string	"APIC: Enabled bit not set\n"
	.section	.boot.text
	.p2align 4,,15
	.globl	apic_get_base_paddr
	.type	apic_get_base_paddr, @function
apic_get_base_paddr:
.LFB299:
	.loc 8 92 0
	.cfi_startproc
	pushl	%ebx
	.cfi_def_cfa_offset 8
	.cfi_offset 3, -8
	subl	$24, %esp
	.cfi_def_cfa_offset 32
	.loc 8 95 0
	movl	$27, (%esp)
	call	ia32_rdmsr_low
.LVL534:
	.loc 8 96 0
	testb	$8, %ah
	.loc 8 95 0
	movl	%eax, %ebx
.LVL535:
	.loc 8 96 0
	jne	.L412
	.loc 8 97 0
	movl	$.LC15, (%esp)
	call	printf
.LVL536:
.L412:
.LBB3806:
.LBB3807:
	.loc 27 253 0
	movl	%ebx, %eax
.LBE3807:
.LBE3806:
	.loc 8 101 0
	addl	$24, %esp
	.cfi_def_cfa_offset 8
.LBB3809:
.LBB3808:
	.loc 27 253 0
	andl	$-4096, %eax
.LBE3808:
.LBE3809:
	.loc 8 101 0
	popl	%ebx
	.cfi_restore 3
	.cfi_def_cfa_offset 4
.LVL537:
	ret
	.cfi_endproc
.LFE299:
	.size	apic_get_base_paddr, .-apic_get_base_paddr
	.section	.rodata.str1.1
.LC16:
	.string	"\n"
.LC17:
	.string	" -> IGNORED! (too many)\n"
	.section	.boot.text
	.p2align 4,,15
	.globl	insert_dev_p_reg
	.type	insert_dev_p_reg, @function
insert_dev_p_reg:
.LFB319:
	.loc 9 210 0
	.cfi_startproc
.LVL538:
	.loc 9 211 0
	movl	glks+828, %ecx
	.loc 9 210 0
	movl	4(%esp), %eax
	movl	8(%esp), %edx
	.loc 9 211 0
	cmpl	$198, %ecx
	jbe	.L416
	.loc 9 216 0
	movl	$.LC17, 4(%esp)
	jmp	printf
.LVL539:
	.p2align 4,,7
	.p2align 3
.L416:
	.loc 9 212 0
	movl	%eax, glks+832(,%ecx,8)
	movl	%edx, glks+836(,%ecx,8)
	.loc 9 213 0
	addl	$1, %ecx
	movl	%ecx, glks+828
	.loc 9 214 0
	movl	$.LC16, 4(%esp)
	jmp	printf
.LVL540:
	.cfi_endproc
.LFE319:
	.size	insert_dev_p_reg, .-insert_dev_p_reg
	.section	.rodata.str1.4
	.align 4
.LC18:
	.string	"\033[0m\033[30;1m<<\033[0m\033[32mseL4\033[0m\033[30;1m [%s/%d T%x @%x]: "
	.section	.rodata.str1.1
.LC19:
	.string	"IPC Buffer is an invalid cap."
.LC20:
	.string	">>\033[0m\n"
	.section	.rodata.str1.4
	.align 4
.LC21:
	.string	"IPC Buffer vaddr 0x%x is not aligned."
	.text
	.p2align 4,,15
	.globl	checkValidIPCBuffer
	.type	checkValidIPCBuffer, @function
checkValidIPCBuffer:
.LFB364:
	.loc 4 1110 0
	.cfi_startproc
.LVL541:
	subl	$44, %esp
	.cfi_def_cfa_offset 48
	.loc 4 1110 0
	movl	52(%esp), %edx
.LVL542:
.LBB3825:
.LBB3826:
	.loc 27 872 0
	movl	%edx, %ecx
	.loc 27 873 0
	movl	%edx, %eax
	.loc 27 872 0
	andl	$14, %ecx
	.loc 27 873 0
	andl	$15, %eax
	movzbl	%dl, %edx
.LVL543:
	cmpl	$14, %ecx
	cmove	%edx, %eax
.LVL544:
.LBE3826:
.LBE3825:
	.loc 4 1111 0
	cmpl	$1, %eax
	je	.L420
	.loc 4 1112 0
	movl	ksCurThread, %eax
.LVL545:
	movl	44(%eax), %edx
.LVL546:
	movl	%eax, 12(%esp)
	movl	$1112, 8(%esp)
	movl	$__func__.5159, 4(%esp)
	movl	%edx, 16(%esp)
	movl	$.LC18, (%esp)
	call	printf
.LVL547:
	movl	$.LC19, (%esp)
	call	printf
.LVL548:
	movl	$.LC20, (%esp)
	call	printf
.LVL549:
	.loc 4 1114 0
	movl	$3, %eax
	.loc 4 1113 0
	movl	$3, current_syscall_error+24
.LVL550:
.L421:
	.loc 4 1124 0
	addl	$44, %esp
	.cfi_remember_state
	.cfi_def_cfa_offset 4
	ret
	.p2align 4,,7
	.p2align 3
.L420:
	.cfi_restore_state
	.loc 4 1123 0
	xorl	%eax, %eax
	.loc 4 1117 0
	testl	$511, 48(%esp)
	je	.L421
.LVL551:
.LBB3827:
.LBB3828:
	.loc 4 1118 0
	movl	ksCurThread, %eax
.LVL552:
	movl	44(%eax), %edx
.LVL553:
	movl	%eax, 12(%esp)
	movl	$1118, 8(%esp)
	movl	$__func__.5159, 4(%esp)
	movl	%edx, 16(%esp)
	movl	$.LC18, (%esp)
	call	printf
.LVL554:
	movl	48(%esp), %eax
	movl	$.LC21, (%esp)
	movl	%eax, 4(%esp)
	call	printf
.LVL555:
	movl	$.LC20, (%esp)
	call	printf
.LVL556:
	.loc 4 1119 0
	movl	$3, %eax
	movl	$5, current_syscall_error+24
.LBE3828:
.LBE3827:
	.loc 4 1124 0
	addl	$44, %esp
	.cfi_def_cfa_offset 4
	ret
	.cfi_endproc
.LFE364:
	.size	checkValidIPCBuffer, .-checkValidIPCBuffer
	.section	.rodata.str1.1
.LC22:
	.string	"Cacheline size must be >0\n"
	.section	.rodata.str1.4
	.align 4
.LC23:
	.string	"Cacheline size must be a power of two\n"
	.section	.boot.text
	.p2align 4,,15
	.globl	getCacheLineSizeBits
	.type	getCacheLineSizeBits, @function
getCacheLineSizeBits:
.LFB403:
	.loc 16 42 0
	.cfi_startproc
	subl	$28, %esp
	.cfi_def_cfa_offset 32
	.loc 16 46 0
	call	getCacheLineSize
.LVL557:
	.loc 16 47 0
	testl	%eax, %eax
	.loc 16 46 0
	movl	%eax, %edx
.LVL558:
	.loc 16 47 0
	je	.L426
.LVL559:
	.loc 16 54 0 discriminator 1
	xorl	%eax, %eax
.LVL560:
	testb	$1, %dl
	jne	.L428
.LVL561:
	.p2align 4,,7
	.p2align 3
.L432:
	.loc 16 55 0
	shrl	%edx
.LVL562:
	.loc 16 56 0
	addl	$1, %eax
.LVL563:
	.loc 16 54 0
	testb	$1, %dl
	je	.L432
.LVL564:
.L428:
	.loc 16 59 0
	cmpl	$1, %edx
	je	.L429
	.loc 16 60 0
	movl	$.LC23, (%esp)
	call	printf
.LVL565:
	.loc 16 61 0
	xorl	%eax, %eax
.L429:
	.loc 16 65 0
	addl	$28, %esp
	.cfi_remember_state
	.cfi_def_cfa_offset 4
	ret
.LVL566:
	.p2align 4,,7
	.p2align 3
.L426:
	.cfi_restore_state
	.loc 16 48 0
	movl	$.LC22, (%esp)
	call	printf
.LVL567:
	.loc 16 49 0
	xorl	%eax, %eax
	.loc 16 65 0
	addl	$28, %esp
	.cfi_def_cfa_offset 4
	ret
	.cfi_endproc
.LFE403:
	.size	getCacheLineSizeBits, .-getCacheLineSizeBits
	.section	.rodata.str1.4
	.align 4
.LC24:
	.string	"seL4 called fail at %s:%u in function %s, saying \"%s\"\n"
	.text
	.p2align 4,,15
	.globl	_fail
	.type	_fail, @function
_fail:
.LFB428:
	.file 36 "/home/mscapero/Desktop/sel4-benchmark/sel4test-manifest/kernel/src/assert.c"
	.loc 36 21 0
	.cfi_startproc
.LVL568:
	subl	$44, %esp
	.cfi_def_cfa_offset 48
	.loc 36 22 0
	movl	48(%esp), %eax
	movl	$.LC24, (%esp)
	movl	%eax, 16(%esp)
	movl	60(%esp), %eax
	movl	%eax, 12(%esp)
	movl	56(%esp), %eax
	movl	%eax, 8(%esp)
	movl	52(%esp), %eax
	movl	%eax, 4(%esp)
	call	printf
.LVL569:
	.loc 36 29 0
	call	halt
.LVL570:
	.cfi_endproc
.LFE428:
	.size	_fail, .-_fail
	.section	.rodata.str1.4
	.align 4
.LC25:
	.string	"/home/mscapero/Desktop/sel4-benchmark/sel4test-manifest/kernel/include/arch/ia32/arch/machine/hardware.h"
	.section	.rodata.str1.1
.LC26:
	.string	"Invalid page size"
	.text
	.p2align 4,,15
	.type	pageBitsForSize.part.45, @function
pageBitsForSize.part.45:
.LFB682:
	.file 37 "/home/mscapero/Desktop/sel4-benchmark/sel4test-manifest/kernel/include/arch/ia32/arch/machine/hardware.h"
	.loc 37 39 0
	.cfi_startproc
.LVL571:
	subl	$28, %esp
	.cfi_def_cfa_offset 32
	.loc 37 49 0
	movl	$__func__.2276, 12(%esp)
	movl	$49, 8(%esp)
	movl	$.LC25, 4(%esp)
	movl	$.LC26, (%esp)
	call	_fail
.LVL572:
	.cfi_endproc
.LFE682:
	.size	pageBitsForSize.part.45, .-pageBitsForSize.part.45
	.section	.rodata.str1.4
	.align 4
.LC27:
	.string	"/home/mscapero/Desktop/sel4-benchmark/sel4test-manifest/kernel/src/arch/ia32/kernel/boot_sys.c"
	.section	.rodata.str1.1
.LC28:
	.string	"Couldn't find node of CPU"
	.section	.boot.text
	.p2align 4,,15
	.type	node_of_cpu.part.46, @function
node_of_cpu.part.46:
.LFB683:
	.loc 9 238 0
	.cfi_startproc
.LVL573:
	subl	$28, %esp
	.cfi_def_cfa_offset 32
	.loc 9 248 0
	movl	$__func__.4752, 12(%esp)
	movl	$248, 8(%esp)
	movl	$.LC27, 4(%esp)
	movl	$.LC28, (%esp)
	call	_fail
.LVL574:
	.cfi_endproc
.LFE683:
	.size	node_of_cpu.part.46, .-node_of_cpu.part.46
	.p2align 4,,15
	.globl	node_of_cpu
	.type	node_of_cpu, @function
node_of_cpu:
.LFB321:
	.loc 9 239 0
	.cfi_startproc
.LVL575:
	subl	$12, %esp
	.cfi_def_cfa_offset 16
.LVL576:
	.loc 9 242 0
	movl	glks+24, %edx
	.loc 9 239 0
	movl	16(%esp), %ecx
	.loc 9 242 0
	testl	%edx, %edx
	je	.L443
	xorl	%eax, %eax
	.loc 9 243 0
	cmpl	%ecx, glks+28
	je	.L455
.LVL577:
	.p2align 4,,7
	.p2align 3
.L446:
	.loc 9 242 0
	addl	$1, %eax
.LVL578:
	cmpl	%edx, %eax
	je	.L443
	.loc 9 243 0
	cmpl	%ecx, glks+28(,%eax,4)
	jne	.L446
.LVL579:
.L450:
	.loc 9 249 0
	addl	$12, %esp
	.cfi_remember_state
	.cfi_def_cfa_offset 4
	ret
.LVL580:
.L455:
	.cfi_restore_state
	.loc 9 242 0
	xorl	%eax, %eax
	jmp	.L450
.LVL581:
.L443:
	.p2align 4,,7
	call	node_of_cpu.part.46
.LVL582:
	.cfi_endproc
.LFE321:
	.size	node_of_cpu, .-node_of_cpu
	.text
	.p2align 4,,15
	.type	get_console_port, @function
get_console_port:
.LFB615:
	.loc 32 19 0
	.cfi_startproc
	subl	$12, %esp
	.cfi_def_cfa_offset 16
.LBB3841:
.LBB3842:
	.loc 9 120 0
	call	get_current_esp
.LVL583:
.LBB3843:
.LBB3844:
	.loc 10 41 0
	addl	$536870912, %eax
.LVL584:
.LBE3844:
.LBE3843:
	.loc 9 122 0
	cmpl	$524288, %eax
	jbe	.L457
	cmpl	$_boot_stack_top, %eax
	jbe	.L475
.L458:
.LBE3842:
.LBE3841:
	.loc 32 23 0
	movzwl	ia32KSconsolePort, %eax
.LVL585:
	.loc 32 25 0
	addl	$12, %esp
	.cfi_remember_state
	.cfi_def_cfa_offset 4
	ret
.LVL586:
	.p2align 4,,7
	.p2align 3
.L475:
	.cfi_restore_state
.LBB3846:
.LBB3845:
	.loc 9 123 0
	cmpl	$_boot_stack_bottom, %eax
	jbe	.L458
.L457:
.LBE3845:
.LBE3846:
.LBB3847:
.LBB3848:
	.loc 9 226 0
	call	get_current_esp
.LVL587:
.LBB3849:
.LBB3850:
	.loc 10 41 0
	addl	$536870912, %eax
.LVL588:
.LBE3850:
.LBE3849:
	.loc 9 228 0
	cmpl	$_boot_stack_top, %eax
	jbe	.L467
.L459:
	.loc 9 231 0
	shrl	$11, %eax
.LVL589:
.L460:
.LBE3848:
.LBE3847:
.LBB3852:
.LBB3853:
	.loc 9 242 0
	movl	glks+24, %ecx
	testl	%ecx, %ecx
	je	.L461
	xorl	%edx, %edx
	.loc 9 243 0
	cmpl	%eax, glks+28
	je	.L476
.LVL590:
	.p2align 4,,7
	.p2align 3
.L464:
	.loc 9 242 0
	addl	$1, %edx
.LVL591:
	cmpl	%ecx, %edx
	je	.L461
	.loc 9 243 0
	cmpl	%eax, glks+28(,%edx,4)
	jne	.L464
.LVL592:
.L462:
.LBE3853:
.LBE3852:
.LBB3855:
.LBB3856:
	.loc 9 129 0
	movzwl	cmdline_opt(%edx,%edx), %eax
.LVL593:
.LBE3856:
.LBE3855:
	.loc 32 25 0
	addl	$12, %esp
	.cfi_remember_state
	.cfi_def_cfa_offset 4
	ret
.LVL594:
	.p2align 4,,7
	.p2align 3
.L467:
	.cfi_restore_state
.LBB3857:
.LBB3851:
	.loc 9 228 0
	cmpl	$_boot_stack_bottom, %eax
	jbe	.L459
	.loc 9 229 0
	movl	glks+28, %eax
.LVL595:
	jmp	.L460
.LVL596:
.L476:
.LBE3851:
.LBE3857:
.LBB3858:
.LBB3854:
	.loc 9 242 0
	xorl	%edx, %edx
	jmp	.L462
.LVL597:
.L461:
	call	node_of_cpu.part.46
.LVL598:
.LBE3854:
.LBE3858:
	.cfi_endproc
.LFE615:
	.size	get_console_port, .-get_console_port
	.p2align 4,,15
	.type	console_putchar.constprop.295, @function
console_putchar.constprop.295:
.LFB859:
	.loc 32 43 0
	.cfi_startproc
.LVL599:
	pushl	%esi
	.cfi_def_cfa_offset 8
	.cfi_offset 6, -8
	pushl	%ebx
	.cfi_def_cfa_offset 12
	.cfi_offset 3, -12
	subl	$20, %esp
	.cfi_def_cfa_offset 32
	.loc 32 45 0
	call	get_console_port
.LVL600:
.LBB3859:
.LBB3860:
	.loc 33 28 0
	movl	$lock_debug, %edx
.LBE3860:
.LBE3859:
	.loc 32 45 0
	movzwl	%ax, %esi
.LVL601:
.LBB3862:
.LBB3861:
	.loc 33 28 0
#APP
# 28 "/home/mscapero/Desktop/sel4-benchmark/sel4test-manifest/kernel/include/arch/ia32/arch/kernel/lock.h" 1
	1:                 
movl  $1,    %eax 
xchgl (%edx),  %eax 
testl %eax, %eax 
jnz   1b           

# 0 "" 2
#NO_APP
.LBE3861:
.LBE3862:
	.loc 32 49 0
	testw	%si, %si
	je	.L478
	leal	5(%esi), %ebx
	movzwl	%bx, %ebx
	.p2align 4,,7
	.p2align 3
.L480:
	.loc 32 50 0
	movl	%ebx, (%esp)
	call	in8
.LVL602:
	testb	$96, %al
	je	.L480
	.loc 32 51 0
	movl	$48, 4(%esp)
	movl	%esi, (%esp)
	call	out8
.LVL603:
.L478:
.LBB3863:
.LBB3864:
	.loc 33 42 0
	movl	$0, lock_debug
.LBE3864:
.LBE3863:
	.loc 32 59 0
	addl	$20, %esp
	.cfi_def_cfa_offset 12
	popl	%ebx
	.cfi_restore 3
	.cfi_def_cfa_offset 8
	popl	%esi
	.cfi_restore 6
	.cfi_def_cfa_offset 4
.LVL604:
	ret
	.cfi_endproc
.LFE859:
	.size	console_putchar.constprop.295, .-console_putchar.constprop.295
	.p2align 4,,15
	.globl	print_unsigned_long
	.type	print_unsigned_long, @function
print_unsigned_long:
.LFB492:
	.loc 34 56 0
	.cfi_startproc
.LVL605:
	pushl	%esi
	.cfi_def_cfa_offset 8
	.cfi_offset 6, -8
	pushl	%ebx
	.cfi_def_cfa_offset 12
	.cfi_offset 3, -12
	subl	$36, %esp
	.cfi_def_cfa_offset 48
	.loc 34 56 0
	movl	52(%esp), %edx
	movl	48(%esp), %ecx
	.loc 34 65 0
	cmpl	$16, %edx
	jne	.L535
	.loc 34 69 0
	testl	%ecx, %ecx
	je	.L488
.L538:
	xorl	%esi, %esi
	cmpl	$10, %edx
.LBB3871:
.LBB3872:
.LBB3873:
.LBB3874:
	.loc 34 35 0
	movl	$-858993459, %ebx
	je	.L498
	cmpl	$16, %edx
	jne	.L533
.L522:
.LVL606:
.LBE3874:
.LBE3873:
.LBB3879:
.LBB3880:
	.loc 34 46 0
	movl	%ecx, %eax
	andl	$15, %eax
.LBE3880:
.LBE3879:
	.loc 34 77 0
	cmpl	$9, %eax
	jbe	.L536
	.loc 34 78 0
	addl	$87, %eax
	movb	%al, 21(%esp,%esi)
.LVL607:
.L514:
.LBB3882:
.LBB3875:
	.loc 34 33 0
	shrl	$4, %ecx
.LVL608:
.LBE3875:
.LBE3882:
	.loc 34 74 0
	addl	$1, %esi
.LVL609:
	testl	%ecx, %ecx
	jne	.L522
.LVL610:
	.p2align 4,,7
	.p2align 3
.L497:
.LBE3872:
.LBE3871:
	.loc 34 69 0
	movl	%esi, %ebx
.LVL611:
	.p2align 4,,7
	.p2align 3
.L499:
.LBB3889:
.LBB3887:
	.loc 34 85 0
	subl	$1, %ebx
.LVL612:
	movsbl	21(%esp,%ebx), %eax
	movl	%eax, (%esp)
	call	console_putchar
.LVL613:
	.loc 34 84 0
	testl	%ebx, %ebx
	jne	.L499
	.loc 34 74 0
	movl	%esi, %eax
.LVL614:
.L511:
.LBE3887:
.LBE3889:
	.loc 34 89 0
	addl	$36, %esp
	.cfi_remember_state
	.cfi_def_cfa_offset 12
	popl	%ebx
	.cfi_restore 3
	.cfi_def_cfa_offset 8
	popl	%esi
	.cfi_restore 6
	.cfi_def_cfa_offset 4
	ret
	.p2align 4,,7
	.p2align 3
.L498:
	.cfi_restore_state
.LVL615:
.LBB3890:
.LBB3888:
.LBB3883:
.LBB3881:
	.loc 34 48 0
	movl	%ecx, %eax
	mull	%ebx
	shrl	$3, %edx
	leal	(%edx,%edx,4), %eax
	addl	%eax, %eax
	subl	%eax, %ecx
.LVL616:
	addl	$48, %ecx
	movb	%cl, 21(%esp,%esi)
.LVL617:
.LBE3881:
.LBE3883:
	.loc 34 74 0
	addl	$1, %esi
.LVL618:
	testl	%edx, %edx
.LBB3884:
.LBB3876:
	.loc 34 35 0
	movl	%edx, %ecx
.LVL619:
.LBE3876:
.LBE3884:
	.loc 34 74 0
	jne	.L498
	jmp	.L497
.LVL620:
	.p2align 4,,7
	.p2align 3
.L537:
.LBB3885:
.LBB3877:
	.loc 34 33 0
	shrl	$4, %ecx
.LVL621:
.LBE3877:
.LBE3885:
	.loc 34 74 0
	addl	$1, %esi
.LVL622:
	testl	%ecx, %ecx
	je	.L497
.LVL623:
.L533:
.LBB3886:
.LBB3878:
	.loc 34 31 0
	cmpl	$16, %edx
	movb	$48, 21(%esp,%esi)
.LVL624:
	je	.L537
.LVL625:
.LBE3878:
.LBE3886:
	.loc 34 74 0
	addl	$1, %esi
.LVL626:
	jmp	.L497
.LVL627:
	.p2align 4,,7
	.p2align 3
.L535:
.LBE3888:
.LBE3890:
	.loc 34 66 0
	xorl	%eax, %eax
	.loc 34 65 0
	cmpl	$10, %edx
	jne	.L511
	.loc 34 69 0
	testl	%ecx, %ecx
	jne	.L538
.L488:
	.loc 34 70 0
	call	console_putchar.constprop.295
.LVL628:
	.loc 34 89 0
	addl	$36, %esp
	.cfi_remember_state
	.cfi_def_cfa_offset 12
	.loc 34 71 0
	movl	$1, %eax
	.loc 34 89 0
	popl	%ebx
	.cfi_restore 3
	.cfi_def_cfa_offset 8
	popl	%esi
	.cfi_restore 6
	.cfi_def_cfa_offset 4
	ret
.LVL629:
.L536:
	.cfi_restore_state
	addl	$48, %eax
	movb	%al, 21(%esp,%esi)
.LVL630:
	jmp	.L514
	.cfi_endproc
.LFE492:
	.size	print_unsigned_long, .-print_unsigned_long
	.p2align 4,,15
	.type	print_unsigned_long.constprop.298, @function
print_unsigned_long.constprop.298:
.LFB856:
	.loc 34 55 0
	.cfi_startproc
.LVL631:
	pushl	%esi
	.cfi_def_cfa_offset 8
	.cfi_offset 6, -8
	pushl	%ebx
	.cfi_def_cfa_offset 12
	.cfi_offset 3, -12
	subl	$36, %esp
	.cfi_def_cfa_offset 48
	.loc 34 69 0
	testl	%eax, %eax
	je	.L540
.LBB3897:
.LBB3898:
.LBB3899:
.LBB3900:
	.loc 34 46 0
	movl	%eax, %ecx
	andl	$15, %ecx
	cmpl	$9, %ecx
.LBE3900:
.LBE3899:
	.loc 34 78 0
	leal	87(%ecx), %ebx
	.loc 34 80 0
	leal	48(%ecx), %edx
.LBB3907:
.LBB3908:
	.loc 34 33 0
	movl	%eax, %ecx
	cmova	%ebx, %edx
	shrl	$4, %ecx
.LBE3908:
.LBE3907:
	.loc 34 74 0
	testl	%ecx, %ecx
	movb	%dl, 21(%esp)
.LVL632:
	je	.L545
.LVL633:
.LBB3915:
.LBB3901:
	.loc 34 46 0
	andl	$15, %ecx
	cmpl	$9, %ecx
.LBE3901:
.LBE3915:
	.loc 34 78 0
	leal	87(%ecx), %ebx
	.loc 34 80 0
	leal	48(%ecx), %edx
.LBB3916:
.LBB3909:
	.loc 34 33 0
	movl	%eax, %ecx
	cmova	%ebx, %edx
	shrl	$8, %ecx
.LBE3909:
.LBE3916:
	.loc 34 74 0
	testl	%ecx, %ecx
	movb	%dl, 22(%esp)
.LVL634:
	je	.L546
.LVL635:
.LBB3917:
.LBB3902:
	.loc 34 46 0
	andl	$15, %ecx
	cmpl	$9, %ecx
.LBE3902:
.LBE3917:
	.loc 34 78 0
	leal	87(%ecx), %ebx
	.loc 34 80 0
	leal	48(%ecx), %edx
.LBB3918:
.LBB3910:
	.loc 34 33 0
	movl	%eax, %ecx
	cmova	%ebx, %edx
	shrl	$12, %ecx
.LBE3910:
.LBE3918:
	.loc 34 74 0
	testl	%ecx, %ecx
	movb	%dl, 23(%esp)
.LVL636:
	je	.L547
.LVL637:
.LBB3919:
.LBB3903:
	.loc 34 46 0
	andl	$15, %ecx
	cmpl	$9, %ecx
.LBE3903:
.LBE3919:
	.loc 34 78 0
	leal	87(%ecx), %ebx
	.loc 34 80 0
	leal	48(%ecx), %edx
.LBB3920:
.LBB3911:
	.loc 34 33 0
	movl	%eax, %ecx
	cmova	%ebx, %edx
	shrl	$16, %ecx
.LBE3911:
.LBE3920:
	.loc 34 74 0
	testl	%ecx, %ecx
	movb	%dl, 24(%esp)
.LVL638:
	je	.L548
.LVL639:
.LBB3921:
.LBB3904:
	.loc 34 46 0
	andl	$15, %ecx
	cmpl	$9, %ecx
.LBE3904:
.LBE3921:
	.loc 34 78 0
	leal	87(%ecx), %ebx
	.loc 34 80 0
	leal	48(%ecx), %edx
.LBB3922:
.LBB3912:
	.loc 34 33 0
	movl	%eax, %ecx
	cmova	%ebx, %edx
	shrl	$20, %ecx
.LBE3912:
.LBE3922:
	.loc 34 74 0
	testl	%ecx, %ecx
	movb	%dl, 25(%esp)
.LVL640:
	je	.L549
.LVL641:
.LBB3923:
.LBB3905:
	.loc 34 46 0
	andl	$15, %ecx
	cmpl	$9, %ecx
.LBE3905:
.LBE3923:
	.loc 34 78 0
	leal	87(%ecx), %ebx
	.loc 34 80 0
	leal	48(%ecx), %edx
.LBB3924:
.LBB3913:
	.loc 34 33 0
	movl	%eax, %ecx
	cmova	%ebx, %edx
	shrl	$24, %ecx
.LBE3913:
.LBE3924:
	.loc 34 74 0
	testl	%ecx, %ecx
	movb	%dl, 26(%esp)
.LVL642:
	je	.L550
.LVL643:
.LBB3925:
.LBB3906:
	.loc 34 46 0
	andl	$15, %ecx
	cmpl	$9, %ecx
.LBE3906:
.LBE3925:
	.loc 34 78 0
	leal	87(%ecx), %ebx
	.loc 34 80 0
	leal	48(%ecx), %edx
	cmova	%ebx, %edx
.LBB3926:
.LBB3914:
	.loc 34 33 0
	shrl	$28, %eax
.LVL644:
.LBE3914:
.LBE3926:
	.loc 34 74 0
	testl	%eax, %eax
	movb	%dl, 27(%esp)
.LVL645:
	je	.L551
.LVL646:
	.loc 34 78 0
	leal	87(%eax), %ecx
	cmpl	$9, %eax
	.loc 34 80 0
	leal	48(%eax), %edx
	.loc 34 74 0
	movl	$8, %esi
	cmova	%ecx, %edx
	movb	%dl, 28(%esp)
.LVL647:
.L541:
	movl	%esi, %ebx
.LVL648:
	.p2align 4,,7
	.p2align 3
.L542:
	.loc 34 85 0
	subl	$1, %ebx
.LVL649:
	movsbl	21(%esp,%ebx), %edx
	movl	%edx, (%esp)
	call	console_putchar
.LVL650:
	.loc 34 84 0
	testl	%ebx, %ebx
	jne	.L542
.LBE3898:
.LBE3897:
	.loc 34 89 0
	addl	$36, %esp
	.cfi_remember_state
	.cfi_def_cfa_offset 12
.LBB3929:
.LBB3927:
	movl	%esi, %eax
.LBE3927:
.LBE3929:
	popl	%ebx
	.cfi_restore 3
	.cfi_def_cfa_offset 8
.LVL651:
	popl	%esi
	.cfi_restore 6
	.cfi_def_cfa_offset 4
	ret
.LVL652:
	.p2align 4,,7
	.p2align 3
.L540:
	.cfi_restore_state
	.loc 34 70 0
	call	console_putchar.constprop.295
.LVL653:
	.loc 34 89 0
	addl	$36, %esp
	.cfi_remember_state
	.cfi_def_cfa_offset 12
	.loc 34 71 0
	movl	$1, %eax
	.loc 34 89 0
	popl	%ebx
	.cfi_restore 3
	.cfi_def_cfa_offset 8
	popl	%esi
	.cfi_restore 6
	.cfi_def_cfa_offset 4
	ret
.LVL654:
	.p2align 4,,7
	.p2align 3
.L548:
	.cfi_restore_state
.LBB3930:
.LBB3928:
	.loc 34 74 0
	movl	$4, %esi
	jmp	.L541
.LVL655:
	.p2align 4,,7
	.p2align 3
.L549:
	movl	$5, %esi
	jmp	.L541
.LVL656:
	.p2align 4,,7
	.p2align 3
.L550:
	movl	$6, %esi
	jmp	.L541
.LVL657:
	.p2align 4,,7
	.p2align 3
.L551:
	movl	$7, %esi
	jmp	.L541
.LVL658:
	.p2align 4,,7
	.p2align 3
.L546:
	movl	$2, %esi
	jmp	.L541
.LVL659:
	.p2align 4,,7
	.p2align 3
.L547:
	movl	$3, %esi
	jmp	.L541
.LVL660:
	.p2align 4,,7
	.p2align 3
.L545:
	movl	$1, %esi
	jmp	.L541
.LBE3928:
.LBE3930:
	.cfi_endproc
.LFE856:
	.size	print_unsigned_long.constprop.298, .-print_unsigned_long.constprop.298
	.section	.rodata.str1.4
	.align 4
.LC29:
	.string	"/home/mscapero/Desktop/sel4-benchmark/sel4test-manifest/kernel/src/arch/ia32/kernel/vspace.c"
	.section	.rodata.str1.1
.LC30:
	.string	"Invalid VM rights"
	.section	.text.unlikely,"ax",@progbits
	.type	WritableFromVMRights, @function
WritableFromVMRights:
.LFB355:
	.loc 4 951 0
	.cfi_startproc
.LVL661:
	.loc 4 952 0
	cmpl	$2, %eax
	je	.L555
	.loc 4 952 0
	cmpl	$3, %eax
	je	.L557
	decl	%eax
.LVL662:
	je	.L557
.LVL663:
	.loc 4 951 0
	subl	$28, %esp
	.cfi_def_cfa_offset 32
.LBB3933:
.LBB3934:
	.loc 4 961 0
	movl	$__func__.5100, 12(%esp)
	movl	$961, 8(%esp)
	movl	$.LC29, 4(%esp)
	movl	$.LC30, (%esp)
	call	_fail
.LVL664:
.L555:
	.cfi_def_cfa_offset 4
.LBE3934:
.LBE3933:
	.loc 4 954 0
	xorl	%eax, %eax
.LVL665:
	ret
.LVL666:
.L557:
	.loc 4 958 0
	movl	$1, %eax
	.loc 4 963 0
	ret
	.cfi_endproc
.LFE355:
	.size	WritableFromVMRights, .-WritableFromVMRights
	.type	SuperUserFromVMRights.part.49, @function
SuperUserFromVMRights.part.49:
.LFB686:
	.loc 4 965 0
	.cfi_startproc
.LVL667:
	subl	$28, %esp
	.cfi_def_cfa_offset 32
	.loc 4 976 0
	movl	$__func__.5108, 12(%esp)
	movl	$976, 8(%esp)
	movl	$.LC29, 4(%esp)
	movl	$.LC30, (%esp)
	call	_fail
.LVL668:
	.cfi_endproc
.LFE686:
	.size	SuperUserFromVMRights.part.49, .-SuperUserFromVMRights.part.49
	.section	.rodata.str1.4
	.align 4
.LC31:
	.string	"/home/mscapero/Desktop/sel4-benchmark/sel4test-manifest/kernel/src/arch/ia32/object/objecttype.c"
	.section	.rodata.str1.1
.LC32:
	.string	"Invalid object type"
	.text
	.p2align 4,,15
	.globl	Arch_getObjectSize
	.type	Arch_getObjectSize, @function
Arch_getObjectSize:
.LFB419:
	.loc 19 401 0
	.cfi_startproc
.LVL669:
	subl	$28, %esp
	.cfi_def_cfa_offset 32
	.loc 19 401 0
	movl	32(%esp), %eax
	.loc 19 402 0
	cmpl	$6, %eax
	je	.L572
	ja	.L570
	cmpl	$5, %eax
	jne	.L568
.L571:
	.loc 19 404 0
	movl	$12, %eax
	.loc 19 419 0
	addl	$28, %esp
	.cfi_remember_state
	.cfi_def_cfa_offset 4
	ret
	.p2align 4,,7
	.p2align 3
.L570:
	.cfi_restore_state
	.loc 19 402 0
	cmpl	$8, %eax
	jbe	.L571
.L568:
	.loc 19 416 0
	movl	$__func__.5695, 12(%esp)
	movl	$416, 8(%esp)
	movl	$.LC31, 4(%esp)
	movl	$.LC32, (%esp)
	call	_fail
.LVL670:
	.p2align 4,,7
	.p2align 3
.L572:
	.loc 19 406 0
	movl	$22, %eax
	.loc 19 419 0
	addl	$28, %esp
	.cfi_def_cfa_offset 4
	ret
	.cfi_endproc
.LFE419:
	.size	Arch_getObjectSize, .-Arch_getObjectSize
	.p2align 4,,15
	.globl	getObjectSize
	.type	getObjectSize, @function
getObjectSize:
.LFB555:
	.file 38 "/home/mscapero/Desktop/sel4-benchmark/sel4test-manifest/kernel/src/object/objecttype.c"
	.loc 38 34 0
	.cfi_startproc
.LVL671:
	subl	$28, %esp
	.cfi_def_cfa_offset 32
	.loc 38 34 0
	movl	32(%esp), %edx
	.loc 38 35 0
	cmpl	$4, %edx
	ja	.L596
	.loc 38 38 0
	cmpl	$3, %edx
	ja	.L585
	cmpl	$2, %edx
	.loc 38 42 0
	movl	$4, %eax
	.loc 38 38 0
	jae	.L583
	cmpl	$1, %edx
	.loc 38 40 0
	movb	$10, %al
	.loc 38 38 0
	jne	.L584
.L583:
	.loc 38 54 0
	addl	$28, %esp
	.cfi_remember_state
	.cfi_def_cfa_offset 4
	ret
	.p2align 4,,7
	.p2align 3
.L585:
	.cfi_restore_state
	.loc 38 46 0
	movl	36(%esp), %eax
	addl	$4, %eax
	.loc 38 38 0
	cmpl	$4, %edx
	je	.L583
.L584:
	.loc 38 48 0
	movl	36(%esp), %eax
	.loc 38 54 0
	addl	$28, %esp
	.cfi_remember_state
	.cfi_def_cfa_offset 4
	ret
	.p2align 4,,7
	.p2align 3
.L596:
	.cfi_restore_state
.LVL672:
.LBB3939:
.LBB3940:
	.loc 19 402 0
	cmpl	$6, %edx
	je	.L588
	.p2align 4,,2
	ja	.L581
	cmpl	$5, %edx
	.p2align 4,,5
	jne	.L579
.L582:
	.loc 19 404 0
	movl	$12, %eax
	.p2align 4,,3
	jmp	.L583
	.p2align 4,,7
	.p2align 3
.L588:
	.loc 19 406 0
	movl	$22, %eax
.LBE3940:
.LBE3939:
	.loc 38 36 0
	jmp	.L583
	.p2align 4,,7
	.p2align 3
.L581:
.LBB3942:
.LBB3941:
	.loc 19 402 0
	cmpl	$8, %edx
	jbe	.L582
.L579:
	.loc 19 416 0
	movl	$__func__.5695, 12(%esp)
	movl	$416, 8(%esp)
	movl	$.LC31, 4(%esp)
	movl	$.LC32, (%esp)
	call	_fail
.LVL673:
.LBE3941:
.LBE3942:
	.cfi_endproc
.LFE555:
	.size	getObjectSize, .-getObjectSize
	.section	.rodata.str1.4
	.align 4
.LC33:
	.string	"seL4 failed assertion '%s' at %s:%u in function %s\n"
	.text
	.p2align 4,,15
	.globl	_assert_fail
	.type	_assert_fail, @function
_assert_fail:
.LFB429:
	.loc 36 37 0
	.cfi_startproc
.LVL674:
	subl	$44, %esp
	.cfi_def_cfa_offset 48
	.loc 36 38 0
	movl	60(%esp), %eax
	movl	$.LC33, (%esp)
	movl	%eax, 16(%esp)
	movl	56(%esp), %eax
	movl	%eax, 12(%esp)
	movl	52(%esp), %eax
	movl	%eax, 8(%esp)
	movl	48(%esp), %eax
	movl	%eax, 4(%esp)
	call	printf
.LVL675:
	.loc 36 44 0
	call	halt
.LVL676:
	.cfi_endproc
.LFE429:
	.size	_assert_fail, .-_assert_fail
	.section	.rodata.str1.4
	.align 4
.LC34:
	.string	"./arch/object/structures_gen.h"
	.align 4
.LC35:
	.string	"((cap.words[0] >> 0) & 0xf) == cap_reply_cap"
	.section	.text.unlikely
	.type	cap_reply_cap_get_capReplyMaster.part.53, @function
cap_reply_cap_get_capReplyMaster.part.53:
.LFB690:
	.loc 27 1236 0
	.cfi_startproc
	subl	$28, %esp
	.cfi_def_cfa_offset 32
	.loc 27 1237 0
	movl	$__FUNCTION__.1667, 12(%esp)
	movl	$1238, 8(%esp)
	movl	$.LC34, 4(%esp)
	movl	$.LC35, (%esp)
	call	_assert_fail
.LVL677:
	.cfi_endproc
.LFE690:
	.size	cap_reply_cap_get_capReplyMaster.part.53, .-cap_reply_cap_get_capReplyMaster.part.53
	.text
	.p2align 4,,15
	.type	cap_reply_cap_get_capTCBPtr.isra.54.part.55, @function
cap_reply_cap_get_capTCBPtr.isra.54.part.55:
.LFB692:
	.loc 27 1244 0
	.cfi_startproc
	subl	$28, %esp
	.cfi_def_cfa_offset 32
	.loc 27 1245 0
	movl	$__FUNCTION__.1671, 12(%esp)
	movl	$1246, 8(%esp)
	movl	$.LC34, 4(%esp)
	movl	$.LC35, (%esp)
	call	_assert_fail
.LVL678:
	.cfi_endproc
.LFE692:
	.size	cap_reply_cap_get_capTCBPtr.isra.54.part.55, .-cap_reply_cap_get_capTCBPtr.isra.54.part.55
	.section	.rodata.str1.4
	.align 4
.LC36:
	.string	"((cap.words[0] >> 0) & 0xf) == cap_endpoint_cap"
	.text
	.p2align 4,,15
	.type	cap_endpoint_cap_get_capCanReceive.part.56, @function
cap_endpoint_cap_get_capCanReceive.part.56:
.LFB693:
	.loc 27 1067 0
	.cfi_startproc
	subl	$28, %esp
	.cfi_def_cfa_offset 32
	.loc 27 1068 0
	movl	$__FUNCTION__.1603, 12(%esp)
	movl	$1069, 8(%esp)
	movl	$.LC34, 4(%esp)
	movl	$.LC36, (%esp)
	call	_assert_fail
.LVL679:
	.cfi_endproc
.LFE693:
	.size	cap_endpoint_cap_get_capCanReceive.part.56, .-cap_endpoint_cap_get_capCanReceive.part.56
	.section	.rodata.str1.4
	.align 4
.LC37:
	.string	"((cap.words[0] >> 0) & 0xf) == cap_async_endpoint_cap"
	.section	.text.unlikely
	.type	cap_async_endpoint_cap_get_capAEPCanReceive.part.57, @function
cap_async_endpoint_cap_get_capAEPCanReceive.part.57:
.LFB694:
	.loc 27 1166 0
	.cfi_startproc
	subl	$28, %esp
	.cfi_def_cfa_offset 32
	.loc 27 1167 0
	movl	$__FUNCTION__.1642, 12(%esp)
	movl	$1168, 8(%esp)
	movl	$.LC34, 4(%esp)
	movl	$.LC37, (%esp)
	call	_assert_fail
.LVL680:
	.cfi_endproc
.LFE694:
	.size	cap_async_endpoint_cap_get_capAEPCanReceive.part.57, .-cap_async_endpoint_cap_get_capAEPCanReceive.part.57
	.section	.rodata.str1.1
.LC38:
	.string	"(bitsLeft & ~0x3f) == 0"
	.section	.text.unlikely
	.type	lookup_fault_missing_capability_new.part.58, @function
lookup_fault_missing_capability_new.part.58:
.LFB695:
	.loc 27 2377 0
	.cfi_startproc
.LVL681:
	subl	$28, %esp
	.cfi_def_cfa_offset 32
	.loc 27 2384 0
	movl	$__FUNCTION__.2096, 12(%esp)
	movl	$2384, 8(%esp)
	movl	$.LC34, 4(%esp)
	movl	$.LC38, (%esp)
	call	_assert_fail
.LVL682:
	.cfi_endproc
.LFE695:
	.size	lookup_fault_missing_capability_new.part.58, .-lookup_fault_missing_capability_new.part.58
	.section	.rodata.str1.4
	.align 4
.LC39:
	.string	"((cap.words[0] >> 0) & 0xf) == cap_cnode_cap"
	.section	.text.unlikely
	.type	cap_cnode_cap_get_capCNodeGuardSize.part.59, @function
cap_cnode_cap_get_capCNodeGuardSize.part.59:
.LFB696:
	.loc 27 1291 0
	.cfi_startproc
	subl	$28, %esp
	.cfi_def_cfa_offset 32
	.loc 27 1292 0
	movl	$__FUNCTION__.1687, 12(%esp)
	movl	$1293, 8(%esp)
	movl	$.LC34, 4(%esp)
	movl	$.LC39, (%esp)
	call	_assert_fail
.LVL683:
	.cfi_endproc
.LFE696:
	.size	cap_cnode_cap_get_capCNodeGuardSize.part.59, .-cap_cnode_cap_get_capCNodeGuardSize.part.59
	.type	cap_cnode_cap_get_capCNodeRadix.part.60, @function
cap_cnode_cap_get_capCNodeRadix.part.60:
.LFB697:
	.loc 27 1283 0
	.cfi_startproc
	subl	$28, %esp
	.cfi_def_cfa_offset 32
	.loc 27 1284 0
	movl	$__FUNCTION__.1683, 12(%esp)
	movl	$1285, 8(%esp)
	movl	$.LC34, 4(%esp)
	movl	$.LC39, (%esp)
	call	_assert_fail
.LVL684:
	.cfi_endproc
.LFE697:
	.size	cap_cnode_cap_get_capCNodeRadix.part.60, .-cap_cnode_cap_get_capCNodeRadix.part.60
	.type	cap_cnode_cap_get_capCNodeGuard.part.61, @function
cap_cnode_cap_get_capCNodeGuard.part.61:
.LFB698:
	.loc 27 1311 0
	.cfi_startproc
	subl	$28, %esp
	.cfi_def_cfa_offset 32
	.loc 27 1312 0
	movl	$__FUNCTION__.1696, 12(%esp)
	movl	$1313, 8(%esp)
	movl	$.LC34, 4(%esp)
	movl	$.LC39, (%esp)
	call	_assert_fail
.LVL685:
	.cfi_endproc
.LFE698:
	.size	cap_cnode_cap_get_capCNodeGuard.part.61, .-cap_cnode_cap_get_capCNodeGuard.part.61
	.type	cap_cnode_cap_get_capCNodePtr.isra.62.part.63, @function
cap_cnode_cap_get_capCNodePtr.isra.62.part.63:
.LFB700:
	.loc 27 1331 0
	.cfi_startproc
	subl	$28, %esp
	.cfi_def_cfa_offset 32
	.loc 27 1332 0
	movl	$__FUNCTION__.1705, 12(%esp)
	movl	$1333, 8(%esp)
	movl	$.LC34, 4(%esp)
	movl	$.LC39, (%esp)
	call	_assert_fail
.LVL686:
	.cfi_endproc
.LFE700:
	.size	cap_cnode_cap_get_capCNodePtr.isra.62.part.63, .-cap_cnode_cap_get_capCNodePtr.isra.62.part.63
	.text
	.p2align 4,,15
	.type	lookup_fp, @function
lookup_fp:
.LFB277:
	.loc 1 29 0
	.cfi_startproc
.LVL687:
	pushl	%ebp
	.cfi_def_cfa_offset 8
	.cfi_offset 5, -8
	pushl	%edi
	.cfi_def_cfa_offset 12
	.cfi_offset 7, -12
	movl	%edx, %edi
.LVL688:
	pushl	%esi
	.cfi_def_cfa_offset 16
	.cfi_offset 6, -16
.LBB3943:
.LBB3944:
	.loc 27 880 0
	andl	$15, %edx
.LVL689:
.LBE3944:
.LBE3943:
	.loc 1 29 0
	pushl	%ebx
	.cfi_def_cfa_offset 20
	.cfi_offset 3, -20
	subl	$8, %esp
	.cfi_def_cfa_offset 28
	.loc 1 37 0
	cmpl	$10, %edx
	jne	.L622
	movl	%ecx, %esi
	xorl	%ebx, %ebx
	.loc 1 52 0
	movl	%eax, 4(%esp)
.LVL690:
.L620:
	.loc 1 44 0
	movl	28(%esp), %eax
.LBB3945:
.LBB3946:
	.loc 27 1295 0
	movl	%esi, %edx
.LBE3946:
.LBE3945:
.LBB3949:
.LBB3950:
	.loc 27 1287 0
	movl	%esi, %ebp
.LBE3950:
.LBE3949:
.LBB3953:
.LBB3947:
	.loc 27 1295 0
	andl	$8126464, %edx
.LBE3947:
.LBE3953:
.LBB3954:
.LBB3951:
	.loc 27 1287 0
	andl	$260046848, %ebp
.LBE3951:
.LBE3954:
.LBB3955:
.LBB3948:
	.loc 27 1295 0
	shrl	$18, %edx
.LVL691:
.LBE3948:
.LBE3955:
	.loc 1 44 0
	movl	%ebx, %ecx
.LVL692:
.LBB3956:
.LBB3952:
	.loc 27 1287 0
	shrl	$23, %ebp
.LBE3952:
.LBE3956:
	.loc 1 44 0
	sall	%cl, %eax
	.loc 1 52 0
	testl	%edx, %edx
	.loc 1 44 0
	movl	%eax, (%esp)
.LVL693:
	.loc 1 52 0
	jne	.L633
.LVL694:
.L621:
	.loc 1 56 0
	movl	(%esp), %esi
	movl	%edx, %ecx
	.loc 1 60 0
	addl	%ebp, %edx
.LVL695:
.LBB3957:
.LBB3958:
	.loc 27 1335 0
	andl	$2147483632, %edi
.LVL696:
.LBE3958:
.LBE3957:
	.loc 1 60 0
	addl	%edx, %ebx
.LVL697:
	.loc 1 56 0
	sall	%cl, %esi
	movl	$32, %ecx
	subl	%ebp, %ecx
	shrl	%cl, %esi
	.loc 1 57 0
	sall	$4, %esi
	.loc 1 62 0
	cmpl	$31, %ebx
	.loc 1 57 0
	leal	(%esi,%edi,2), %ecx
.LVL698:
	.loc 1 59 0
	movl	(%ecx), %edi
.LVL699:
	movl	4(%ecx), %esi
.LVL700:
	.loc 1 62 0
	jbe	.L634
	.loc 1 64 0
	cmpl	$32, %ebx
	movl	4(%esp), %eax
	jne	.L622
.L625:
	.loc 1 70 0
	movl	%edi, (%eax)
	movl	%esi, 4(%eax)
.LVL701:
.L617:
	.loc 1 71 0
	addl	$8, %esp
	.cfi_remember_state
	.cfi_def_cfa_offset 20
	popl	%ebx
	.cfi_restore 3
	.cfi_def_cfa_offset 16
	popl	%esi
	.cfi_restore 6
	.cfi_def_cfa_offset 12
	popl	%edi
	.cfi_restore 7
	.cfi_def_cfa_offset 8
.LVL702:
	popl	%ebp
	.cfi_restore 5
	.cfi_def_cfa_offset 4
	ret
.LVL703:
.L633:
	.cfi_restore_state
	.loc 1 52 0 discriminator 1
	movl	$32, %ecx
.LBB3959:
.LBB3960:
	.loc 27 1315 0 discriminator 1
	andl	$262143, %esi
.LVL704:
.LBE3960:
.LBE3959:
	.loc 1 52 0 discriminator 1
	subl	%edx, %ecx
	shrl	%cl, %eax
.LVL705:
	cmpl	%esi, %eax
	je	.L621
	movl	4(%esp), %eax
.LVL706:
.L622:
.LBB3961:
.LBB3962:
	.loc 27 896 0
	movl	$0, (%eax)
	movl	$0, 4(%eax)
	jmp	.L617
.LVL707:
.L634:
.LBE3962:
.LBE3961:
.LBB3963:
.LBB3964:
	.loc 27 880 0 discriminator 1
	movl	%edi, %edx
	andl	$15, %edx
.LBE3964:
.LBE3963:
	.loc 1 62 0 discriminator 1
	cmpl	$10, %edx
	je	.L620
	movl	4(%esp), %eax
	jmp	.L625
	.cfi_endproc
.LFE277:
	.size	lookup_fp, .-lookup_fp
	.p2align 4,,15
	.type	cap_endpoint_cap_get_capCanSend.part.64, @function
cap_endpoint_cap_get_capCanSend.part.64:
.LFB701:
	.loc 27 1047 0
	.cfi_startproc
	subl	$28, %esp
	.cfi_def_cfa_offset 32
	.loc 27 1048 0
	movl	$__FUNCTION__.1594, 12(%esp)
	movl	$1049, 8(%esp)
	movl	$.LC34, 4(%esp)
	movl	$.LC36, (%esp)
	call	_assert_fail
.LVL708:
	.cfi_endproc
.LFE701:
	.size	cap_endpoint_cap_get_capCanSend.part.64, .-cap_endpoint_cap_get_capCanSend.part.64
	.p2align 4,,15
	.type	cap_endpoint_cap_get_capEPPtr.isra.65.part.66, @function
cap_endpoint_cap_get_capEPPtr.isra.65.part.66:
.LFB703:
	.loc 27 1087 0
	.cfi_startproc
	subl	$28, %esp
	.cfi_def_cfa_offset 32
	.loc 27 1088 0
	movl	$__FUNCTION__.1612, 12(%esp)
	movl	$1089, 8(%esp)
	movl	$.LC34, 4(%esp)
	movl	$.LC36, (%esp)
	call	_assert_fail
.LVL709:
	.cfi_endproc
.LFE703:
	.size	cap_endpoint_cap_get_capEPPtr.isra.65.part.66, .-cap_endpoint_cap_get_capEPPtr.isra.65.part.66
	.section	.rodata.str1.4
	.align 4
.LC40:
	.string	"((cap.words[0] >> 0) & 0xf) == cap_page_directory_cap"
	.text
	.p2align 4,,15
	.type	cap_page_directory_cap_get_capPDBasePtr.isra.67.part.68, @function
cap_page_directory_cap_get_capPDBasePtr.isra.67.part.68:
.LFB705:
	.loc 27 1707 0
	.cfi_startproc
	subl	$28, %esp
	.cfi_def_cfa_offset 32
	.loc 27 1708 0
	movl	$__FUNCTION__.1851, 12(%esp)
	movl	$1709, 8(%esp)
	movl	$.LC34, 4(%esp)
	movl	$.LC40, (%esp)
	call	_assert_fail
.LVL710:
	.cfi_endproc
.LFE705:
	.size	cap_page_directory_cap_get_capPDBasePtr.isra.67.part.68, .-cap_page_directory_cap_get_capPDBasePtr.isra.67.part.68
	.section	.text.unlikely
	.type	cap_page_directory_cap_get_capPDIsMapped.part.69, @function
cap_page_directory_cap_get_capPDIsMapped.part.69:
.LFB706:
	.loc 27 1653 0
	.cfi_startproc
	subl	$28, %esp
	.cfi_def_cfa_offset 32
	.loc 27 1654 0
	movl	$__FUNCTION__.1828, 12(%esp)
	movl	$1655, 8(%esp)
	movl	$.LC34, 4(%esp)
	movl	$.LC40, (%esp)
	call	_assert_fail
.LVL711:
	.cfi_endproc
.LFE706:
	.size	cap_page_directory_cap_get_capPDIsMapped.part.69, .-cap_page_directory_cap_get_capPDIsMapped.part.69
	.text
	.p2align 4,,15
	.globl	isValidVTableRoot
	.type	isValidVTableRoot, @function
isValidVTableRoot:
.LFB363:
	.loc 4 1100 0
	.cfi_startproc
.LVL712:
	pushl	%ebx
	.cfi_def_cfa_offset 8
	.cfi_offset 3, -8
	subl	$8, %esp
	.cfi_def_cfa_offset 16
	.loc 4 1100 0
	movl	16(%esp), %eax
.LVL713:
	movl	20(%esp), %ebx
.LVL714:
.LBB3965:
.LBB3966:
	.loc 27 872 0
	movl	%eax, %ecx
	.loc 27 873 0
	movl	%eax, %edx
	.loc 27 872 0
	andl	$14, %ecx
	.loc 27 873 0
	andl	$15, %edx
	movzbl	%al, %eax
.LVL715:
	cmpl	$14, %ecx
	cmovne	%edx, %eax
	movl	%eax, %ecx
.LBE3966:
.LBE3965:
	xorl	%eax, %eax
	.loc 4 1101 0
	cmpl	$5, %ecx
	je	.L650
	.loc 4 1103 0 discriminator 4
	addl	$8, %esp
	.cfi_remember_state
	.cfi_def_cfa_offset 8
	popl	%ebx
	.cfi_restore 3
	.cfi_def_cfa_offset 4
	ret
.LVL716:
	.p2align 4,,7
	.p2align 3
.L650:
	.cfi_restore_state
.LBB3967:
.LBB3968:
	.loc 27 1654 0 discriminator 1
	cmpl	$5, %edx
	jne	.L651
	.loc 27 1657 0
	movl	%ebx, %eax
.LBE3968:
.LBE3967:
	.loc 4 1103 0
	addl	$8, %esp
	.cfi_remember_state
	.cfi_def_cfa_offset 8
.LBB3971:
.LBB3969:
	.loc 27 1657 0
	andl	$65536, %eax
	shrl	$16, %eax
.LBE3969:
.LBE3971:
	.loc 4 1103 0
	popl	%ebx
	.cfi_restore 3
	.cfi_def_cfa_offset 4
.LVL717:
	ret
.LVL718:
.L651:
	.cfi_restore_state
.LBB3972:
.LBB3970:
	call	cap_page_directory_cap_get_capPDIsMapped.part.69
.LVL719:
.LBE3970:
.LBE3972:
	.cfi_endproc
.LFE363:
	.size	isValidVTableRoot, .-isValidVTableRoot
	.p2align 4,,15
	.type	cap_endpoint_cap_get_capCanGrant.part.70, @function
cap_endpoint_cap_get_capCanGrant.part.70:
.LFB707:
	.loc 27 1027 0
	.cfi_startproc
	subl	$28, %esp
	.cfi_def_cfa_offset 32
	.loc 27 1028 0
	movl	$__FUNCTION__.1585, 12(%esp)
	movl	$1029, 8(%esp)
	movl	$.LC34, 4(%esp)
	movl	$.LC36, (%esp)
	call	_assert_fail
.LVL720:
	.cfi_endproc
.LFE707:
	.size	cap_endpoint_cap_get_capCanGrant.part.70, .-cap_endpoint_cap_get_capCanGrant.part.70
	.p2align 4,,15
	.type	cap_endpoint_cap_get_capEPBadge.part.71, @function
cap_endpoint_cap_get_capEPBadge.part.71:
.LFB708:
	.loc 27 1007 0
	.cfi_startproc
	subl	$28, %esp
	.cfi_def_cfa_offset 32
	.loc 27 1008 0
	movl	$__FUNCTION__.1576, 12(%esp)
	movl	$1009, 8(%esp)
	movl	$.LC34, 4(%esp)
	movl	$.LC36, (%esp)
	call	_assert_fail
.LVL721:
	.cfi_endproc
.LFE708:
	.size	cap_endpoint_cap_get_capEPBadge.part.71, .-cap_endpoint_cap_get_capEPBadge.part.71
	.section	.rodata.str1.4
	.align 4
.LC41:
	.string	"((gdt_entry_ptr->words[1] >> 10) & 0x7) == gdt_entry_gdt_data"
	.section	.text.unlikely
	.type	gdt_entry_gdt_data_ptr_set_base_low.part.72, @function
gdt_entry_gdt_data_ptr_set_base_low.part.72:
.LFB709:
	.loc 27 2268 0
	.cfi_startproc
.LVL722:
	subl	$28, %esp
	.cfi_def_cfa_offset 32
	.loc 27 2270 0
	movl	$__FUNCTION__.2058, 12(%esp)
	movl	$2271, 8(%esp)
	movl	$.LC34, 4(%esp)
	movl	$.LC41, (%esp)
	call	_assert_fail
.LVL723:
	.cfi_endproc
.LFE709:
	.size	gdt_entry_gdt_data_ptr_set_base_low.part.72, .-gdt_entry_gdt_data_ptr_set_base_low.part.72
	.type	gdt_entry_gdt_data_ptr_set_base_mid.isra.73.part.74, @function
gdt_entry_gdt_data_ptr_set_base_mid.isra.73.part.74:
.LFB711:
	.loc 27 2255 0
	.cfi_startproc
.LVL724:
	subl	$28, %esp
	.cfi_def_cfa_offset 32
	.loc 27 2257 0
	movl	$__FUNCTION__.2053, 12(%esp)
	movl	$2258, 8(%esp)
	movl	$.LC34, 4(%esp)
	movl	$.LC41, (%esp)
	call	_assert_fail
.LVL725:
	.cfi_endproc
.LFE711:
	.size	gdt_entry_gdt_data_ptr_set_base_mid.isra.73.part.74, .-gdt_entry_gdt_data_ptr_set_base_mid.isra.73.part.74
	.section	.rodata.str1.1
.LC42:
	.string	"((~0xff >> 0) & v) == 0"
	.text
	.p2align 4,,15
	.type	gdt_entry_gdt_data_ptr_set_base_mid.isra.73, @function
gdt_entry_gdt_data_ptr_set_base_mid.isra.73:
.LFB710:
	.loc 27 2255 0
	.cfi_startproc
.LVL726:
	pushl	%ebx
	.cfi_def_cfa_offset 8
	.cfi_offset 3, -8
	subl	$24, %esp
	.cfi_def_cfa_offset 32
	.loc 27 2257 0
	movl	(%eax), %ebx
	movl	%ebx, %ecx
	shrl	$10, %ecx
	andl	$7, %ecx
	cmpl	$4, %ecx
	jne	.L664
	.loc 27 2261 0
	testl	$-256, %edx
	jne	.L665
	.loc 27 2263 0
	xorb	%bl, %bl
	movl	%ebx, %ecx
	.loc 27 2264 0
	orl	%edx, %ecx
	movl	%ecx, (%eax)
	.loc 27 2265 0
	addl	$24, %esp
	.cfi_remember_state
	.cfi_def_cfa_offset 8
	popl	%ebx
	.cfi_restore 3
	.cfi_def_cfa_offset 4
	ret
.L664:
	.cfi_restore_state
	call	gdt_entry_gdt_data_ptr_set_base_mid.isra.73.part.74
.LVL727:
.L665:
	.loc 27 2261 0
	movl	$__FUNCTION__.2053, 12(%esp)
	movl	$2261, 8(%esp)
	movl	$.LC34, 4(%esp)
	movl	$.LC42, (%esp)
	call	_assert_fail
.LVL728:
	.cfi_endproc
.LFE710:
	.size	gdt_entry_gdt_data_ptr_set_base_mid.isra.73, .-gdt_entry_gdt_data_ptr_set_base_mid.isra.73
	.section	.text.unlikely
	.type	gdt_entry_gdt_data_ptr_set_base_high.isra.75.part.76, @function
gdt_entry_gdt_data_ptr_set_base_high.isra.75.part.76:
.LFB713:
	.loc 27 2242 0
	.cfi_startproc
.LVL729:
	subl	$28, %esp
	.cfi_def_cfa_offset 32
	.loc 27 2244 0
	movl	$__FUNCTION__.2048, 12(%esp)
	movl	$2245, 8(%esp)
	movl	$.LC34, 4(%esp)
	movl	$.LC41, (%esp)
	call	_assert_fail
.LVL730:
	.cfi_endproc
.LFE713:
	.size	gdt_entry_gdt_data_ptr_set_base_high.isra.75.part.76, .-gdt_entry_gdt_data_ptr_set_base_high.isra.75.part.76
	.text
	.p2align 4,,15
	.type	switchToThread_fp, @function
switchToThread_fp:
.LFB278:
	.loc 1 75 0
	.cfi_startproc
.LVL731:
	pushl	%esi
	.cfi_def_cfa_offset 8
	.cfi_offset 6, -8
.LBB3991:
.LBB3992:
	.loc 10 41 0
	addl	$536870912, %edx
.LVL732:
.LBE3992:
.LBE3991:
	.loc 1 75 0
	pushl	%ebx
	.cfi_def_cfa_offset 12
	.cfi_offset 3, -12
	movl	%ecx, %ebx
	subl	$4, %esp
	.cfi_def_cfa_offset 16
	.loc 1 79 0
	cmpl	ia32KSCurrentPD, %edx
	je	.L669
.LVL733:
.LBB3993:
.LBB3994:
	.file 39 "/home/mscapero/Desktop/sel4-benchmark/sel4test-manifest/kernel/include/arch/ia32/arch/machine.h"
	.loc 39 39 0
	movl	%edx, ia32KSCurrentPD
.LVL734:
.LBB3995:
.LBB3996:
	.loc 2 35 0
#APP
# 35 "/home/mscapero/Desktop/sel4-benchmark/sel4test-manifest/kernel/include/arch/ia32/arch/machine/cpu_registers.h" 1
	movl %edx, %cr3
# 0 "" 2
.LVL735:
#NO_APP
.L669:
.LBE3996:
.LBE3995:
.LBE3994:
.LBE3993:
.LBB3997:
.LBB3998:
	.loc 27 2270 0
	movl	ia32KSgdt+52, %eax
.LBE3998:
.LBE3997:
.LBB4002:
.LBB4003:
	.loc 13 27 0
	movl	48(%ebx), %esi
.LVL736:
.LBE4003:
.LBE4002:
.LBB4004:
.LBB3999:
	.loc 27 2270 0
	shrl	$10, %eax
	andl	$7, %eax
	cmpl	$4, %eax
	jne	.L672
.LBE3999:
.LBE4004:
	.loc 1 88 0
	movl	%esi, %edx
.LVL737:
	movl	$ia32KSgdt+52, %eax
	shrl	$16, %edx
	movzbl	%dl, %edx
.LBB4005:
.LBB4000:
	.loc 27 2277 0
	movw	%si, ia32KSgdt+50
.LBE4000:
.LBE4005:
	.loc 1 89 0
	shrl	$24, %esi
.LVL738:
	.loc 1 88 0
	call	gdt_entry_gdt_data_ptr_set_base_mid.isra.73
.LVL739:
.LBB4006:
.LBB4007:
	.loc 27 2244 0
	movl	ia32KSgdt+52, %edx
	movl	%edx, %eax
	shrl	$10, %eax
	andl	$7, %eax
	cmpl	$4, %eax
	jne	.L673
.LBE4007:
.LBE4006:
.LBB4010:
.LBB4011:
	.loc 27 2270 0
	movl	ia32KSgdt+60, %eax
.LBE4011:
.LBE4010:
.LBB4014:
.LBB4008:
	.loc 27 2251 0
	sall	$24, %esi
	.loc 27 2250 0
	andl	$16777215, %edx
	.loc 27 2251 0
	orl	%edx, %esi
	movl	%esi, ia32KSgdt+52
.LBE4008:
.LBE4014:
	.loc 1 92 0
	movl	636(%ebx), %esi
.LVL740:
.LBB4015:
.LBB4012:
	.loc 27 2270 0
	shrl	$10, %eax
	andl	$7, %eax
	cmpl	$4, %eax
	jne	.L672
.LBE4012:
.LBE4015:
	.loc 1 94 0
	movl	%esi, %edx
	movl	$ia32KSgdt+60, %eax
	shrl	$16, %edx
	movzbl	%dl, %edx
.LBB4016:
.LBB4013:
	.loc 27 2277 0
	movw	%si, ia32KSgdt+58
.LBE4013:
.LBE4016:
	.loc 1 95 0
	shrl	$24, %esi
.LVL741:
	.loc 1 94 0
	call	gdt_entry_gdt_data_ptr_set_base_mid.isra.73
.LVL742:
.LBB4017:
.LBB4018:
	.loc 27 2244 0
	movl	ia32KSgdt+60, %edx
	movl	%edx, %eax
	shrl	$10, %eax
	andl	$7, %eax
	cmpl	$4, %eax
	jne	.L673
	.loc 27 2251 0
	sall	$24, %esi
.LVL743:
	.loc 27 2250 0
	andl	$16777215, %edx
	.loc 27 2251 0
	orl	%edx, %esi
	movl	%esi, ia32KSgdt+60
.LBE4018:
.LBE4017:
	.loc 1 97 0
	movl	%ebx, ksCurThread
	.loc 1 98 0
	addl	$4, %esp
	.cfi_remember_state
	.cfi_def_cfa_offset 12
	popl	%ebx
	.cfi_restore 3
	.cfi_def_cfa_offset 8
.LVL744:
	popl	%esi
	.cfi_restore 6
	.cfi_def_cfa_offset 4
	ret
.LVL745:
.L672:
	.cfi_restore_state
.LBB4019:
.LBB4001:
	call	gdt_entry_gdt_data_ptr_set_base_low.part.72
.LVL746:
.L673:
.LBE4001:
.LBE4019:
.LBB4020:
.LBB4009:
	call	gdt_entry_gdt_data_ptr_set_base_high.isra.75.part.76
.LVL747:
.LBE4009:
.LBE4020:
	.cfi_endproc
.LFE278:
	.size	switchToThread_fp, .-switchToThread_fp
	.section	.rodata.str1.1
.LC43:
	.string	"(mdbNext & ~0xfffffff8) == 0"
	.section	.text.unlikely
	.type	mdb_node_new.part.78, @function
mdb_node_new.part.78:
.LFB715:
	.loc 27 739 0
	.cfi_startproc
.LVL748:
	subl	$28, %esp
	.cfi_def_cfa_offset 32
	.loc 27 746 0
	movl	$__FUNCTION__.1454, 12(%esp)
	movl	$746, 8(%esp)
	movl	$.LC34, 4(%esp)
	movl	$.LC43, (%esp)
	call	_assert_fail
.LVL749:
	.cfi_endproc
.LFE715:
	.size	mdb_node_new.part.78, .-mdb_node_new.part.78
	.section	.rodata.str1.1
.LC44:
	.string	"(timer_mode & ~0x3) == 0"
	.section	.text.unlikely
	.type	apic_lvt_new.part.79, @function
apic_lvt_new.part.79:
.LFB716:
	.loc 27 377 0
	.cfi_startproc
.LVL750:
	subl	$28, %esp
	.cfi_def_cfa_offset 32
	.loc 27 383 0
	movl	$__FUNCTION__.1269, 12(%esp)
	movl	$383, 8(%esp)
	movl	$.LC34, 4(%esp)
	movl	$.LC44, (%esp)
	call	_assert_fail
.LVL751:
	.cfi_endproc
.LFE716:
	.size	apic_lvt_new.part.79, .-apic_lvt_new.part.79
	.section	.rodata.str1.1
.LC45:
	.string	"(dest & ~0xff) == 0"
	.section	.text.unlikely
	.type	apic_icr2_new.part.80, @function
apic_icr2_new.part.80:
.LFB717:
	.loc 27 233 0
	.cfi_startproc
.LVL752:
	subl	$28, %esp
	.cfi_def_cfa_offset 32
	.loc 27 239 0
	movl	$__FUNCTION__.1206, 12(%esp)
	movl	$239, 8(%esp)
	movl	$.LC34, 4(%esp)
	movl	$.LC45, (%esp)
	call	_assert_fail
.LVL753:
	.cfi_endproc
.LFE717:
	.size	apic_icr2_new.part.80, .-apic_icr2_new.part.80
	.section	.rodata.str1.1
.LC46:
	.string	"(dest_shorthand & ~0x3) == 0"
	.section	.text.unlikely
	.type	apic_icr1_new.part.81, @function
apic_icr1_new.part.81:
.LFB718:
	.loc 27 696 0
	.cfi_startproc
.LVL754:
	subl	$28, %esp
	.cfi_def_cfa_offset 32
	.loc 27 702 0
	movl	$__FUNCTION__.1443, 12(%esp)
	movl	$702, 8(%esp)
	movl	$.LC34, 4(%esp)
	movl	$.LC46, (%esp)
	call	_assert_fail
.LVL755:
	.cfi_endproc
.LFE718:
	.size	apic_icr1_new.part.81, .-apic_icr1_new.part.81
	.section	.rodata.str1.1
.LC47:
	.string	"(capFSize & ~0x1) == 0"
	.section	.text.unlikely
	.type	cap_frame_cap_new.part.82, @function
cap_frame_cap_new.part.82:
.LFB719:
	.loc 27 1366 0
	.cfi_startproc
.LVL756:
	subl	$28, %esp
	.cfi_def_cfa_offset 32
	.loc 27 1373 0
	movl	$__FUNCTION__.1724, 12(%esp)
	movl	$1373, 8(%esp)
	movl	$.LC34, 4(%esp)
	movl	$.LC47, (%esp)
	call	_assert_fail
.LVL757:
	.cfi_endproc
.LFE719:
	.size	cap_frame_cap_new.part.82, .-cap_frame_cap_new.part.82
	.section	.rodata.str1.4
	.align 4
.LC48:
	.string	"(capIOPortFirstPort & ~0xffff) == 0"
	.section	.text.unlikely
	.type	cap_io_port_cap_new.part.83, @function
cap_io_port_cap_new.part.83:
.LFB720:
	.loc 27 1769 0
	.cfi_startproc
.LVL758:
	subl	$28, %esp
	.cfi_def_cfa_offset 32
	.loc 27 1776 0
	movl	$__FUNCTION__.1876, 12(%esp)
	movl	$1776, 8(%esp)
	movl	$.LC34, 4(%esp)
	movl	$.LC48, (%esp)
	call	_assert_fail
.LVL759:
	.cfi_endproc
.LFE720:
	.size	cap_io_port_cap_new.part.83, .-cap_io_port_cap_new.part.83
	.section	.rodata.str1.4
	.align 4
.LC49:
	.string	"((cap.words[0] >> 0) & 0xf) == cap_untyped_cap"
	.section	.text.unlikely
	.type	cap_untyped_cap_get_capPtr.isra.84.part.85, @function
cap_untyped_cap_get_capPtr.isra.84.part.85:
.LFB722:
	.loc 27 964 0
	.cfi_startproc
	subl	$28, %esp
	.cfi_def_cfa_offset 32
	.loc 27 965 0
	movl	$__FUNCTION__.1563, 12(%esp)
	movl	$966, 8(%esp)
	movl	$.LC34, 4(%esp)
	movl	$.LC49, (%esp)
	call	_assert_fail
.LVL760:
	.cfi_endproc
.LFE722:
	.size	cap_untyped_cap_get_capPtr.isra.84.part.85, .-cap_untyped_cap_get_capPtr.isra.84.part.85
	.type	cap_async_endpoint_cap_get_capAEPPtr.isra.86.part.87, @function
cap_async_endpoint_cap_get_capAEPPtr.isra.86.part.87:
.LFB724:
	.loc 27 1186 0
	.cfi_startproc
	subl	$28, %esp
	.cfi_def_cfa_offset 32
	.loc 27 1187 0
	movl	$__FUNCTION__.1651, 12(%esp)
	movl	$1188, 8(%esp)
	movl	$.LC34, 4(%esp)
	movl	$.LC37, (%esp)
	call	_assert_fail
.LVL761:
	.cfi_endproc
.LFE724:
	.size	cap_async_endpoint_cap_get_capAEPPtr.isra.86.part.87, .-cap_async_endpoint_cap_get_capAEPPtr.isra.86.part.87
	.section	.rodata.str1.4
	.align 4
.LC50:
	.string	"((cap.words[0] >> 0) & 0xf) == cap_thread_cap"
	.section	.text.unlikely
	.type	cap_thread_cap_get_capTCBPtr.isra.88.part.89, @function
cap_thread_cap_get_capTCBPtr.isra.88.part.89:
.LFB726:
	.loc 27 1358 0
	.cfi_startproc
	subl	$28, %esp
	.cfi_def_cfa_offset 32
	.loc 27 1359 0
	movl	$__FUNCTION__.1714, 12(%esp)
	movl	$1360, 8(%esp)
	movl	$.LC34, 4(%esp)
	movl	$.LC50, (%esp)
	call	_assert_fail
.LVL762:
	.cfi_endproc
.LFE726:
	.size	cap_thread_cap_get_capTCBPtr.isra.88.part.89, .-cap_thread_cap_get_capTCBPtr.isra.88.part.89
	.section	.rodata.str1.4
	.align 4
.LC51:
	.string	"((cap.words[0] >> 0) & 0xf) == cap_frame_cap"
	.section	.text.unlikely
	.type	cap_frame_cap_get_capFBasePtr.isra.90.part.91, @function
cap_frame_cap_get_capFBasePtr.isra.90.part.91:
.LFB728:
	.loc 27 1506 0
	.cfi_startproc
	subl	$28, %esp
	.cfi_def_cfa_offset 32
	.loc 27 1507 0
	movl	$__FUNCTION__.1773, 12(%esp)
	movl	$1508, 8(%esp)
	movl	$.LC34, 4(%esp)
	movl	$.LC51, (%esp)
	call	_assert_fail
.LVL763:
	.cfi_endproc
.LFE728:
	.size	cap_frame_cap_get_capFBasePtr.isra.90.part.91, .-cap_frame_cap_get_capFBasePtr.isra.90.part.91
	.section	.rodata.str1.4
	.align 4
.LC52:
	.string	"((cap.words[0] >> 0) & 0xf) == cap_page_table_cap"
	.section	.text.unlikely
	.type	cap_page_table_cap_get_capPTBasePtr.isra.92.part.93, @function
cap_page_table_cap_get_capPTBasePtr.isra.92.part.93:
.LFB730:
	.loc 27 1618 0
	.cfi_startproc
	subl	$28, %esp
	.cfi_def_cfa_offset 32
	.loc 27 1619 0
	movl	$__FUNCTION__.1817, 12(%esp)
	movl	$1620, 8(%esp)
	movl	$.LC34, 4(%esp)
	movl	$.LC52, (%esp)
	call	_assert_fail
.LVL764:
	.cfi_endproc
.LFE730:
	.size	cap_page_table_cap_get_capPTBasePtr.isra.92.part.93, .-cap_page_table_cap_get_capPTBasePtr.isra.92.part.93
	.section	.rodata.str1.4
	.align 4
.LC53:
	.string	"((cap.words[0] >> 0) & 0xff) == cap_zombie_cap"
	.section	.text.unlikely
	.type	cap_zombie_cap_get_capZombieType.isra.94.part.95, @function
cap_zombie_cap_get_capZombieType.isra.94.part.95:
.LFB732:
	.loc 27 1890 0
	.cfi_startproc
	subl	$28, %esp
	.cfi_def_cfa_offset 32
	.loc 27 1891 0
	movl	$__FUNCTION__.1917, 12(%esp)
	movl	$1892, 8(%esp)
	movl	$.LC34, 4(%esp)
	movl	$.LC53, (%esp)
	call	_assert_fail
.LVL765:
	.cfi_endproc
.LFE732:
	.size	cap_zombie_cap_get_capZombieType.isra.94.part.95, .-cap_zombie_cap_get_capZombieType.isra.94.part.95
	.type	cap_zombie_cap_get_capZombieID.part.97, @function
cap_zombie_cap_get_capZombieID.part.97:
.LFB734:
	.loc 27 1870 0
	.cfi_startproc
	subl	$28, %esp
	.cfi_def_cfa_offset 32
	.loc 27 1871 0
	movl	$__FUNCTION__.1908, 12(%esp)
	movl	$1872, 8(%esp)
	movl	$.LC34, 4(%esp)
	movl	$.LC53, (%esp)
	call	_assert_fail
.LVL766:
	.cfi_endproc
.LFE734:
	.size	cap_zombie_cap_get_capZombieID.part.97, .-cap_zombie_cap_get_capZombieID.part.97
	.section	.rodata.str1.4
	.align 4
.LC54:
	.string	"((cap.words[0] >> 0) & 0xf) == cap_asid_pool_cap"
	.section	.text.unlikely
	.type	cap_asid_pool_cap_get_capASIDPool.isra.99.part.100, @function
cap_asid_pool_cap_get_capASIDPool.isra.99.part.100:
.LFB737:
	.loc 27 1761 0
	.cfi_startproc
	subl	$28, %esp
	.cfi_def_cfa_offset 32
	.loc 27 1762 0
	movl	$__FUNCTION__.1870, 12(%esp)
	movl	$1763, 8(%esp)
	movl	$.LC34, 4(%esp)
	movl	$.LC54, (%esp)
	call	_assert_fail
.LVL767:
	.cfi_endproc
.LFE737:
	.size	cap_asid_pool_cap_get_capASIDPool.isra.99.part.100, .-cap_asid_pool_cap_get_capASIDPool.isra.99.part.100
	.section	.rodata.str1.4
	.align 4
.LC55:
	.string	"/home/mscapero/Desktop/sel4-benchmark/sel4test-manifest/kernel/include/arch/ia32/arch/object/structures.h"
	.section	.rodata.str1.1
.LC56:
	.string	"Invalid arch cap type"
	.text
	.p2align 4,,15
	.type	cap_get_capPtr, @function
cap_get_capPtr:
.LFB238:
	.file 40 "/home/mscapero/Desktop/sel4-benchmark/sel4test-manifest/kernel/include/arch/ia32/arch/object/structures.h"
	.loc 40 423 0
	.cfi_startproc
.LVL768:
	pushl	%esi
	.cfi_def_cfa_offset 8
	.cfi_offset 6, -8
.LBB4091:
.LBB4092:
	.loc 27 872 0
	movl	%eax, %esi
.LBE4092:
.LBE4091:
	.loc 40 423 0
	pushl	%ebx
	.cfi_def_cfa_offset 12
	.cfi_offset 3, -12
.LBB4095:
.LBB4093:
	.loc 27 872 0
	andl	$14, %esi
	.loc 27 873 0
	movl	%eax, %ecx
.LBE4093:
.LBE4095:
	.loc 40 423 0
	subl	$20, %esp
	.cfi_def_cfa_offset 32
.LBB4096:
.LBB4094:
	.loc 27 873 0
	andl	$15, %ecx
	movzbl	%al, %ebx
.LVL769:
	cmpl	$14, %esi
	cmove	%ebx, %ecx
.LVL770:
.LBE4094:
.LBE4096:
	.loc 40 428 0
	cmpl	$62, %ecx
	ja	.L706
	jmp	*.L708(,%ecx,4)
	.section	.rodata
	.align 4
	.align 4
.L708:
	.long	.L730
	.long	.L709
	.long	.L710
	.long	.L711
	.long	.L712
	.long	.L713
	.long	.L714
	.long	.L730
	.long	.L730
	.long	.L715
	.long	.L716
	.long	.L730
	.long	.L717
	.long	.L706
	.long	.L730
	.long	.L706
	.long	.L706
	.long	.L706
	.long	.L706
	.long	.L706
	.long	.L706
	.long	.L706
	.long	.L706
	.long	.L706
	.long	.L706
	.long	.L706
	.long	.L706
	.long	.L706
	.long	.L706
	.long	.L706
	.long	.L730
	.long	.L706
	.long	.L706
	.long	.L706
	.long	.L706
	.long	.L706
	.long	.L706
	.long	.L706
	.long	.L706
	.long	.L706
	.long	.L706
	.long	.L706
	.long	.L706
	.long	.L706
	.long	.L706
	.long	.L706
	.long	.L718
	.long	.L706
	.long	.L706
	.long	.L706
	.long	.L706
	.long	.L706
	.long	.L706
	.long	.L706
	.long	.L706
	.long	.L706
	.long	.L706
	.long	.L706
	.long	.L706
	.long	.L706
	.long	.L706
	.long	.L706
	.long	.L730
	.text
	.p2align 4,,7
	.p2align 3
.L730:
	.loc 40 457 0
	xorl	%eax, %eax
.LVL771:
.L707:
	.loc 40 489 0
	addl	$20, %esp
	.cfi_remember_state
	.cfi_def_cfa_offset 12
	popl	%ebx
	.cfi_restore 3
	.cfi_def_cfa_offset 8
.LVL772:
	popl	%esi
	.cfi_restore 6
	.cfi_def_cfa_offset 4
	ret
.LVL773:
	.p2align 4,,7
	.p2align 3
.L709:
	.cfi_restore_state
.LBB4097:
.LBB4098:
	.loc 27 1507 0
	movl	%eax, %edx
.LVL774:
	andl	$15, %edx
	cmpl	$1, %edx
	jne	.L734
.LVL775:
.L729:
.LBE4098:
.LBE4097:
	.loc 40 489 0
	addl	$20, %esp
	.cfi_remember_state
	.cfi_def_cfa_offset 12
.LBB4100:
.LBB4101:
	.loc 27 1765 0
	andl	$16777200, %eax
.LVL776:
	sall	$8, %eax
.LBE4101:
.LBE4100:
	.loc 40 489 0
	popl	%ebx
	.cfi_restore 3
	.cfi_def_cfa_offset 8
.LVL777:
	popl	%esi
	.cfi_restore 6
	.cfi_def_cfa_offset 4
	ret
.LVL778:
	.p2align 4,,7
	.p2align 3
.L710:
	.cfi_restore_state
.LBB4103:
.LBB4104:
	.loc 27 965 0
	movl	%eax, %edx
.LVL779:
	andl	$15, %edx
	cmpl	$2, %edx
	jne	.L735
.LVL780:
.L721:
.LBE4104:
.LBE4103:
	.loc 40 489 0
	addl	$20, %esp
	.cfi_remember_state
	.cfi_def_cfa_offset 12
.LBB4106:
.LBB4107:
	.loc 27 1190 0
	andl	$-16, %eax
.LVL781:
.LBE4107:
.LBE4106:
	.loc 40 489 0
	popl	%ebx
	.cfi_restore 3
	.cfi_def_cfa_offset 8
.LVL782:
	popl	%esi
	.cfi_restore 6
	.cfi_def_cfa_offset 4
	ret
.LVL783:
	.p2align 4,,7
	.p2align 3
.L711:
	.cfi_restore_state
.LBB4109:
.LBB4110:
	.loc 27 1619 0
	movl	%eax, %edx
.LVL784:
	andl	$15, %edx
	cmpl	$3, %edx
	je	.L729
	call	cap_page_table_cap_get_capPTBasePtr.isra.92.part.93
.LVL785:
	.p2align 4,,7
	.p2align 3
.L712:
.LBE4110:
.LBE4109:
.LBB4111:
.LBB4112:
	.loc 27 1088 0
	movl	%eax, %edx
.LVL786:
	andl	$15, %edx
	cmpl	$4, %edx
	je	.L721
	call	cap_endpoint_cap_get_capEPPtr.isra.65.part.66
.LVL787:
	.p2align 4,,7
	.p2align 3
.L713:
.LBE4112:
.LBE4111:
.LBB4113:
.LBB4114:
	.loc 27 1708 0
	movl	%eax, %edx
.LVL788:
	andl	$15, %edx
	cmpl	$5, %edx
	je	.L729
	call	cap_page_directory_cap_get_capPDBasePtr.isra.67.part.68
.LVL789:
	.p2align 4,,7
	.p2align 3
.L714:
.LBE4114:
.LBE4113:
.LBB4115:
.LBB4108:
	.loc 27 1187 0
	movl	%eax, %edx
.LVL790:
	andl	$15, %edx
	cmpl	$6, %edx
	je	.L721
	call	cap_async_endpoint_cap_get_capAEPPtr.isra.86.part.87
.LVL791:
	.p2align 4,,7
	.p2align 3
.L717:
.LBE4108:
.LBE4115:
.LBB4116:
.LBB4117:
	.loc 27 1359 0
	movl	%eax, %edx
.LVL792:
	andl	$15, %edx
	cmpl	$12, %edx
	jne	.L736
.LBE4117:
.LBE4116:
	.loc 40 442 0
	andl	$-1024, %eax
.LVL793:
	jmp	.L707
.LVL794:
	.p2align 4,,7
	.p2align 3
.L718:
.LBB4119:
.LBB4120:
.LBB4121:
.LBB4122:
.LBB4123:
.LBB4124:
	.loc 27 1891 0
	cmpb	$46, %al
	jne	.L737
	.loc 27 1894 0
	andl	$16128, %eax
.LVL795:
	movl	%eax, %ecx
.LBE4124:
.LBE4123:
	.loc 40 90 0
	movl	$-16, %eax
.LBB4127:
.LBB4125:
	.loc 27 1894 0
	shrl	$8, %ecx
.LBE4125:
.LBE4127:
	.loc 40 90 0
	cmpl	$32, %ecx
	je	.L728
	addl	$1, %ecx
	movb	$-1, %al
	sall	%cl, %eax
.L728:
.LVL796:
.LBE4122:
.LBE4121:
	.loc 40 107 0
	andl	%edx, %eax
.LBE4120:
.LBE4119:
	.loc 40 454 0
	jmp	.L707
.LVL797:
	.p2align 4,,7
	.p2align 3
.L715:
.LBB4132:
.LBB4102:
	.loc 27 1762 0
	movl	%eax, %edx
.LVL798:
	andl	$15, %edx
	cmpl	$9, %edx
	je	.L729
	call	cap_asid_pool_cap_get_capASIDPool.isra.99.part.100
.LVL799:
	.p2align 4,,7
	.p2align 3
.L716:
.LBE4102:
.LBE4132:
.LBB4133:
.LBB4134:
	.loc 27 1332 0
	movl	%eax, %edx
.LVL800:
	andl	$15, %edx
	cmpl	$10, %edx
	jne	.L738
	.loc 27 1335 0
	andl	$2147483632, %eax
.LVL801:
	addl	%eax, %eax
.LBE4134:
.LBE4133:
	.loc 40 439 0
	jmp	.L707
.LVL802:
	.p2align 4,,7
	.p2align 3
.L706:
.LBB4136:
.LBB4137:
	.loc 40 487 0
	movl	$__func__.2498, 12(%esp)
	movl	$487, 8(%esp)
	movl	$.LC55, 4(%esp)
	movl	$.LC56, (%esp)
	call	_fail
.LVL803:
.L734:
.LBE4137:
.LBE4136:
.LBB4138:
.LBB4099:
	call	cap_frame_cap_get_capFBasePtr.isra.90.part.91
.LVL804:
.L738:
.LBE4099:
.LBE4138:
.LBB4139:
.LBB4135:
	call	cap_cnode_cap_get_capCNodePtr.isra.62.part.63
.LVL805:
.L737:
.LBE4135:
.LBE4139:
.LBB4140:
.LBB4131:
.LBB4130:
.LBB4129:
.LBB4128:
.LBB4126:
	.p2align 4,,5
	call	cap_zombie_cap_get_capZombieType.isra.94.part.95
.LVL806:
.L736:
.LBE4126:
.LBE4128:
.LBE4129:
.LBE4130:
.LBE4131:
.LBE4140:
.LBB4141:
.LBB4118:
	.p2align 4,,5
	call	cap_thread_cap_get_capTCBPtr.isra.88.part.89
.LVL807:
.L735:
.LBE4118:
.LBE4141:
.LBB4142:
.LBB4105:
	.p2align 4,,5
	call	cap_untyped_cap_get_capPtr.isra.84.part.85
.LVL808:
.LBE4105:
.LBE4142:
	.cfi_endproc
.LFE238:
	.size	cap_get_capPtr, .-cap_get_capPtr
	.section	.boot.text
	.p2align 4,,15
	.globl	write_it_asid_pool
	.type	write_it_asid_pool, @function
write_it_asid_pool:
.LFB353:
	.loc 4 918 0
	.cfi_startproc
.LVL809:
	pushl	%ebp
	.cfi_def_cfa_offset 8
	.cfi_offset 5, -8
	pushl	%edi
	.cfi_def_cfa_offset 12
	.cfi_offset 7, -12
	pushl	%esi
	.cfi_def_cfa_offset 16
	.cfi_offset 6, -16
	pushl	%ebx
	.cfi_def_cfa_offset 20
	.cfi_offset 3, -20
	subl	$28, %esp
	.cfi_def_cfa_offset 48
	.loc 4 918 0
	movl	48(%esp), %eax
	movl	52(%esp), %edi
.LVL810:
	movl	56(%esp), %edx
	movl	60(%esp), %ebx
.LBB4247:
.LBB4248:
.LBB4249:
.LBB4250:
	.loc 27 872 0
	movl	%eax, %ebp
	.loc 27 873 0
	movl	%eax, %ecx
	.loc 27 872 0
	andl	$14, %ebp
	.loc 27 873 0
	andl	$15, %ecx
	movzbl	%al, %esi
.LVL811:
	cmpl	$14, %ebp
	cmove	%esi, %ecx
.LVL812:
.LBE4250:
.LBE4249:
	.loc 40 428 0
	cmpl	$62, %ecx
	ja	.L768
	jmp	*.L744(,%ecx,4)
	.section	.rodata
	.align 4
	.align 4
.L744:
	.long	.L792
	.long	.L745
	.long	.L746
	.long	.L747
	.long	.L748
	.long	.L749
	.long	.L750
	.long	.L792
	.long	.L792
	.long	.L751
	.long	.L752
	.long	.L792
	.long	.L753
	.long	.L768
	.long	.L792
	.long	.L768
	.long	.L768
	.long	.L768
	.long	.L768
	.long	.L768
	.long	.L768
	.long	.L768
	.long	.L768
	.long	.L768
	.long	.L768
	.long	.L768
	.long	.L768
	.long	.L768
	.long	.L768
	.long	.L768
	.long	.L792
	.long	.L768
	.long	.L768
	.long	.L768
	.long	.L768
	.long	.L768
	.long	.L768
	.long	.L768
	.long	.L768
	.long	.L768
	.long	.L768
	.long	.L768
	.long	.L768
	.long	.L768
	.long	.L768
	.long	.L768
	.long	.L754
	.long	.L768
	.long	.L768
	.long	.L768
	.long	.L768
	.long	.L768
	.long	.L768
	.long	.L768
	.long	.L768
	.long	.L768
	.long	.L768
	.long	.L768
	.long	.L768
	.long	.L768
	.long	.L768
	.long	.L768
	.long	.L792
	.section	.boot.text
	.p2align 4,,7
	.p2align 3
.L792:
	.loc 40 457 0
	xorl	%eax, %eax
.LVL813:
	.p2align 4,,7
	.p2align 3
.L743:
.LBE4248:
.LBE4247:
.LBB4299:
.LBB4300:
.LBB4301:
.LBB4302:
	.loc 27 872 0
	movl	%edx, %edi
	.loc 27 873 0
	movl	%edx, %ecx
	.loc 27 872 0
	andl	$14, %edi
	.loc 27 873 0
	andl	$15, %ecx
	movzbl	%dl, %esi
.LVL814:
	cmpl	$14, %edi
	cmove	%esi, %ecx
.LVL815:
.LBE4302:
.LBE4301:
	.loc 40 428 0
	cmpl	$62, %ecx
	ja	.L768
	jmp	*.L770(,%ecx,4)
	.section	.rodata
	.align 4
	.align 4
.L770:
	.long	.L794
	.long	.L771
	.long	.L772
	.long	.L773
	.long	.L774
	.long	.L775
	.long	.L776
	.long	.L794
	.long	.L794
	.long	.L777
	.long	.L778
	.long	.L794
	.long	.L779
	.long	.L768
	.long	.L794
	.long	.L768
	.long	.L768
	.long	.L768
	.long	.L768
	.long	.L768
	.long	.L768
	.long	.L768
	.long	.L768
	.long	.L768
	.long	.L768
	.long	.L768
	.long	.L768
	.long	.L768
	.long	.L768
	.long	.L768
	.long	.L794
	.long	.L768
	.long	.L768
	.long	.L768
	.long	.L768
	.long	.L768
	.long	.L768
	.long	.L768
	.long	.L768
	.long	.L768
	.long	.L768
	.long	.L768
	.long	.L768
	.long	.L768
	.long	.L768
	.long	.L768
	.long	.L780
	.long	.L768
	.long	.L768
	.long	.L768
	.long	.L768
	.long	.L768
	.long	.L768
	.long	.L768
	.long	.L768
	.long	.L768
	.long	.L768
	.long	.L768
	.long	.L768
	.long	.L768
	.long	.L768
	.long	.L768
	.long	.L794
	.section	.boot.text
.LVL816:
	.p2align 4,,7
	.p2align 3
.L745:
.LBE4300:
.LBE4299:
.LBB4337:
.LBB4295:
.LBB4251:
.LBB4252:
	.loc 27 1507 0
	movl	%eax, %ecx
	andl	$15, %ecx
	cmpl	$1, %ecx
	jne	.L786
.LVL817:
.L765:
.LBE4252:
.LBE4251:
.LBB4254:
.LBB4255:
	.loc 27 1765 0
	andl	$16777200, %eax
.LVL818:
	sall	$8, %eax
	jmp	.L743
.LVL819:
	.p2align 4,,7
	.p2align 3
.L746:
.LBE4255:
.LBE4254:
.LBB4257:
.LBB4258:
	.loc 27 965 0
	movl	%eax, %ecx
	andl	$15, %ecx
	cmpl	$2, %ecx
	jne	.L781
.LVL820:
.L757:
.LBE4258:
.LBE4257:
.LBB4260:
.LBB4261:
	.loc 27 1190 0
	andl	$-16, %eax
.LVL821:
	jmp	.L743
.LVL822:
	.p2align 4,,7
	.p2align 3
.L747:
.LBE4261:
.LBE4260:
.LBB4263:
.LBB4264:
	.loc 27 1619 0
	movl	%eax, %ecx
	andl	$15, %ecx
	cmpl	$3, %ecx
	je	.L765
.LVL823:
.L787:
	call	cap_page_table_cap_get_capPTBasePtr.isra.92.part.93
.LVL824:
	.p2align 4,,7
	.p2align 3
.L748:
.LBE4264:
.LBE4263:
.LBB4265:
.LBB4266:
	.loc 27 1088 0
	movl	%eax, %ecx
	andl	$15, %ecx
	cmpl	$4, %ecx
	je	.L757
.LVL825:
.L782:
	call	cap_endpoint_cap_get_capEPPtr.isra.65.part.66
.LVL826:
	.p2align 4,,7
	.p2align 3
.L749:
.LBE4266:
.LBE4265:
.LBB4267:
.LBB4268:
	.loc 27 1708 0
	movl	%eax, %ecx
	andl	$15, %ecx
	cmpl	$5, %ecx
	je	.L765
.LVL827:
.L788:
	call	cap_page_directory_cap_get_capPDBasePtr.isra.67.part.68
.LVL828:
	.p2align 4,,7
	.p2align 3
.L750:
.LBE4268:
.LBE4267:
.LBB4269:
.LBB4262:
	.loc 27 1187 0
	movl	%eax, %ecx
	andl	$15, %ecx
	cmpl	$6, %ecx
	je	.L757
.LVL829:
.L783:
	call	cap_async_endpoint_cap_get_capAEPPtr.isra.86.part.87
.LVL830:
	.p2align 4,,7
	.p2align 3
.L753:
.LBE4262:
.LBE4269:
.LBB4270:
.LBB4271:
	.loc 27 1359 0
	movl	%eax, %ecx
	andl	$15, %ecx
	cmpl	$12, %ecx
	jne	.L785
.LBE4271:
.LBE4270:
	.loc 40 442 0
	andl	$-1024, %eax
.LVL831:
	jmp	.L743
.LVL832:
	.p2align 4,,7
	.p2align 3
.L754:
.LBB4273:
.LBB4274:
.LBB4275:
.LBB4276:
.LBB4277:
.LBB4278:
	.loc 27 1891 0
	cmpb	$46, %al
	jne	.L789
	.loc 27 1894 0
	andl	$16128, %eax
.LVL833:
	movl	%eax, %ecx
.LBE4278:
.LBE4277:
	.loc 40 90 0
	movl	$-16, %eax
.LBB4281:
.LBB4279:
	.loc 27 1894 0
	shrl	$8, %ecx
.LBE4279:
.LBE4281:
	.loc 40 90 0
	cmpl	$32, %ecx
	je	.L764
	addl	$1, %ecx
	movb	$-1, %al
	sall	%cl, %eax
.L764:
.LVL834:
.LBE4276:
.LBE4275:
	.loc 40 107 0
	andl	%edi, %eax
	jmp	.L743
.LVL835:
	.p2align 4,,7
	.p2align 3
.L751:
.LBE4274:
.LBE4273:
.LBB4286:
.LBB4256:
	.loc 27 1762 0
	movl	%eax, %ecx
	andl	$15, %ecx
	cmpl	$9, %ecx
	je	.L765
.LVL836:
.L791:
	call	cap_asid_pool_cap_get_capASIDPool.isra.99.part.100
.LVL837:
	.p2align 4,,7
	.p2align 3
.L752:
.LBE4256:
.LBE4286:
.LBB4287:
.LBB4288:
	.loc 27 1332 0
	movl	%eax, %ecx
	andl	$15, %ecx
	cmpl	$10, %ecx
	jne	.L784
	.loc 27 1335 0
	andl	$2147483632, %eax
.LVL838:
	addl	%eax, %eax
	jmp	.L743
.LVL839:
	.p2align 4,,7
	.p2align 3
.L794:
.LBE4288:
.LBE4287:
.LBE4295:
.LBE4337:
.LBB4338:
.LBB4331:
	.loc 40 457 0
	xorl	%edx, %edx
.LVL840:
.L769:
.LBE4331:
.LBE4338:
	.loc 4 920 0
	movl	%edx, 4(%eax)
	.loc 4 921 0
	movl	%eax, ia32KSASIDTable
	.loc 4 922 0
	addl	$28, %esp
	.cfi_remember_state
	.cfi_def_cfa_offset 20
	popl	%ebx
	.cfi_restore 3
	.cfi_def_cfa_offset 16
	popl	%esi
	.cfi_restore 6
	.cfi_def_cfa_offset 12
.LVL841:
	popl	%edi
	.cfi_restore 7
	.cfi_def_cfa_offset 8
	popl	%ebp
	.cfi_restore 5
	.cfi_def_cfa_offset 4
	ret
.LVL842:
	.p2align 4,,7
	.p2align 3
.L778:
	.cfi_restore_state
.LBB4339:
.LBB4332:
.LBB4303:
.LBB4304:
	.loc 27 1332 0
	movl	%edx, %ecx
	andl	$15, %ecx
	cmpl	$10, %ecx
	jne	.L784
	.loc 27 1335 0
	andl	$2147483632, %edx
.LVL843:
	addl	%edx, %edx
	jmp	.L769
.LVL844:
	.p2align 4,,7
	.p2align 3
.L777:
.LBE4304:
.LBE4303:
.LBB4305:
.LBB4306:
	.loc 27 1762 0
	movl	%edx, %ecx
	andl	$15, %ecx
	cmpl	$9, %ecx
	jne	.L791
.LVL845:
.L801:
	.loc 27 1765 0
	andl	$16777200, %edx
.LVL846:
	sall	$8, %edx
.LBE4306:
.LBE4305:
.LBE4332:
.LBE4339:
	.loc 4 920 0
	movl	%edx, 4(%eax)
	.loc 4 921 0
	movl	%eax, ia32KSASIDTable
	.loc 4 922 0
	addl	$28, %esp
	.cfi_remember_state
	.cfi_def_cfa_offset 20
	popl	%ebx
	.cfi_restore 3
	.cfi_def_cfa_offset 16
	popl	%esi
	.cfi_restore 6
	.cfi_def_cfa_offset 12
.LVL847:
	popl	%edi
	.cfi_restore 7
	.cfi_def_cfa_offset 8
	popl	%ebp
	.cfi_restore 5
	.cfi_def_cfa_offset 4
	ret
.LVL848:
	.p2align 4,,7
	.p2align 3
.L780:
	.cfi_restore_state
.LBB4340:
.LBB4333:
.LBB4307:
.LBB4308:
.LBB4309:
.LBB4310:
.LBB4311:
.LBB4312:
	.loc 27 1891 0
	cmpb	$46, %dl
	jne	.L789
	.loc 27 1894 0
	andl	$16128, %edx
.LVL849:
	movl	%edx, %ecx
.LBE4312:
.LBE4311:
	.loc 40 90 0
	movl	$-16, %edx
.LBB4314:
.LBB4313:
	.loc 27 1894 0
	shrl	$8, %ecx
.LBE4313:
.LBE4314:
	.loc 40 90 0
	cmpl	$32, %ecx
	je	.L790
	addl	$1, %ecx
	movb	$-1, %dl
	sall	%cl, %edx
.L790:
.LVL850:
.LBE4310:
.LBE4309:
	.loc 40 107 0
	andl	%ebx, %edx
	jmp	.L769
.LVL851:
	.p2align 4,,7
	.p2align 3
.L771:
.LBE4308:
.LBE4307:
.LBB4315:
.LBB4316:
	.loc 27 1507 0
	movl	%edx, %ecx
	andl	$15, %ecx
	cmpl	$1, %ecx
	je	.L801
.LVL852:
.L786:
.LBE4316:
.LBE4315:
.LBE4333:
.LBE4340:
.LBB4341:
.LBB4296:
.LBB4290:
.LBB4253:
	call	cap_frame_cap_get_capFBasePtr.isra.90.part.91
.LVL853:
	.p2align 4,,7
	.p2align 3
.L779:
.LBE4253:
.LBE4290:
.LBE4296:
.LBE4341:
.LBB4342:
.LBB4334:
.LBB4317:
.LBB4318:
	.loc 27 1359 0
	movl	%edx, %ecx
	andl	$15, %ecx
	cmpl	$12, %ecx
	jne	.L785
.LBE4318:
.LBE4317:
	.loc 40 442 0
	andl	$-1024, %edx
.LVL854:
	jmp	.L769
.LVL855:
	.p2align 4,,7
	.p2align 3
.L776:
.LBB4319:
.LBB4320:
	.loc 27 1187 0
	movl	%edx, %ecx
	andl	$15, %ecx
	cmpl	$6, %ecx
	jne	.L783
.LVL856:
.L800:
	.loc 27 1190 0
	andl	$-16, %edx
.LVL857:
.LBE4320:
.LBE4319:
.LBE4334:
.LBE4342:
	.loc 4 920 0
	movl	%edx, 4(%eax)
	.loc 4 921 0
	movl	%eax, ia32KSASIDTable
	.loc 4 922 0
	addl	$28, %esp
	.cfi_remember_state
	.cfi_def_cfa_offset 20
	popl	%ebx
	.cfi_restore 3
	.cfi_def_cfa_offset 16
	popl	%esi
	.cfi_restore 6
	.cfi_def_cfa_offset 12
.LVL858:
	popl	%edi
	.cfi_restore 7
	.cfi_def_cfa_offset 8
	popl	%ebp
	.cfi_restore 5
	.cfi_def_cfa_offset 4
	ret
.LVL859:
	.p2align 4,,7
	.p2align 3
.L775:
	.cfi_restore_state
.LBB4343:
.LBB4335:
.LBB4321:
.LBB4322:
	.loc 27 1708 0
	movl	%edx, %ecx
	andl	$15, %ecx
	cmpl	$5, %ecx
	je	.L801
	jmp	.L788
.LVL860:
	.p2align 4,,7
	.p2align 3
.L774:
.LBE4322:
.LBE4321:
.LBB4323:
.LBB4324:
	.loc 27 1088 0
	movl	%edx, %ecx
	andl	$15, %ecx
	cmpl	$4, %ecx
	je	.L800
	.p2align 4,,3
	jmp	.L782
.LVL861:
	.p2align 4,,7
	.p2align 3
.L773:
.LBE4324:
.LBE4323:
.LBB4325:
.LBB4326:
	.loc 27 1619 0
	movl	%edx, %ecx
	andl	$15, %ecx
	cmpl	$3, %ecx
	je	.L801
	.p2align 4,,3
	jmp	.L787
.LVL862:
	.p2align 4,,7
	.p2align 3
.L772:
.LBE4326:
.LBE4325:
.LBB4327:
.LBB4328:
	.loc 27 965 0
	movl	%edx, %ecx
	andl	$15, %ecx
	cmpl	$2, %ecx
	je	.L800
.LVL863:
.L781:
.LBE4328:
.LBE4327:
.LBE4335:
.LBE4343:
.LBB4344:
.LBB4297:
.LBB4291:
.LBB4259:
	call	cap_untyped_cap_get_capPtr.isra.84.part.85
.LVL864:
	.p2align 4,,7
	.p2align 3
.L768:
.LBE4259:
.LBE4291:
.LBE4297:
.LBE4344:
.LBB4345:
.LBB4336:
.LBB4329:
.LBB4330:
	.loc 40 487 0
	movl	$__func__.2498, 12(%esp)
	movl	$487, 8(%esp)
	movl	$.LC55, 4(%esp)
	movl	$.LC56, (%esp)
	call	_fail
.LVL865:
.L784:
.LBE4330:
.LBE4329:
.LBE4336:
.LBE4345:
.LBB4346:
.LBB4298:
.LBB4292:
.LBB4289:
	call	cap_cnode_cap_get_capCNodePtr.isra.62.part.63
.LVL866:
.L789:
.LBE4289:
.LBE4292:
.LBB4293:
.LBB4285:
.LBB4284:
.LBB4283:
.LBB4282:
.LBB4280:
	call	cap_zombie_cap_get_capZombieType.isra.94.part.95
.LVL867:
.L785:
.LBE4280:
.LBE4282:
.LBE4283:
.LBE4284:
.LBE4285:
.LBE4293:
.LBB4294:
.LBB4272:
	.p2align 4,,5
	call	cap_thread_cap_get_capTCBPtr.isra.88.part.89
.LVL868:
.LBE4272:
.LBE4294:
.LBE4298:
.LBE4346:
	.cfi_endproc
.LFE353:
	.size	write_it_asid_pool, .-write_it_asid_pool
	.section	.rodata.str1.1
.LC57:
	.string	"(capPDIsMapped & ~0x1) == 0"
	.section	.text.unlikely
	.type	cap_page_directory_cap_new.part.102, @function
cap_page_directory_cap_new.part.102:
.LFB739:
	.loc 27 1626 0
	.cfi_startproc
.LVL869:
	subl	$28, %esp
	.cfi_def_cfa_offset 32
	.loc 27 1633 0
	movl	$__FUNCTION__.1824, 12(%esp)
	movl	$1633, 8(%esp)
	movl	$.LC34, 4(%esp)
	movl	$.LC57, (%esp)
	call	_assert_fail
.LVL870:
	.cfi_endproc
.LFE739:
	.size	cap_page_directory_cap_new.part.102, .-cap_page_directory_cap_new.part.102
	.section	.rodata.str1.1
.LC58:
	.string	"(capPTIsMapped & ~0x1) == 0"
	.section	.text.unlikely
	.type	cap_page_table_cap_new.part.103, @function
cap_page_table_cap_new.part.103:
.LFB740:
	.loc 27 1514 0
	.cfi_startproc
.LVL871:
	subl	$28, %esp
	.cfi_def_cfa_offset 32
	.loc 27 1521 0
	movl	$__FUNCTION__.1781, 12(%esp)
	movl	$1521, 8(%esp)
	movl	$.LC34, 4(%esp)
	movl	$.LC58, (%esp)
	call	_assert_fail
.LVL872:
	.cfi_endproc
.LFE740:
	.size	cap_page_table_cap_new.part.103, .-cap_page_table_cap_new.part.103
	.section	.rodata.str1.4
	.align 4
.LC59:
	.string	"(page_base_address & ~0xffc00000) == 0"
	.section	.text.unlikely
	.type	pde_pde_4m_new.part.104, @function
pde_pde_4m_new.part.104:
.LFB741:
	.loc 27 2691 0
	.cfi_startproc
.LVL873:
	subl	$28, %esp
	.cfi_def_cfa_offset 32
	.loc 27 2697 0
	movl	$__FUNCTION__.2223, 12(%esp)
	movl	$2697, 8(%esp)
	movl	$.LC34, 4(%esp)
	movl	$.LC59, (%esp)
	call	_assert_fail
.LVL874:
	.cfi_endproc
.LFE741:
	.size	pde_pde_4m_new.part.104, .-pde_pde_4m_new.part.104
	.section	.rodata.str1.4
	.align 4
.LC60:
	.string	"(pt_base_address & ~0xfffff000) == 0"
	.section	.text.unlikely
	.type	pde_pde_4k_new.part.105, @function
pde_pde_4k_new.part.105:
.LFB742:
	.loc 27 2563 0
	.cfi_startproc
.LVL875:
	subl	$28, %esp
	.cfi_def_cfa_offset 32
	.loc 27 2569 0
	movl	$__FUNCTION__.2176, 12(%esp)
	movl	$2569, 8(%esp)
	movl	$.LC34, 4(%esp)
	movl	$.LC60, (%esp)
	call	_assert_fail
.LVL876:
	.cfi_endproc
.LFE742:
	.size	pde_pde_4k_new.part.105, .-pde_pde_4k_new.part.105
	.section	.rodata.str1.4
	.align 4
.LC61:
	.string	"(page_base_address & ~0xfffff000) == 0"
	.section	.text.unlikely
	.type	pte_new.part.106, @function
pte_new.part.106:
.LFB743:
	.loc 27 29 0
	.cfi_startproc
.LVL877:
	subl	$28, %esp
	.cfi_def_cfa_offset 32
	.loc 27 35 0
	movl	$__FUNCTION__.1125, 12(%esp)
	movl	$35, 8(%esp)
	movl	$.LC34, 4(%esp)
	movl	$.LC61, (%esp)
	call	_assert_fail
.LVL878:
	.cfi_endproc
.LFE743:
	.size	pte_new.part.106, .-pte_new.part.106
	.section	.rodata.str1.1
.LC62:
	.string	"(base_high & ~0xff) == 0"
	.section	.text.unlikely
	.type	gdt_entry_gdt_code_new.part.107, @function
gdt_entry_gdt_code_new.part.107:
.LFB744:
	.loc 27 2281 0
	.cfi_startproc
.LVL879:
	subl	$28, %esp
	.cfi_def_cfa_offset 32
	.loc 27 2288 0
	movl	$__FUNCTION__.2074, 12(%esp)
	movl	$2288, 8(%esp)
	movl	$.LC34, 4(%esp)
	movl	$.LC62, (%esp)
	call	_assert_fail
.LVL880:
	.cfi_endproc
.LFE744:
	.size	gdt_entry_gdt_code_new.part.107, .-gdt_entry_gdt_code_new.part.107
	.type	gdt_entry_gdt_data_new.part.108, @function
gdt_entry_gdt_data_new.part.108:
.LFB745:
	.loc 27 2179 0
	.cfi_startproc
.LVL881:
	subl	$28, %esp
	.cfi_def_cfa_offset 32
	.loc 27 2186 0
	movl	$__FUNCTION__.2043, 12(%esp)
	movl	$2186, 8(%esp)
	movl	$.LC34, 4(%esp)
	movl	$.LC62, (%esp)
	call	_assert_fail
.LVL882:
	.cfi_endproc
.LFE745:
	.size	gdt_entry_gdt_data_new.part.108, .-gdt_entry_gdt_data_new.part.108
	.type	cap_page_table_cap_get_capPTMappedAddress.part.109, @function
cap_page_table_cap_get_capPTMappedAddress.part.109:
.LFB746:
	.loc 27 1598 0
	.cfi_startproc
	subl	$28, %esp
	.cfi_def_cfa_offset 32
	.loc 27 1599 0
	movl	$__FUNCTION__.1808, 12(%esp)
	movl	$1600, 8(%esp)
	movl	$.LC34, 4(%esp)
	movl	$.LC52, (%esp)
	call	_assert_fail
.LVL883:
	.cfi_endproc
.LFE746:
	.size	cap_page_table_cap_get_capPTMappedAddress.part.109, .-cap_page_table_cap_get_capPTMappedAddress.part.109
	.type	cap_page_table_cap_get_capPTIsMapped.part.110, @function
cap_page_table_cap_get_capPTIsMapped.part.110:
.LFB747:
	.loc 27 1545 0
	.cfi_startproc
	subl	$28, %esp
	.cfi_def_cfa_offset 32
	.loc 27 1546 0
	movl	$__FUNCTION__.1785, 12(%esp)
	movl	$1547, 8(%esp)
	movl	$.LC34, 4(%esp)
	movl	$.LC52, (%esp)
	call	_assert_fail
.LVL884:
	.cfi_endproc
.LFE747:
	.size	cap_page_table_cap_get_capPTIsMapped.part.110, .-cap_page_table_cap_get_capPTIsMapped.part.110
	.type	cap_frame_cap_get_capFMappedAddress.part.111, @function
cap_frame_cap_get_capFMappedAddress.part.111:
.LFB748:
	.loc 27 1433 0
	.cfi_startproc
	subl	$28, %esp
	.cfi_def_cfa_offset 32
	.loc 27 1434 0
	movl	$__FUNCTION__.1741, 12(%esp)
	movl	$1435, 8(%esp)
	movl	$.LC34, 4(%esp)
	movl	$.LC51, (%esp)
	call	_assert_fail
.LVL885:
	.cfi_endproc
.LFE748:
	.size	cap_frame_cap_get_capFMappedAddress.part.111, .-cap_frame_cap_get_capFMappedAddress.part.111
	.text
	.p2align 4,,15
	.type	cap_frame_cap_get_capFMappedASID, @function
cap_frame_cap_get_capFMappedASID:
.LFB233:
	.loc 40 320 0
	.cfi_startproc
.LVL886:
.LBB4351:
.LBB4352:
	.loc 27 1467 0
	movl	%eax, %ecx
	andl	$15, %ecx
	cmpl	$1, %ecx
	jne	.L825
.LVL887:
.LBE4352:
.LBE4351:
.LBB4355:
.LBB4356:
	.loc 27 1417 0
	andl	$1072693248, %edx
.LVL888:
.LBE4356:
.LBE4355:
.LBB4358:
.LBB4353:
	.loc 27 1470 0
	shrl	$26, %eax
.LVL889:
.LBE4353:
.LBE4358:
.LBB4359:
.LBB4357:
	.loc 27 1417 0
	shrl	$20, %edx
.LBE4357:
.LBE4359:
	.loc 40 322 0
	sall	$10, %eax
	.loc 40 321 0
	addl	%edx, %eax
	.loc 40 324 0
	ret
.LVL890:
.L825:
	.loc 40 320 0
	subl	$28, %esp
	.cfi_def_cfa_offset 32
.LBB4360:
.LBB4354:
	.loc 27 1467 0
	movl	$__FUNCTION__.1755, 12(%esp)
	movl	$1468, 8(%esp)
	movl	$.LC34, 4(%esp)
	movl	$.LC51, (%esp)
	call	_assert_fail
.LVL891:
.LBE4354:
.LBE4360:
	.cfi_endproc
.LFE233:
	.size	cap_frame_cap_get_capFMappedASID, .-cap_frame_cap_get_capFMappedASID
	.section	.rodata.str1.4
	.align 4
.LC63:
	.string	"((pde_ptr->words[0] >> 7) & 0x1) == pde_pde_4k"
	.section	.text.unlikely
	.type	pde_pde_4k_ptr_get_pt_base_address.part.113, @function
pde_pde_4k_ptr_get_pt_base_address.part.113:
.LFB750:
	.loc 27 2659 0
	.cfi_startproc
.LVL892:
	subl	$28, %esp
	.cfi_def_cfa_offset 32
	.loc 27 2660 0
	movl	$__FUNCTION__.2196, 12(%esp)
	movl	$2661, 8(%esp)
	movl	$.LC34, 4(%esp)
	movl	$.LC63, (%esp)
	call	_assert_fail
.LVL893:
	.cfi_endproc
.LFE750:
	.size	pde_pde_4k_ptr_get_pt_base_address.part.113, .-pde_pde_4k_ptr_get_pt_base_address.part.113
	.type	cap_frame_cap_get_capFVMRights.isra.119.part.120, @function
cap_frame_cap_get_capFVMRights.isra.119.part.120:
.LFB757:
	.loc 27 1486 0
	.cfi_startproc
	subl	$28, %esp
	.cfi_def_cfa_offset 32
	.loc 27 1487 0
	movl	$__FUNCTION__.1764, 12(%esp)
	movl	$1488, 8(%esp)
	movl	$.LC34, 4(%esp)
	movl	$.LC51, (%esp)
	call	_assert_fail
.LVL894:
	.cfi_endproc
.LFE757:
	.size	cap_frame_cap_get_capFVMRights.isra.119.part.120, .-cap_frame_cap_get_capFVMRights.isra.119.part.120
	.text
	.p2align 4,,15
	.globl	Arch_hasRecycleRights
	.type	Arch_hasRecycleRights, @function
Arch_hasRecycleRights:
.LFB416:
	.loc 19 309 0
	.cfi_startproc
.LVL895:
	pushl	%ebx
	.cfi_def_cfa_offset 8
	.cfi_offset 3, -8
	subl	$8, %esp
	.cfi_def_cfa_offset 16
	.loc 19 309 0
	movl	16(%esp), %eax
.LVL896:
.LBB4365:
.LBB4366:
	.loc 27 872 0
	movl	%eax, %ebx
	.loc 27 873 0
	movl	%eax, %edx
	.loc 27 872 0
	andl	$14, %ebx
	.loc 27 873 0
	andl	$15, %edx
	movzbl	%al, %ecx
	cmpl	$14, %ebx
	cmovne	%edx, %ecx
.LBE4366:
.LBE4365:
	.loc 19 310 0
	cmpl	$1, %ecx
	jne	.L837
.LVL897:
.LBB4367:
.LBB4368:
	.loc 27 1487 0
	cmpl	$1, %edx
	jne	.L839
	.loc 27 1490 0
	andl	$50331648, %eax
.LVL898:
.LBE4368:
.LBE4367:
	.loc 19 312 0
	cmpl	$50331648, %eax
	sete	%al
	.loc 19 317 0
	addl	$8, %esp
	.cfi_remember_state
	.cfi_def_cfa_offset 8
	.loc 19 312 0
	movzbl	%al, %eax
	.loc 19 317 0
	popl	%ebx
	.cfi_restore 3
	.cfi_def_cfa_offset 4
	ret
.LVL899:
	.p2align 4,,7
	.p2align 3
.L837:
	.cfi_restore_state
	addl	$8, %esp
	.cfi_remember_state
	.cfi_def_cfa_offset 8
	.loc 19 315 0
	movl	$1, %eax
.LVL900:
	.loc 19 317 0
	popl	%ebx
	.cfi_restore 3
	.cfi_def_cfa_offset 4
	ret
.LVL901:
.L839:
	.cfi_restore_state
.LBB4370:
.LBB4369:
	call	cap_frame_cap_get_capFVMRights.isra.119.part.120
.LVL902:
.LBE4369:
.LBE4370:
	.cfi_endproc
.LFE416:
	.size	Arch_hasRecycleRights, .-Arch_hasRecycleRights
	.section	.text.unlikely
	.type	cap_frame_cap_get_capFSize.part.121, @function
cap_frame_cap_get_capFSize.part.121:
.LFB758:
	.loc 27 1405 0
	.cfi_startproc
	subl	$28, %esp
	.cfi_def_cfa_offset 32
	.loc 27 1406 0
	movl	$__FUNCTION__.1728, 12(%esp)
	movl	$1407, 8(%esp)
	movl	$.LC34, 4(%esp)
	movl	$.LC51, (%esp)
	call	_assert_fail
.LVL903:
	.cfi_endproc
.LFE758:
	.size	cap_frame_cap_get_capFSize.part.121, .-cap_frame_cap_get_capFSize.part.121
	.text
	.p2align 4,,15
	.globl	lookupIPCBuffer
	.type	lookupIPCBuffer, @function
lookupIPCBuffer:
.LFB359:
	.loc 4 1015 0
	.cfi_startproc
.LVL904:
	pushl	%edi
	.cfi_def_cfa_offset 8
	.cfi_offset 7, -8
	pushl	%esi
	.cfi_def_cfa_offset 12
	.cfi_offset 6, -12
	pushl	%ebx
	.cfi_def_cfa_offset 16
	.cfi_offset 3, -16
	subl	$16, %esp
	.cfi_def_cfa_offset 32
	.loc 4 1015 0
	movl	36(%esp), %eax
	.loc 4 1020 0
	movl	636(%eax), %ebx
.LVL905:
	.loc 4 1021 0
	andl	$-1024, %eax
	movl	64(%eax), %edx
	movl	68(%eax), %esi
.LVL906:
.LBB4384:
.LBB4385:
	.loc 27 872 0
	movl	%edx, %edi
	.loc 27 873 0
	movl	%edx, %eax
	.loc 27 872 0
	andl	$14, %edi
	.loc 27 873 0
	andl	$15, %eax
	movzbl	%dl, %ecx
	cmpl	$14, %edi
	cmovne	%eax, %ecx
.LBE4385:
.LBE4384:
	.loc 4 1023 0
	cmpl	$1, %ecx
	jne	.L852
.LVL907:
.LBB4386:
.LBB4387:
	.loc 27 1487 0
	cmpl	$1, %eax
	jne	.L864
	.loc 27 1490 0
	movl	%edx, %eax
	andl	$50331648, %eax
	shrl	$24, %eax
.LBE4387:
.LBE4386:
	.loc 4 1028 0
	cmpl	$3, %eax
	je	.L847
	.loc 4 1028 0 is_stmt 0 discriminator 1
	cmpl	$2, %eax
	jne	.L852
	movl	32(%esp), %eax
	testl	%eax, %eax
	jne	.L852
.L847:
.LVL908:
.LBB4389:
.LBB4390:
.LBB4391:
	.loc 27 1409 0 is_stmt 1
	shrl	$31, %esi
.LVL909:
.LBE4391:
.LBE4390:
.LBB4392:
.LBB4393:
	.loc 37 41 0
	testl	%esi, %esi
	je	.L849
	cmpl	$1, %esi
	je	.L853
.LVL910:
.LBB4394:
.LBB4395:
	.loc 37 49 0
	movl	$__func__.2276, 12(%esp)
.LVL911:
	movl	$49, 8(%esp)
	movl	$.LC25, 4(%esp)
	movl	$.LC26, (%esp)
	call	_fail
.LVL912:
	.p2align 4,,7
	.p2align 3
.L849:
.LBE4395:
.LBE4394:
	.loc 37 41 0
	movl	$4095, %eax
.L850:
.LBE4393:
.LBE4392:
.LBB4397:
.LBB4398:
	.loc 27 1510 0
	andl	$16777200, %edx
.LVL913:
.LBE4398:
.LBE4397:
.LBE4389:
	.loc 4 1038 0
	addl	$16, %esp
	.cfi_remember_state
	.cfi_def_cfa_offset 16
.LBB4402:
	.loc 4 1034 0
	andl	%eax, %ebx
.LVL914:
.LBB4400:
.LBB4399:
	.loc 27 1510 0
	sall	$8, %edx
.LBE4399:
.LBE4400:
	.loc 4 1034 0
	leal	(%ebx,%edx), %eax
.LBE4402:
	.loc 4 1038 0
	popl	%ebx
	.cfi_restore 3
	.cfi_def_cfa_offset 12
	popl	%esi
	.cfi_restore 6
	.cfi_def_cfa_offset 8
.LVL915:
	popl	%edi
	.cfi_restore 7
	.cfi_def_cfa_offset 4
	ret
.LVL916:
	.p2align 4,,7
	.p2align 3
.L852:
	.cfi_restore_state
	addl	$16, %esp
	.cfi_remember_state
	.cfi_def_cfa_offset 16
	.loc 4 1024 0
	xorl	%eax, %eax
	.loc 4 1038 0
	popl	%ebx
	.cfi_restore 3
	.cfi_def_cfa_offset 12
.LVL917:
	popl	%esi
	.cfi_restore 6
	.cfi_def_cfa_offset 8
.LVL918:
	popl	%edi
	.cfi_restore 7
	.cfi_def_cfa_offset 4
	ret
.LVL919:
	.p2align 4,,7
	.p2align 3
.L853:
	.cfi_restore_state
.LBB4403:
.LBB4401:
.LBB4396:
	.loc 37 41 0
	movl	$4194303, %eax
	jmp	.L850
.LVL920:
.L864:
.LBE4396:
.LBE4401:
.LBE4403:
.LBB4404:
.LBB4388:
	call	cap_frame_cap_get_capFVMRights.isra.119.part.120
.LVL921:
.LBE4388:
.LBE4404:
	.cfi_endproc
.LFE359:
	.size	lookupIPCBuffer, .-lookupIPCBuffer
	.section	.rodata.str1.4
	.align 4
.LC64:
	.string	"/home/mscapero/Desktop/sel4-benchmark/sel4test-manifest/kernel/src/arch/ia32/api/faults.c"
	.section	.rodata.str1.1
.LC65:
	.string	"Invalid fault"
	.text
	.p2align 4,,15
	.globl	handleFaultReply
	.type	handleFaultReply, @function
handleFaultReply:
.LFB267:
	.loc 35 20 0
	.cfi_startproc
.LVL922:
	pushl	%ebp
	.cfi_def_cfa_offset 8
	.cfi_offset 5, -8
	pushl	%edi
	.cfi_def_cfa_offset 12
	.cfi_offset 7, -12
	pushl	%esi
	.cfi_def_cfa_offset 16
	.cfi_offset 6, -16
	pushl	%ebx
	.cfi_def_cfa_offset 20
	.cfi_offset 3, -20
	subl	$44, %esp
	.cfi_def_cfa_offset 64
	.loc 35 20 0
	movl	68(%esp), %ebx
.LVL923:
	movl	64(%esp), %edi
.LBB4405:
.LBB4406:
	.loc 13 27 0
	movl	16(%ebx), %eax
.LVL924:
.LBE4406:
.LBE4405:
.LBB4407:
.LBB4408:
.LBB4409:
.LBB4410:
	.loc 14 74 0
	movl	%eax, %esi
	andl	$127, %esi
.LBE4410:
.LBE4409:
	.loc 28 88 0
	cmpl	$120, %esi
	jbe	.L866
.LVL925:
.LBB4411:
.LBB4412:
	.loc 14 81 0
	andl	$-128, %eax
.LVL926:
	movl	$120, %esi
.LVL927:
	.loc 14 83 0
	orl	$120, %eax
.LVL928:
.L866:
.LBE4412:
.LBE4411:
.LBE4408:
.LBE4407:
.LBB4413:
.LBB4414:
	.loc 14 41 0
	shrl	$12, %eax
.LVL929:
	movl	%eax, 24(%esp)
.LVL930:
.LBE4414:
.LBE4413:
.LBB4415:
.LBB4416:
	.loc 27 1928 0
	movl	604(%edi), %eax
	andl	$7, %eax
.LBE4416:
.LBE4415:
	.loc 35 32 0
	cmpl	$3, %eax
	je	.L868
	ja	.L869
	cmpl	$1, %eax
	jb	.L867
	.loc 35 95 0
	addl	$44, %esp
	.cfi_remember_state
	.cfi_def_cfa_offset 20
	.loc 35 34 0
	movl	$1, %eax
	.loc 35 95 0
	popl	%ebx
	.cfi_restore 3
	.cfi_def_cfa_offset 16
.LVL931:
	popl	%esi
	.cfi_restore 6
	.cfi_def_cfa_offset 12
	popl	%edi
	.cfi_restore 7
	.cfi_def_cfa_offset 8
.LVL932:
	popl	%ebp
	.cfi_restore 5
	.cfi_def_cfa_offset 4
	ret
.LVL933:
	.p2align 4,,7
	.p2align 3
.L869:
	.cfi_restore_state
	.loc 35 32 0
	cmpl	$4, %eax
	jne	.L867
.LBB4417:
	.loc 35 73 0
	movl	%ebx, 4(%esp)
.LVL934:
	movl	$0, (%esp)
	call	lookupIPCBuffer
.LVL935:
	.loc 35 76 0
	xorl	%ecx, %ecx
	testl	%esi, %esi
	je	.L879
.LVL936:
.LBB4418:
.LBB4419:
	.loc 13 21 0
	movl	20(%ebx), %edx
.LBE4419:
.LBE4418:
	.loc 35 76 0
	cmpl	$1, %esi
	movb	$1, %cl
.LBB4423:
.LBB4420:
	.loc 13 21 0
	movl	%edx, 44(%edi)
.LVL937:
.LBE4420:
.LBE4423:
	.loc 35 76 0
	jbe	.L879
.LVL938:
.LBB4424:
.LBB4421:
	.loc 13 21 0 discriminator 2
	movl	24(%ebx), %edx
.LBE4421:
.LBE4424:
	.loc 35 76 0 discriminator 2
	movb	$2, %cl
.LBB4425:
.LBB4422:
	.loc 13 21 0 discriminator 2
	movl	%edx, 68(%edi)
.LVL939:
.L879:
.LBE4422:
.LBE4425:
	.loc 35 82 0
	testl	%eax, %eax
	je	.L882
.LVL940:
	.loc 35 83 0 discriminator 1
	cmpl	%esi, %ecx
	jae	.L882
	.loc 35 84 0
	movl	exceptionMessage(,%ecx,4), %ebx
.LVL941:
	.loc 35 85 0
	leal	1(%ecx), %edx
	movl	(%eax,%edx,4), %ebp
.LBB4426:
.LBB4427:
	.loc 17 62 0
	cmpl	$16, %ebx
.LBE4427:
.LBE4426:
	.loc 35 85 0
	movl	%ebp, 28(%esp)
.LVL942:
.LBB4432:
.LBB4428:
	.loc 17 62 0
	je	.L883
	.loc 17 69 0
	leal	-9(%ebx), %ebp
.LVL943:
	cmpl	$1, %ebp
	ja	.L884
	.loc 17 70 0
	movl	28(%esp), %ebp
	andl	$-9, %ebp
	.loc 17 71 0
	cmpl	$51, %ebp
	movl	$0, %ebp
	cmove	28(%esp), %ebp
	movl	%ebp, 28(%esp)
.LVL944:
.L884:
.LBE4428:
.LBE4432:
.LBB4433:
.LBB4434:
	.loc 13 21 0
	movl	28(%esp), %ebp
.LBE4434:
.LBE4433:
	.loc 35 83 0
	cmpl	%esi, %edx
.LBB4437:
.LBB4435:
	.loc 13 21 0
	movl	%ebp, (%edi,%ebx,4)
.LVL945:
.LBE4435:
.LBE4437:
	.loc 35 83 0
	jae	.L882
	cmpl	$2, %edx
	ja	.L882
	.loc 35 84 0
	movl	exceptionMessage(,%edx,4), %ebx
.LVL946:
	.loc 35 85 0
	addl	$2, %ecx
.LVL947:
	movl	(%eax,%ecx,4), %edx
.LVL948:
.LBB4438:
.LBB4429:
	.loc 17 62 0
	cmpl	$16, %ebx
	je	.L885
	.loc 17 69 0
	leal	-9(%ebx), %ebp
	cmpl	$1, %ebp
	ja	.L886
	.loc 17 70 0
	movl	%edx, %ebp
	andl	$-9, %ebp
	.loc 17 71 0
	cmpl	$51, %ebp
	movl	$0, %ebp
	cmovne	%ebp, %edx
.LVL949:
.L886:
.LBE4429:
.LBE4438:
	.loc 35 83 0
	cmpl	%esi, %ecx
.LBB4439:
.LBB4436:
	.loc 13 21 0
	movl	%edx, (%edi,%ebx,4)
.LVL950:
.LBE4436:
.LBE4439:
	.loc 35 83 0
	jae	.L882
	cmpl	$2, %ecx
	ja	.L882
.LVL951:
.LBB4440:
.LBB4430:
	.loc 17 67 0 discriminator 2
	movl	12(%eax), %eax
.LVL952:
	andl	$4055, %eax
.LVL953:
	orl	$514, %eax
.LVL954:
	movl	%eax, 64(%edi)
.LVL955:
.L882:
.LBE4430:
.LBE4440:
.LBE4417:
	.loc 35 90 0
	movl	24(%esp), %edx
	xorl	%eax, %eax
	testl	%edx, %edx
	sete	%al
	.loc 35 95 0
	addl	$44, %esp
	.cfi_remember_state
	.cfi_def_cfa_offset 20
	popl	%ebx
	.cfi_restore 3
	.cfi_def_cfa_offset 16
	popl	%esi
	.cfi_restore 6
	.cfi_def_cfa_offset 12
	popl	%edi
	.cfi_restore 7
	.cfi_def_cfa_offset 8
	popl	%ebp
	.cfi_restore 5
	.cfi_def_cfa_offset 4
	ret
.LVL956:
	.p2align 4,,7
	.p2align 3
.L868:
	.cfi_restore_state
.LBB4442:
	.loc 35 45 0
	movl	%ebx, 4(%esp)
.LVL957:
	movl	$0, (%esp)
	call	lookupIPCBuffer
.LVL958:
	.loc 35 48 0
	xorl	%edx, %edx
	testl	%esi, %esi
	je	.L872
.LVL959:
.LBB4443:
.LBB4444:
	.loc 13 21 0
	movl	20(%ebx), %edx
.LBE4444:
.LBE4443:
	.loc 35 48 0
	cmpl	$1, %esi
.LBB4447:
.LBB4445:
	.loc 13 21 0
	movl	%edx, (%edi)
.LVL960:
.LBE4445:
.LBE4447:
	.loc 35 48 0
	movl	$1, %edx
.LVL961:
	jbe	.L872
.LVL962:
.LBB4448:
.LBB4446:
	.loc 13 21 0 discriminator 2
	movl	24(%ebx), %edx
	movl	%edx, 4(%edi)
.LVL963:
.LBE4446:
.LBE4448:
	.loc 35 48 0 discriminator 2
	movl	$2, %edx
.LVL964:
.L872:
	.loc 35 54 0
	testl	%eax, %eax
	jne	.L874
	jmp	.L875
.LVL965:
	.p2align 4,,7
	.p2align 3
.L876:
.LBB4449:
.LBB4450:
	.loc 17 69 0
	leal	-9(%ebx), %ebp
	cmpl	$1, %ebp
	ja	.L877
	.loc 17 70 0
	movl	%ecx, %ebp
	andl	$-9, %ebp
	.loc 17 71 0
	cmpl	$51, %ebp
	movl	$0, %ebp
	cmovne	%ebp, %ecx
.LVL966:
.L877:
.LBE4450:
.LBE4449:
	.loc 35 55 0
	cmpl	$9, %edx
.LBB4452:
.LBB4453:
	.loc 13 21 0
	movl	%ecx, (%edi,%ebx,4)
.LVL967:
.LBE4453:
.LBE4452:
	.loc 35 55 0
	ja	.L875
.LVL968:
.L874:
	.loc 35 55 0 is_stmt 0 discriminator 1
	cmpl	%esi, %edx
	jae	.L875
	.loc 35 56 0 is_stmt 1 discriminator 2
	movl	syscallMessage(,%edx,4), %ebx
.LVL969:
	.loc 35 57 0 discriminator 2
	addl	$1, %edx
.LVL970:
	movl	(%eax,%edx,4), %ecx
.LVL971:
.LBB4455:
.LBB4451:
	.loc 17 62 0 discriminator 2
	cmpl	$16, %ebx
	jne	.L876
.LVL972:
	.loc 17 67 0
	andl	$4055, %ecx
.LVL973:
	orl	$514, %ecx
.LVL974:
.LBE4451:
.LBE4455:
	.loc 35 55 0
	cmpl	$9, %edx
.LBB4456:
.LBB4454:
	.loc 13 21 0
	movl	%ecx, (%edi,%ebx,4)
.LVL975:
.LBE4454:
.LBE4456:
	.loc 35 55 0
	jbe	.L874
.LVL976:
	.p2align 4,,7
	.p2align 3
.L875:
.LBB4457:
.LBB4458:
	.loc 13 21 0
	movl	56(%edi), %eax
.LVL977:
.LBE4458:
.LBE4457:
.LBE4442:
	.loc 35 65 0
	movl	24(%esp), %ecx
.LBB4461:
.LBB4460:
.LBB4459:
	.loc 13 21 0
	movl	%eax, 44(%edi)
.LBE4459:
.LBE4460:
.LBE4461:
	.loc 35 65 0
	xorl	%eax, %eax
	testl	%ecx, %ecx
	sete	%al
	.loc 35 95 0
	addl	$44, %esp
	.cfi_remember_state
	.cfi_def_cfa_offset 20
	popl	%ebx
	.cfi_restore 3
	.cfi_def_cfa_offset 16
	popl	%esi
	.cfi_restore 6
	.cfi_def_cfa_offset 12
	popl	%edi
	.cfi_restore 7
	.cfi_def_cfa_offset 8
.LVL978:
	popl	%ebp
	.cfi_restore 5
	.cfi_def_cfa_offset 4
	ret
.LVL979:
	.p2align 4,,7
	.p2align 3
.L867:
	.cfi_restore_state
	.loc 35 93 0
	movl	$__func__.4042, 12(%esp)
.LVL980:
	movl	$93, 8(%esp)
	movl	$.LC64, 4(%esp)
	movl	$.LC65, (%esp)
	call	_fail
.LVL981:
	.p2align 4,,7
	.p2align 3
.L885:
.LBB4462:
.LBB4441:
.LBB4431:
	.loc 17 67 0
	andl	$4055, %edx
.LVL982:
	orl	$514, %edx
.LVL983:
	jmp	.L886
.LVL984:
	.p2align 4,,7
	.p2align 3
.L883:
	andl	$4055, 28(%esp)
.LVL985:
	orl	$514, 28(%esp)
.LVL986:
	jmp	.L884
.LBE4431:
.LBE4441:
.LBE4462:
	.cfi_endproc
.LFE267:
	.size	handleFaultReply, .-handleFaultReply
	.p2align 4,,15
	.globl	Arch_sameRegionAs
	.type	Arch_sameRegionAs, @function
Arch_sameRegionAs:
.LFB417:
	.loc 19 321 0
	.cfi_startproc
.LVL987:
	pushl	%ebp
	.cfi_def_cfa_offset 8
	.cfi_offset 5, -8
	pushl	%edi
	.cfi_def_cfa_offset 12
	.cfi_offset 7, -12
	pushl	%esi
	.cfi_def_cfa_offset 16
	.cfi_offset 6, -16
	pushl	%ebx
	.cfi_def_cfa_offset 20
	.cfi_offset 3, -20
	subl	$12, %esp
	.cfi_def_cfa_offset 32
	.loc 19 321 0
	movl	32(%esp), %edx
	movl	36(%esp), %esi
	movl	40(%esp), %ecx
.LVL988:
	movl	44(%esp), %edi
.LBB4463:
.LBB4464:
	.loc 27 872 0
	movl	%edx, %ebp
	.loc 27 873 0
	movl	%edx, %eax
	.loc 27 872 0
	andl	$14, %ebp
	.loc 27 873 0
	andl	$15, %eax
	movzbl	%dl, %ebx
.LVL989:
	cmpl	$14, %ebp
	cmove	%ebx, %eax
.LVL990:
.LBE4464:
.LBE4463:
	.loc 19 322 0
	cmpl	$11, %eax
	ja	.L956
	jmp	*.L923(,%eax,4)
	.section	.rodata
	.align 4
	.align 4
.L923:
	.long	.L956
	.long	.L922
	.long	.L956
	.long	.L924
	.long	.L956
	.long	.L925
	.long	.L956
	.long	.L926
	.long	.L956
	.long	.L927
	.long	.L956
	.long	.L928
	.text
	.p2align 4,,7
	.p2align 3
.L928:
.LVL991:
.LBB4465:
.LBB4466:
	.loc 27 872 0
	movl	%ecx, %edx
.LVL992:
	.loc 27 873 0
	movl	%ecx, %eax
	.loc 27 872 0
	andl	$14, %edx
	.loc 27 873 0
	andl	$15, %eax
	movzbl	%cl, %ecx
.LVL993:
	cmpl	$14, %edx
	cmove	%ecx, %eax
.LVL994:
.LBE4466:
.LBE4465:
	.loc 19 362 0
	cmpl	$11, %eax
	sete	%al
	movzbl	%al, %eax
.LVL995:
.L921:
	.loc 19 384 0
	addl	$12, %esp
	.cfi_remember_state
	.cfi_def_cfa_offset 20
	popl	%ebx
	.cfi_restore 3
	.cfi_def_cfa_offset 16
.LVL996:
	popl	%esi
	.cfi_restore 6
	.cfi_def_cfa_offset 12
	popl	%edi
	.cfi_restore 7
	.cfi_def_cfa_offset 8
	popl	%ebp
	.cfi_restore 5
	.cfi_def_cfa_offset 4
	ret
.LVL997:
	.p2align 4,,7
	.p2align 3
.L922:
	.cfi_restore_state
.LBB4467:
.LBB4468:
	.loc 27 872 0
	movl	%ecx, %eax
	.loc 27 873 0
	movl	%ecx, %ebx
.LVL998:
	.loc 27 872 0
	andl	$14, %eax
	.loc 27 873 0
	andl	$15, %ebx
	movzbl	%cl, %ebp
.LVL999:
	cmpl	$14, %eax
	cmovne	%ebx, %ebp
.LVL1000:
.LBE4468:
.LBE4467:
	.loc 19 383 0
	xorl	%eax, %eax
	.loc 19 324 0
	cmpl	$1, %ebp
	jne	.L921
.LVL1001:
.LBB4469:
.LBB4470:
.LBB4471:
	.loc 27 1507 0
	movl	%edx, %eax
	andl	$15, %eax
	cmpl	$1, %eax
	jne	.L932
.LVL1002:
.LBE4471:
.LBE4470:
.LBB4475:
.LBB4476:
	cmpl	$1, %ebx
	jne	.L932
.LVL1003:
.LBE4476:
.LBE4475:
.LBB4479:
.LBB4480:
	.loc 27 1409 0
	shrl	$31, %esi
.LVL1004:
.LBE4480:
.LBE4479:
.LBB4481:
.LBB4482:
	.loc 37 41 0
	testl	%esi, %esi
	je	.L934
	cmpl	$1, %esi
	jne	.L972
	movl	$4194304, %eax
.L935:
.LVL1005:
.LBE4482:
.LBE4481:
.LBB4484:
.LBB4485:
	.loc 27 1409 0
	shrl	$31, %edi
.LVL1006:
.LBE4485:
.LBE4484:
.LBB4486:
.LBB4487:
	.loc 37 41 0
	testl	%edi, %edi
	je	.L937
	cmpl	$1, %edi
	jne	.L972
	movl	$4194304, %ebx
.L938:
.LBE4487:
.LBE4486:
.LBB4490:
.LBB4472:
	.loc 27 1510 0
	andl	$16777200, %edx
.LVL1007:
.LBE4472:
.LBE4490:
.LBB4491:
.LBB4477:
	andl	$16777200, %ecx
.LVL1008:
.LBE4477:
.LBE4491:
.LBB4492:
.LBB4473:
	sall	$8, %edx
.LBE4473:
.LBE4492:
.LBB4493:
.LBB4478:
	sall	$8, %ecx
.LBE4478:
.LBE4493:
	.loc 19 329 0
	leal	-1(%ecx,%ebx), %ebx
.LVL1009:
	.loc 19 328 0
	leal	-1(%edx,%eax), %eax
.LVL1010:
	.loc 19 330 0
	cmpl	%ebx, %eax
	jb	.L956
	cmpl	%ecx, %edx
	ja	.L956
	.loc 19 330 0 is_stmt 0 discriminator 1
	xorl	%eax, %eax
	cmpl	%ecx, %ebx
	setae	%al
	jmp	.L921
.LVL1011:
	.p2align 4,,7
	.p2align 3
.L924:
.LBE4469:
.LBB4498:
.LBB4499:
	.loc 27 872 0 is_stmt 1
	movl	%ecx, %eax
	.loc 27 873 0
	movl	%ecx, %ebx
.LVL1012:
	.loc 27 872 0
	andl	$14, %eax
	.loc 27 873 0
	andl	$15, %ebx
	movzbl	%cl, %esi
.LVL1013:
	cmpl	$14, %eax
	cmovne	%ebx, %esi
.LVL1014:
.LBE4499:
.LBE4498:
	.loc 19 383 0
	xorl	%eax, %eax
	.loc 19 335 0
	cmpl	$3, %esi
	jne	.L921
.LVL1015:
.LBB4500:
.LBB4501:
	.loc 27 1619 0
	movl	%edx, %eax
	andl	$15, %eax
	cmpl	$3, %eax
	jne	.L943
	.loc 27 1622 0
	andl	$16777200, %edx
.LVL1016:
	sall	$8, %edx
.LVL1017:
.LBE4501:
.LBE4500:
.LBB4503:
.LBB4504:
	.loc 27 1619 0
	cmpl	$3, %ebx
	je	.L971
.LVL1018:
.L943:
.LBE4504:
.LBE4503:
.LBB4505:
.LBB4502:
	call	cap_page_table_cap_get_capPTBasePtr.isra.92.part.93
.LVL1019:
	.p2align 4,,7
	.p2align 3
.L925:
.LBE4502:
.LBE4505:
.LBB4506:
.LBB4507:
	.loc 27 872 0
	movl	%ecx, %eax
	.loc 27 873 0
	movl	%ecx, %ebx
.LVL1020:
	.loc 27 872 0
	andl	$14, %eax
	.loc 27 873 0
	andl	$15, %ebx
	movzbl	%cl, %esi
.LVL1021:
	cmpl	$14, %eax
	cmovne	%ebx, %esi
.LVL1022:
.LBE4507:
.LBE4506:
	.loc 19 383 0
	xorl	%eax, %eax
	.loc 19 342 0
	cmpl	$5, %esi
	jne	.L921
.LVL1023:
.LBB4508:
.LBB4509:
	.loc 27 1708 0
	movl	%edx, %eax
	andl	$15, %eax
	cmpl	$5, %eax
	jne	.L947
	.loc 27 1711 0
	andl	$16777200, %edx
.LVL1024:
	sall	$8, %edx
.LVL1025:
.LBE4509:
.LBE4508:
.LBB4511:
.LBB4512:
	.loc 27 1708 0
	cmpl	$5, %ebx
	je	.L971
.LVL1026:
.L947:
.LBE4512:
.LBE4511:
.LBB4513:
.LBB4510:
	call	cap_page_directory_cap_get_capPDBasePtr.isra.67.part.68
.LVL1027:
	.p2align 4,,7
	.p2align 3
.L926:
.LBE4510:
.LBE4513:
.LBB4514:
.LBB4515:
	.loc 27 872 0
	movl	%ecx, %edx
.LVL1028:
	.loc 27 873 0
	movl	%ecx, %eax
	.loc 27 872 0
	andl	$14, %edx
	.loc 27 873 0
	andl	$15, %eax
	movzbl	%cl, %ecx
.LVL1029:
	cmpl	$14, %edx
	cmove	%ecx, %eax
.LVL1030:
.LBE4515:
.LBE4514:
	.loc 19 349 0
	cmpl	$7, %eax
	sete	%al
	.loc 19 384 0
	addl	$12, %esp
	.cfi_remember_state
	.cfi_def_cfa_offset 20
	popl	%ebx
	.cfi_restore 3
	.cfi_def_cfa_offset 16
.LVL1031:
	.loc 19 349 0
	movzbl	%al, %eax
	.loc 19 384 0
	popl	%esi
	.cfi_restore 6
	.cfi_def_cfa_offset 12
	popl	%edi
	.cfi_restore 7
	.cfi_def_cfa_offset 8
	popl	%ebp
	.cfi_restore 5
	.cfi_def_cfa_offset 4
	ret
.LVL1032:
	.p2align 4,,7
	.p2align 3
.L927:
	.cfi_restore_state
.LBB4516:
.LBB4517:
	.loc 27 872 0
	movl	%ecx, %eax
	.loc 27 873 0
	movl	%ecx, %ebx
.LVL1033:
	.loc 27 872 0
	andl	$14, %eax
	.loc 27 873 0
	andl	$15, %ebx
	movzbl	%cl, %esi
.LVL1034:
	cmpl	$14, %eax
	cmovne	%ebx, %esi
.LVL1035:
.LBE4517:
.LBE4516:
	.loc 19 383 0
	xorl	%eax, %eax
	.loc 19 355 0
	cmpl	$9, %esi
	jne	.L921
.LVL1036:
.LBB4518:
.LBB4519:
	.loc 27 1762 0
	movl	%edx, %eax
	andl	$15, %eax
	cmpl	$9, %eax
	jne	.L953
	.loc 27 1765 0
	andl	$16777200, %edx
.LVL1037:
	sall	$8, %edx
.LVL1038:
.LBE4519:
.LBE4518:
.LBB4521:
.LBB4522:
	.loc 27 1762 0
	cmpl	$9, %ebx
	jne	.L953
.LVL1039:
.L971:
	.loc 27 1765 0
	andl	$16777200, %ecx
.LVL1040:
.LBE4522:
.LBE4521:
	.loc 19 356 0
	xorl	%eax, %eax
.LBB4524:
.LBB4523:
	.loc 27 1765 0
	sall	$8, %ecx
.LBE4523:
.LBE4524:
	.loc 19 356 0
	cmpl	%ecx, %edx
	sete	%al
	.loc 19 384 0
	addl	$12, %esp
	.cfi_remember_state
	.cfi_def_cfa_offset 20
	popl	%ebx
	.cfi_restore 3
	.cfi_def_cfa_offset 16
	popl	%esi
	.cfi_restore 6
	.cfi_def_cfa_offset 12
	popl	%edi
	.cfi_restore 7
	.cfi_def_cfa_offset 8
	popl	%ebp
	.cfi_restore 5
	.cfi_def_cfa_offset 4
	ret
.LVL1041:
	.p2align 4,,7
	.p2align 3
.L956:
	.cfi_restore_state
	.loc 19 383 0
	xorl	%eax, %eax
	jmp	.L921
.LVL1042:
	.p2align 4,,7
	.p2align 3
.L972:
.LBB4525:
.LBB4494:
.LBB4488:
	call	pageBitsForSize.part.45
.LVL1043:
	.p2align 4,,7
	.p2align 3
.L934:
.LBE4488:
.LBE4494:
.LBB4495:
.LBB4483:
	.loc 37 41 0
	movl	$4096, %eax
	jmp	.L935
.LVL1044:
.L937:
.LBE4483:
.LBE4495:
.LBB4496:
.LBB4489:
	movl	$4096, %ebx
	jmp	.L938
.LVL1045:
.L932:
.LBE4489:
.LBE4496:
.LBB4497:
.LBB4474:
	call	cap_frame_cap_get_capFBasePtr.isra.90.part.91
.LVL1046:
.L953:
.LBE4474:
.LBE4497:
.LBE4525:
.LBB4526:
.LBB4520:
	call	cap_asid_pool_cap_get_capASIDPool.isra.99.part.100
.LVL1047:
.LBE4520:
.LBE4526:
	.cfi_endproc
.LFE417:
	.size	Arch_sameRegionAs, .-Arch_sameRegionAs
	.p2align 4,,15
	.globl	Arch_sameObjectAs
	.type	Arch_sameObjectAs, @function
Arch_sameObjectAs:
.LFB418:
	.loc 19 387 0
	.cfi_startproc
.LVL1048:
	pushl	%ebp
	.cfi_def_cfa_offset 8
	.cfi_offset 5, -8
	pushl	%edi
	.cfi_def_cfa_offset 12
	.cfi_offset 7, -12
	pushl	%esi
	.cfi_def_cfa_offset 16
	.cfi_offset 6, -16
	pushl	%ebx
	.cfi_def_cfa_offset 20
	.cfi_offset 3, -20
	subl	$28, %esp
	.cfi_def_cfa_offset 48
	.loc 19 387 0
	movl	48(%esp), %eax
	movl	52(%esp), %ebx
.LVL1049:
	movl	56(%esp), %edx
.LVL1050:
	movl	60(%esp), %esi
.LBB4539:
.LBB4540:
	.loc 27 872 0
	movl	%eax, %ebp
	.loc 27 873 0
	movl	%eax, %ecx
	.loc 27 872 0
	andl	$14, %ebp
	.loc 27 873 0
	andl	$15, %ecx
	movzbl	%al, %edi
.LVL1051:
	cmpl	$14, %ebp
	cmovne	%ecx, %edi
.LVL1052:
.LBE4540:
.LBE4539:
	.loc 19 388 0
	cmpl	$1, %edi
	je	.L985
.L976:
	.loc 19 396 0
	movl	%esi, 60(%esp)
	movl	%ebx, 52(%esp)
	movl	%edx, 56(%esp)
.LVL1053:
	movl	%eax, 48(%esp)
	.loc 19 397 0
	addl	$28, %esp
	.cfi_remember_state
	.cfi_def_cfa_offset 20
	popl	%ebx
	.cfi_restore 3
	.cfi_def_cfa_offset 16
.LVL1054:
	popl	%esi
	.cfi_restore 6
	.cfi_def_cfa_offset 12
	popl	%edi
	.cfi_restore 7
	.cfi_def_cfa_offset 8
	popl	%ebp
	.cfi_restore 5
	.cfi_def_cfa_offset 4
	.loc 19 396 0
	jmp	Arch_sameRegionAs
.LVL1055:
	.p2align 4,,7
	.p2align 3
.L985:
	.cfi_restore_state
.LBB4541:
.LBB4542:
	.loc 27 872 0
	movl	%edx, %edi
	.loc 27 873 0
	movzbl	%dl, %ebp
.LVL1056:
	.loc 27 872 0
	andl	$14, %edi
	movl	%edi, 12(%esp)
	.loc 27 873 0
	movl	%edx, %edi
.LVL1057:
	andl	$15, %edi
	cmpl	$14, 12(%esp)
	cmovne	%edi, %ebp
.LBE4542:
.LBE4541:
	.loc 19 389 0
	cmpl	$1, %ebp
	jne	.L976
.LVL1058:
.LBB4543:
.LBB4544:
	.loc 27 1507 0
	cmpl	$1, %ecx
	jne	.L980
	.loc 27 1510 0
	andl	$16777200, %eax
.LVL1059:
	movl	%eax, %ecx
	sall	$8, %ecx
.LVL1060:
.LBE4544:
.LBE4543:
.LBB4546:
.LBB4547:
	.loc 27 1507 0
	cmpl	$1, %edi
	jne	.L980
	.loc 27 1510 0
	andl	$16777200, %edx
.LVL1061:
.LBE4547:
.LBE4546:
	xorl	%eax, %eax
.LBB4549:
.LBB4548:
	sall	$8, %edx
.LBE4548:
.LBE4549:
	.loc 19 391 0
	cmpl	%edx, %ecx
	je	.L986
.L982:
	.loc 19 397 0
	addl	$28, %esp
	.cfi_remember_state
	.cfi_def_cfa_offset 20
	popl	%ebx
	.cfi_restore 3
	.cfi_def_cfa_offset 16
	popl	%esi
	.cfi_restore 6
	.cfi_def_cfa_offset 12
	popl	%edi
	.cfi_restore 7
	.cfi_def_cfa_offset 8
	popl	%ebp
	.cfi_restore 5
	.cfi_def_cfa_offset 4
	ret
.LVL1062:
	.p2align 4,,7
	.p2align 3
.L986:
	.cfi_restore_state
.LBB4550:
.LBB4551:
	.loc 27 1409 0 discriminator 1
	shrl	$31, %ebx
.LVL1063:
.LBE4551:
.LBE4550:
	.loc 19 391 0 discriminator 1
	xorl	%eax, %eax
.LBB4552:
.LBB4553:
	.loc 27 1409 0 discriminator 1
	shrl	$31, %esi
.LVL1064:
.LBE4553:
.LBE4552:
	.loc 19 391 0 discriminator 1
	cmpl	%esi, %ebx
	sete	%al
	jmp	.L982
.LVL1065:
.L980:
.LBB4554:
.LBB4545:
	call	cap_frame_cap_get_capFBasePtr.isra.90.part.91
.LVL1066:
.LBE4545:
.LBE4554:
	.cfi_endproc
.LFE418:
	.size	Arch_sameObjectAs, .-Arch_sameObjectAs
	.section	.rodata.str1.1
.LC66:
	.string	"(FSR & ~0x1f) == 0"
	.section	.text.unlikely
	.type	fault_vm_fault_new.part.122, @function
fault_vm_fault_new.part.122:
.LFB759:
	.loc 27 1984 0
	.cfi_startproc
.LVL1067:
	subl	$28, %esp
	.cfi_def_cfa_offset 32
	.loc 27 1992 0
	movl	$__FUNCTION__.1963, 12(%esp)
	movl	$1992, 8(%esp)
	movl	$.LC34, 4(%esp)
	movl	$.LC66, (%esp)
	call	_assert_fail
.LVL1068:
	.cfi_endproc
.LFE759:
	.size	fault_vm_fault_new.part.122, .-fault_vm_fault_new.part.122
	.type	cap_page_directory_cap_get_capPDMappedASID.part.123, @function
cap_page_directory_cap_get_capPDMappedASID.part.123:
.LFB760:
	.loc 27 1686 0
	.cfi_startproc
	subl	$28, %esp
	.cfi_def_cfa_offset 32
	.loc 27 1687 0
	movl	$__FUNCTION__.1842, 12(%esp)
	movl	$1688, 8(%esp)
	movl	$.LC34, 4(%esp)
	movl	$.LC40, (%esp)
	call	_assert_fail
.LVL1069:
	.cfi_endproc
.LFE760:
	.size	cap_page_directory_cap_get_capPDMappedASID.part.123, .-cap_page_directory_cap_get_capPDMappedASID.part.123
	.text
	.p2align 4,,15
	.globl	setVMRoot
	.type	setVMRoot, @function
setVMRoot:
.LFB368:
	.loc 4 1192 0
	.cfi_startproc
.LVL1070:
	pushl	%esi
	.cfi_def_cfa_offset 8
	.cfi_offset 6, -8
	pushl	%ebx
	.cfi_def_cfa_offset 12
	.cfi_offset 3, -12
	subl	$4, %esp
	.cfi_def_cfa_offset 16
	.loc 4 1192 0
	movl	16(%esp), %eax
	.loc 4 1198 0
	andl	$-1024, %eax
	movl	20(%eax), %esi
.LVL1071:
	movl	16(%eax), %eax
.LVL1072:
.LBB4591:
.LBB4592:
	.loc 27 872 0
	movl	%eax, %ebx
	.loc 27 873 0
	movl	%eax, %edx
	.loc 27 872 0
	andl	$14, %ebx
	.loc 27 873 0
	andl	$15, %edx
	movzbl	%al, %ecx
	cmpl	$14, %ebx
	cmovne	%edx, %ecx
.LBE4592:
.LBE4591:
	.loc 4 1200 0
	cmpl	$5, %ecx
	je	.L1008
.LVL1073:
.L999:
.LBB4593:
.LBB4594:
	.loc 10 41 0
	movl	ia32KSkernelPD, %eax
	addl	$536870912, %eax
.LVL1074:
.LBE4594:
.LBE4593:
.LBB4595:
.LBB4596:
	.loc 39 39 0
	movl	%eax, ia32KSCurrentPD
.LVL1075:
.LBB4597:
.LBB4598:
	.loc 2 35 0
#APP
# 35 "/home/mscapero/Desktop/sel4-benchmark/sel4test-manifest/kernel/include/arch/ia32/arch/machine/cpu_registers.h" 1
	movl %eax, %cr3
# 0 "" 2
.LVL1076:
#NO_APP
.L991:
.LBE4598:
.LBE4597:
.LBE4596:
.LBE4595:
	.loc 4 1218 0
	addl	$4, %esp
	.cfi_remember_state
	.cfi_def_cfa_offset 12
	popl	%ebx
	.cfi_restore 3
	.cfi_def_cfa_offset 8
	popl	%esi
	.cfi_restore 6
	.cfi_def_cfa_offset 4
	ret
.LVL1077:
	.p2align 4,,7
	.p2align 3
.L1008:
	.cfi_restore_state
.LBB4599:
.LBB4600:
	.loc 27 1654 0 discriminator 1
	cmpl	$5, %edx
	jne	.L1009
.LBE4600:
.LBE4599:
	.loc 4 1200 0
	testl	$65536, %esi
	je	.L999
.LVL1078:
.LBB4602:
.LBB4603:
	.loc 27 1690 0
	movzwl	%si, %edx
.LBE4603:
.LBE4602:
.LBB4604:
.LBB4605:
	.loc 27 1711 0
	andl	$16777200, %eax
.LVL1079:
.LBE4605:
.LBE4604:
.LBB4607:
.LBB4608:
	.loc 4 1168 0
	shrl	$10, %edx
	movl	ia32KSASIDTable(,%edx,4), %edx
.LBE4608:
.LBE4607:
.LBB4611:
.LBB4606:
	.loc 27 1711 0
	sall	$8, %eax
.LVL1080:
.LBE4606:
.LBE4611:
.LBB4612:
.LBB4609:
	.loc 4 1169 0
	testl	%edx, %edx
	je	.L1000
	.loc 4 1177 0
	andl	$1023, %esi
.LVL1081:
	movl	(%edx,%esi,4), %edx
.LVL1082:
	.loc 4 1178 0
	testl	%edx, %edx
	je	.L1000
.LVL1083:
.LBE4609:
.LBE4612:
	.loc 4 1209 0
	cmpl	%edx, %eax
	jne	.L999
.LVL1084:
.LBB4613:
.LBB4614:
	.loc 10 41 0
	addl	$536870912, %eax
.LVL1085:
.LBE4614:
.LBE4613:
	.loc 4 1215 0
	cmpl	%eax, ia32KSCurrentPD
	je	.L991
.LVL1086:
.LBB4615:
.LBB4616:
	.loc 39 39 0
	movl	%eax, ia32KSCurrentPD
.LVL1087:
.LBB4617:
.LBB4618:
	.loc 2 35 0
#APP
# 35 "/home/mscapero/Desktop/sel4-benchmark/sel4test-manifest/kernel/include/arch/ia32/arch/machine/cpu_registers.h" 1
	movl %eax, %cr3
# 0 "" 2
#NO_APP
	jmp	.L991
.LVL1088:
	.p2align 4,,7
	.p2align 3
.L1000:
.LBE4618:
.LBE4617:
.LBE4616:
.LBE4615:
.LBB4619:
.LBB4610:
	.loc 4 1170 0
	movl	$0, current_lookup_fault
	movl	$0, current_lookup_fault+4
.LVL1089:
	jmp	.L999
.LVL1090:
.L1009:
.LBE4610:
.LBE4619:
.LBB4620:
.LBB4601:
	call	cap_page_directory_cap_get_capPDIsMapped.part.69
.LVL1091:
.LBE4601:
.LBE4620:
	.cfi_endproc
.LFE368:
	.size	setVMRoot, .-setVMRoot
	.p2align 4,,15
	.globl	deleteASID
	.type	deleteASID, @function
deleteASID:
.LFB370:
	.loc 4 1232 0
	.cfi_startproc
.LVL1092:
	.loc 4 1232 0
	movl	4(%esp), %edx
	movl	8(%esp), %ecx
	.loc 4 1235 0
	movl	%edx, %eax
	shrl	$10, %eax
	movl	ia32KSASIDTable(,%eax,4), %eax
.LVL1093:
	.loc 4 1237 0
	testl	%eax, %eax
	je	.L1010
	.loc 4 1237 0 is_stmt 0 discriminator 1
	andl	$1023, %edx
	leal	(%eax,%edx,4), %eax
.LVL1094:
	cmpl	%ecx, (%eax)
	je	.L1015
.L1010:
	rep ret
	.p2align 4,,7
	.p2align 3
.L1015:
	.loc 4 1238 0 is_stmt 1
	movl	$0, (%eax)
	.loc 4 1239 0
	movl	ksCurThread, %eax
	movl	%eax, 4(%esp)
.LVL1095:
	jmp	setVMRoot
.LVL1096:
	.cfi_endproc
.LFE370:
	.size	deleteASID, .-deleteASID
	.section	.rodata.str1.4
	.align 4
.LC67:
	.string	"IS_ALIGNED(asid_base, asidLowBits)"
	.section	.text.unlikely
	.type	deleteASIDPool.part.124, @function
deleteASIDPool.part.124:
.LFB761:
	.loc 4 1220 0
	.cfi_startproc
.LVL1097:
	subl	$28, %esp
	.cfi_def_cfa_offset 32
	.loc 4 1223 0
	movl	$__FUNCTION__.5192, 12(%esp)
	movl	$1223, 8(%esp)
	movl	$.LC29, 4(%esp)
	movl	$.LC67, (%esp)
	call	_assert_fail
.LVL1098:
	.cfi_endproc
.LFE761:
	.size	deleteASIDPool.part.124, .-deleteASIDPool.part.124
	.text
	.p2align 4,,15
	.globl	deleteASIDPool
	.type	deleteASIDPool, @function
deleteASIDPool:
.LFB369:
	.loc 4 1221 0
	.cfi_startproc
.LVL1099:
	subl	$12, %esp
	.cfi_def_cfa_offset 16
	.loc 4 1221 0
	movl	16(%esp), %eax
	movl	20(%esp), %edx
	.loc 4 1223 0
	testl	$1023, %eax
	jne	.L1022
	.loc 4 1225 0
	shrl	$10, %eax
	cmpl	%edx, ia32KSASIDTable(,%eax,4)
	je	.L1023
	.loc 4 1229 0
	addl	$12, %esp
	.cfi_remember_state
	.cfi_def_cfa_offset 4
	ret
	.p2align 4,,7
	.p2align 3
.L1023:
	.cfi_restore_state
	.loc 4 1226 0
	movl	$0, ia32KSASIDTable(,%eax,4)
	.loc 4 1227 0
	movl	ksCurThread, %eax
	movl	%eax, 16(%esp)
.LVL1100:
	.loc 4 1229 0
	addl	$12, %esp
	.cfi_remember_state
	.cfi_def_cfa_offset 4
	.loc 4 1227 0
	jmp	setVMRoot
.LVL1101:
.L1022:
	.cfi_restore_state
	call	deleteASIDPool.part.124
.LVL1102:
	.cfi_endproc
.LFE369:
	.size	deleteASIDPool, .-deleteASIDPool
	.section	.text.unlikely
	.type	pde_pde_4k_ptr_get_present.part.125, @function
pde_pde_4k_ptr_get_present.part.125:
.LFB762:
	.loc 27 2683 0
	.cfi_startproc
.LVL1103:
	subl	$28, %esp
	.cfi_def_cfa_offset 32
	.loc 27 2684 0
	movl	$__FUNCTION__.2208, 12(%esp)
	movl	$2685, 8(%esp)
	movl	$.LC34, 4(%esp)
	movl	$.LC63, (%esp)
	call	_assert_fail
.LVL1104:
	.cfi_endproc
.LFE762:
	.size	pde_pde_4k_ptr_get_present.part.125, .-pde_pde_4k_ptr_get_present.part.125
	.text
	.p2align 4,,15
	.type	lookupPTSlot, @function
lookupPTSlot:
.LFB361:
	.loc 4 1049 0
	.cfi_startproc
.LVL1105:
	pushl	%ebx
	.cfi_def_cfa_offset 8
	.cfi_offset 3, -8
.LBB4658:
.LBB4659:
	.loc 4 1044 0
	movl	%ecx, %ebx
	shrl	$22, %ebx
.LBE4659:
.LBE4658:
	.loc 4 1049 0
	subl	$8, %esp
	.cfi_def_cfa_offset 16
.LBB4660:
.LBB4661:
	.loc 27 2559 0
	movl	(%edx,%ebx,4), %edx
.LVL1106:
.LBE4661:
.LBE4660:
	.loc 4 1055 0
	testb	$-128, %dl
	jne	.L1027
.LVL1107:
.LBB4662:
.LBB4663:
	.loc 27 2684 0
	jne	.L1032
.LBE4663:
.LBE4662:
	.loc 4 1055 0
	testb	$1, %dl
	je	.L1027
.LVL1108:
.LBB4665:
	.loc 4 1068 0
	shrl	$10, %ecx
.LVL1109:
.LBB4666:
.LBB4667:
	.loc 27 2663 0
	andl	$-4096, %edx
.LVL1110:
.LBE4667:
.LBE4666:
	.loc 4 1069 0
	andl	$4092, %ecx
.LVL1111:
	.loc 4 1073 0
	leal	-536870912(%edx,%ecx), %ecx
.LVL1112:
	xorl	%edx, %edx
.LVL1113:
	movl	%ecx, 4(%eax)
	movl	%edx, (%eax)
.LBE4665:
	.loc 4 1075 0
	addl	$8, %esp
	.cfi_remember_state
	.cfi_def_cfa_offset 8
	popl	%ebx
	.cfi_restore 3
	.cfi_def_cfa_offset 4
.LVL1114:
	ret
.LVL1115:
	.p2align 4,,7
	.p2align 3
.L1027:
	.cfi_restore_state
.LBB4668:
.LBB4669:
	.loc 4 1061 0
	xorl	%ecx, %ecx
.LVL1116:
	movl	$2, %edx
	.loc 4 1057 0
	movl	$89, current_lookup_fault
	movl	$0, current_lookup_fault+4
.LVL1117:
	movl	%ecx, 4(%eax)
	movl	%edx, (%eax)
.LBE4669:
.LBE4668:
	.loc 4 1075 0
	addl	$8, %esp
	.cfi_remember_state
	.cfi_def_cfa_offset 8
	popl	%ebx
	.cfi_restore 3
	.cfi_def_cfa_offset 4
	ret
.LVL1118:
.L1032:
	.cfi_restore_state
.LBB4670:
.LBB4664:
	call	pde_pde_4k_ptr_get_present.part.125
.LVL1119:
.LBE4664:
.LBE4670:
	.cfi_endproc
.LFE361:
	.size	lookupPTSlot, .-lookupPTSlot
	.section	.rodata.str1.4
	.align 4
.LC68:
	.string	"((pde_ptr->words[0] >> 7) & 0x1) == pde_pde_4m"
	.section	.text.unlikely
	.type	pde_pde_4m_ptr_get_present.part.127, @function
pde_pde_4m_ptr_get_present.part.127:
.LFB764:
	.loc 27 2835 0
	.cfi_startproc
.LVL1120:
	subl	$28, %esp
	.cfi_def_cfa_offset 32
	.loc 27 2836 0
	movl	$__FUNCTION__.2258, 12(%esp)
	movl	$2837, 8(%esp)
	movl	$.LC34, 4(%esp)
	movl	$.LC68, (%esp)
	call	_assert_fail
.LVL1121:
	.cfi_endproc
.LFE764:
	.size	pde_pde_4m_ptr_get_present.part.127, .-pde_pde_4m_ptr_get_present.part.127
	.type	cap_page_table_cap_get_capPTMappedASID.part.128, @function
cap_page_table_cap_get_capPTMappedASID.part.128:
.LFB765:
	.loc 27 1578 0
	.cfi_startproc
	subl	$28, %esp
	.cfi_def_cfa_offset 32
	.loc 27 1579 0
	movl	$__FUNCTION__.1799, 12(%esp)
	movl	$1580, 8(%esp)
	movl	$.LC34, 4(%esp)
	movl	$.LC52, (%esp)
	call	_assert_fail
.LVL1122:
	.cfi_endproc
.LFE765:
	.size	cap_page_table_cap_get_capPTMappedASID.part.128, .-cap_page_table_cap_get_capPTMappedASID.part.128
	.type	cap_page_table_cap_set_capPTIsMapped.part.129, @function
cap_page_table_cap_set_capPTIsMapped.part.129:
.LFB766:
	.loc 27 1553 0
	.cfi_startproc
.LVL1123:
	subl	$28, %esp
	.cfi_def_cfa_offset 32
	.loc 27 1554 0
	movl	$__FUNCTION__.1790, 12(%esp)
	movl	$1555, 8(%esp)
	movl	$.LC34, 4(%esp)
	movl	$.LC52, (%esp)
	call	_assert_fail
.LVL1124:
	.cfi_endproc
.LFE766:
	.size	cap_page_table_cap_set_capPTIsMapped.part.129, .-cap_page_table_cap_set_capPTIsMapped.part.129
	.section	.rodata.str1.1
.LC69:
	.string	"./api/types_gen.h"
.LC70:
	.string	"(msgLabel & ~0xfffff) == 0"
	.section	.text.unlikely
	.type	message_info_new.part.130, @function
message_info_new.part.130:
.LFB767:
	.loc 14 14 0
	.cfi_startproc
.LVL1125:
	subl	$28, %esp
	.cfi_def_cfa_offset 32
	.loc 14 20 0
	movl	$__FUNCTION__.972, 12(%esp)
	movl	$20, 8(%esp)
	movl	$.LC69, 4(%esp)
	movl	$.LC70, (%esp)
	call	_assert_fail
.LVL1126:
	.cfi_endproc
.LFE767:
	.size	message_info_new.part.130, .-message_info_new.part.130
	.section	.rodata.str1.4
	.align 4
.LC71:
	.string	"/home/mscapero/Desktop/sel4-benchmark/sel4test-manifest/kernel/include/api/syscall.h"
	.section	.rodata.str1.1
.LC72:
	.string	"ipc_buffer != NULL"
	.section	.text.unlikely
	.type	getSyscallArg.part.131, @function
getSyscallArg.part.131:
.LFB768:
	.file 41 "/home/mscapero/Desktop/sel4-benchmark/sel4test-manifest/kernel/include/api/syscall.h"
	.loc 41 27 0
	.cfi_startproc
.LVL1127:
	subl	$28, %esp
	.cfi_def_cfa_offset 32
	.loc 41 33 0
	movl	$__FUNCTION__.3616, 12(%esp)
	movl	$33, 8(%esp)
	movl	$.LC71, 4(%esp)
	movl	$.LC72, (%esp)
	call	_assert_fail
.LVL1128:
	.cfi_endproc
.LFE768:
	.size	getSyscallArg.part.131, .-getSyscallArg.part.131
	.type	cap_untyped_cap_get_capBlockSize.part.132, @function
cap_untyped_cap_get_capBlockSize.part.132:
.LFB769:
	.loc 27 948 0
	.cfi_startproc
	subl	$28, %esp
	.cfi_def_cfa_offset 32
	.loc 27 949 0
	movl	$__FUNCTION__.1555, 12(%esp)
	movl	$950, 8(%esp)
	movl	$.LC34, 4(%esp)
	movl	$.LC49, (%esp)
	call	_assert_fail
.LVL1129:
	.cfi_endproc
.LFE769:
	.size	cap_untyped_cap_get_capBlockSize.part.132, .-cap_untyped_cap_get_capBlockSize.part.132
	.section	.rodata.str1.1
.LC73:
	.string	"(capASIDBase & ~0xffff) == 0"
	.section	.text.unlikely
	.type	cap_asid_pool_cap_new.part.134, @function
cap_asid_pool_cap_new.part.134:
.LFB771:
	.loc 27 1730 0
	.cfi_startproc
.LVL1130:
	subl	$28, %esp
	.cfi_def_cfa_offset 32
	.loc 27 1737 0
	movl	$__FUNCTION__.1862, 12(%esp)
	movl	$1737, 8(%esp)
	movl	$.LC34, 4(%esp)
	movl	$.LC73, (%esp)
	call	_assert_fail
.LVL1131:
	.cfi_endproc
.LFE771:
	.size	cap_asid_pool_cap_new.part.134, .-cap_asid_pool_cap_new.part.134
	.type	cap_asid_pool_cap_get_capASIDBase.part.135, @function
cap_asid_pool_cap_get_capASIDBase.part.135:
.LFB772:
	.loc 27 1753 0
	.cfi_startproc
	subl	$28, %esp
	.cfi_def_cfa_offset 32
	.loc 27 1754 0
	movl	$__FUNCTION__.1866, 12(%esp)
	movl	$1755, 8(%esp)
	movl	$.LC34, 4(%esp)
	movl	$.LC54, (%esp)
	call	_assert_fail
.LVL1132:
	.cfi_endproc
.LFE772:
	.size	cap_asid_pool_cap_get_capASIDBase.part.135, .-cap_asid_pool_cap_get_capASIDBase.part.135
	.section	.rodata.str1.4
	.align 4
.LC74:
	.string	"/home/mscapero/Desktop/sel4-benchmark/sel4test-manifest/kernel/src/arch/ia32/machine/fpu.c"
	.section	.rodata.str1.1
.LC75:
	.string	"ksCurThread != ia32KSfpuOwner"
	.text
	.p2align 4,,15
	.globl	handleUnimplementedDevice
	.type	handleUnimplementedDevice, @function
handleUnimplementedDevice:
.LFB397:
	.loc 15 55 0
	.cfi_startproc
	pushl	%ebx
	.cfi_def_cfa_offset 8
	.cfi_offset 3, -8
	subl	$24, %esp
	.cfi_def_cfa_offset 32
	.loc 15 62 0
	movl	ksCurThread, %ebx
	movl	ia32KSfpuOwner, %eax
	cmpl	%eax, %ebx
	je	.L1058
.LVL1133:
.LBB4681:
.LBB4682:
.LBB4683:
.LBB4684:
	.loc 3 45 0
#APP
# 45 "/home/mscapero/Desktop/sel4-benchmark/sel4test-manifest/kernel/include/arch/ia32/arch/machine/fpu.h" 1
	clts
# 0 "" 2
#NO_APP
.LBE4684:
.LBE4683:
	.loc 15 35 0
	testl	%eax, %eax
	je	.L1051
	.loc 15 36 0
	addl	$80, %eax
	movl	%eax, (%esp)
	call	saveFpuState
.LVL1134:
.L1051:
	.loc 15 38 0
	testl	%ebx, %ebx
	je	.L1052
	.loc 15 39 0
	leal	80(%ebx), %eax
	movl	%eax, (%esp)
	call	loadFpuState
.LVL1135:
.LBE4682:
.LBE4681:
	.loc 15 68 0
	xorl	%eax, %eax
.LBB4693:
.LBB4691:
	.loc 15 43 0
	movl	%ebx, ia32KSfpuOwner
.LBE4691:
.LBE4693:
	.loc 15 68 0
	addl	$24, %esp
	.cfi_remember_state
	.cfi_def_cfa_offset 8
	popl	%ebx
	.cfi_restore 3
	.cfi_def_cfa_offset 4
.LVL1136:
	ret
.LVL1137:
	.p2align 4,,7
	.p2align 3
.L1052:
	.cfi_restore_state
.LBB4694:
.LBB4692:
.LBB4685:
.LBB4686:
.LBB4687:
.LBB4688:
	.loc 2 41 0
#APP
# 41 "/home/mscapero/Desktop/sel4-benchmark/sel4test-manifest/kernel/include/arch/ia32/arch/machine/cpu_registers.h" 1
	movl %cr0, %eax
# 0 "" 2
.LVL1138:
#NO_APP
.LBE4688:
.LBE4687:
	.loc 3 53 0
	orl	$8, %eax
.LVL1139:
.LBB4689:
.LBB4690:
	.loc 2 47 0
#APP
# 47 "/home/mscapero/Desktop/sel4-benchmark/sel4test-manifest/kernel/include/arch/ia32/arch/machine/cpu_registers.h" 1
	movl %eax, %cr0
# 0 "" 2
#NO_APP
.LBE4690:
.LBE4689:
.LBE4686:
.LBE4685:
	.loc 15 43 0
	movl	%ebx, ia32KSfpuOwner
.LBE4692:
.LBE4694:
	.loc 15 68 0
	addl	$24, %esp
	.cfi_remember_state
	.cfi_def_cfa_offset 8
	xorl	%eax, %eax
.LVL1140:
	popl	%ebx
	.cfi_restore 3
	.cfi_def_cfa_offset 4
.LVL1141:
	ret
.LVL1142:
.L1058:
	.cfi_restore_state
	.loc 15 62 0 discriminator 1
	movl	$__FUNCTION__.5499, 12(%esp)
	movl	$62, 8(%esp)
	movl	$.LC74, 4(%esp)
	movl	$.LC75, (%esp)
	call	_assert_fail
.LVL1143:
	.cfi_endproc
.LFE397:
	.size	handleUnimplementedDevice, .-handleUnimplementedDevice
	.section	.rodata.str1.4
	.align 4
.LC76:
	.string	"/home/mscapero/Desktop/sel4-benchmark/sel4test-manifest/kernel/src/arch/ia32/machine/hardware.c"
	.section	.rodata.str1.1
.LC77:
	.string	"size_bits < WORD_BITS"
	.section	.rodata.str1.4
	.align 4
.LC78:
	.string	"IS_ALIGNED((uint32_t)vaddr, size_bits)"
	.text
	.p2align 4,,15
	.globl	flushCacheRange
	.type	flushCacheRange, @function
flushCacheRange:
.LFB404:
	.loc 16 70 0
	.cfi_startproc
.LVL1144:
	pushl	%edi
	.cfi_def_cfa_offset 8
	.cfi_offset 7, -8
	pushl	%esi
	.cfi_def_cfa_offset 12
	.cfi_offset 6, -12
	pushl	%ebx
	.cfi_def_cfa_offset 16
	.cfi_offset 3, -16
	subl	$16, %esp
	.cfi_def_cfa_offset 32
	.loc 16 70 0
	movl	36(%esp), %ecx
	movl	32(%esp), %edi
	.loc 16 73 0
	cmpl	$31, %ecx
	ja	.L1067
	.loc 16 74 0
	movl	$1, %esi
	sall	%cl, %esi
	leal	-1(%esi), %eax
	testl	%eax, %edi
	jne	.L1068
	.loc 16 76 0
	call	ia32_mfence
.LVL1145:
	.loc 16 78 0
	movl	ia32KScacheLineSizeBits, %ecx
	movl	%edi, %ebx
	.loc 16 79 0
	addl	%edi, %esi
	.loc 16 80 0
	movl	$1, %edi
	.loc 16 78 0
	shrl	%cl, %ebx
	sall	%cl, %ebx
.LVL1146:
	cmpl	%esi, %ebx
	jae	.L1063
	.p2align 4,,7
	.p2align 3
.L1065:
	.loc 16 81 0
	movl	%ebx, (%esp)
	call	flushCacheLine
.LVL1147:
	.loc 16 80 0
	movl	ia32KScacheLineSizeBits, %ecx
	movl	%edi, %eax
	sall	%cl, %eax
	addl	%eax, %ebx
.LVL1148:
	.loc 16 78 0
	cmpl	%esi, %ebx
	jb	.L1065
.L1063:
	.loc 16 84 0
	addl	$16, %esp
	.cfi_remember_state
	.cfi_def_cfa_offset 16
	popl	%ebx
	.cfi_restore 3
	.cfi_def_cfa_offset 12
.LVL1149:
	popl	%esi
	.cfi_restore 6
	.cfi_def_cfa_offset 8
	popl	%edi
	.cfi_restore 7
	.cfi_def_cfa_offset 4
	.loc 16 83 0
	jmp	ia32_mfence
.LVL1150:
.L1067:
	.cfi_restore_state
	.loc 16 73 0 discriminator 1
	movl	$__FUNCTION__.5529, 12(%esp)
	movl	$73, 8(%esp)
	movl	$.LC76, 4(%esp)
	movl	$.LC77, (%esp)
	call	_assert_fail
.LVL1151:
.L1068:
	.loc 16 74 0 discriminator 1
	movl	$__FUNCTION__.5529, 12(%esp)
	movl	$74, 8(%esp)
	movl	$.LC76, 4(%esp)
	movl	$.LC78, (%esp)
	call	_assert_fail
.LVL1152:
	.cfi_endproc
.LFE404:
	.size	flushCacheRange, .-flushCacheRange
	.section	.rodata.str1.4
	.align 4
.LC79:
	.string	"((cap.words[0] >> 0) & 0xf) == cap_io_port_cap"
	.section	.text.unlikely
	.type	cap_io_port_cap_get_capIOPortFirstPort.part.136, @function
cap_io_port_cap_get_capIOPortFirstPort.part.136:
.LFB773:
	.loc 27 1792 0
	.cfi_startproc
	subl	$28, %esp
	.cfi_def_cfa_offset 32
	.loc 27 1793 0
	movl	$__FUNCTION__.1880, 12(%esp)
	movl	$1794, 8(%esp)
	movl	$.LC34, 4(%esp)
	movl	$.LC79, (%esp)
	call	_assert_fail
.LVL1153:
	.cfi_endproc
.LFE773:
	.size	cap_io_port_cap_get_capIOPortFirstPort.part.136, .-cap_io_port_cap_get_capIOPortFirstPort.part.136
	.type	cap_io_port_cap_get_capIOPortLastPort.part.137, @function
cap_io_port_cap_get_capIOPortLastPort.part.137:
.LFB774:
	.loc 27 1800 0
	.cfi_startproc
	subl	$28, %esp
	.cfi_def_cfa_offset 32
	.loc 27 1801 0
	movl	$__FUNCTION__.1884, 12(%esp)
	movl	$1802, 8(%esp)
	movl	$.LC34, 4(%esp)
	movl	$.LC79, (%esp)
	call	_assert_fail
.LVL1154:
	.cfi_endproc
.LFE774:
	.size	cap_io_port_cap_get_capIOPortLastPort.part.137, .-cap_io_port_cap_get_capIOPortLastPort.part.137
	.section	.rodata.str1.1
.LC80:
	.string	"capFirstPort <= capLastPort"
	.text
	.p2align 4,,15
	.globl	Arch_updateCapData
	.type	Arch_updateCapData, @function
Arch_updateCapData:
.LFB411:
	.loc 19 99 0
	.cfi_startproc
.LVL1155:
	pushl	%edi
	.cfi_def_cfa_offset 8
	.cfi_offset 7, -8
	pushl	%esi
	.cfi_def_cfa_offset 12
	.cfi_offset 6, -12
	pushl	%ebx
	.cfi_def_cfa_offset 16
	.cfi_offset 3, -16
	subl	$16, %esp
	.cfi_def_cfa_offset 32
	.loc 19 99 0
	movl	44(%esp), %edx
	movl	32(%esp), %eax
.LVL1156:
	movl	48(%esp), %ebx
.LVL1157:
.LBB4727:
.LBB4728:
	.loc 27 872 0
	movl	%edx, %edi
	.loc 27 873 0
	movl	%edx, %ecx
	.loc 27 872 0
	andl	$14, %edi
	.loc 27 873 0
	andl	$15, %ecx
	movzbl	%dl, %esi
.LVL1158:
	cmpl	$14, %edi
	cmovne	%ecx, %esi
.LVL1159:
.LBE4728:
.LBE4727:
	.loc 19 100 0
	cmpl	$11, %esi
	jne	.L1089
.LVL1160:
.LBB4729:
.LBB4730:
.LBB4731:
	.loc 27 15 0
	movl	40(%esp), %esi
.LBE4731:
.LBE4730:
.LBB4733:
.LBB4734:
	.loc 27 20 0
	movzwl	40(%esp), %edx
.LVL1161:
.LBE4734:
.LBE4733:
.LBB4735:
.LBB4732:
	.loc 27 15 0
	shrl	$16, %esi
.LVL1162:
.LBE4732:
.LBE4735:
.LBB4736:
.LBB4737:
	.loc 27 1793 0
	cmpl	$11, %ecx
	jne	.L1091
	.loc 27 1796 0
	movl	%ebx, %ecx
.LBE4737:
.LBE4736:
.LBB4740:
.LBB4741:
	.loc 27 1804 0
	movzwl	%bx, %ebx
.LVL1163:
.LBE4741:
.LBE4740:
.LBB4742:
.LBB4738:
	.loc 27 1796 0
	shrl	$16, %ecx
.LVL1164:
.LBE4738:
.LBE4742:
	.loc 19 123 0
	cmpw	%bx, %cx
	ja	.L1092
	.loc 19 126 0
	cmpw	%dx, %si
	ja	.L1082
	.loc 19 132 0
	cmpw	%bx, %dx
	ja	.L1082
	cmpw	%cx, %si
	.p2align 4,,2
	jb	.L1082
.LVL1165:
.LBB4743:
.LBB4744:
	.loc 27 1778 0
	sall	$16, %esi
.LVL1166:
	.loc 27 1782 0
	orl	%edx, %esi
.LVL1167:
	.loc 27 1788 0
	movl	$11, (%eax)
	.loc 27 1782 0
	movl	%esi, 4(%eax)
.LBE4744:
.LBE4743:
.LBE4729:
	.loc 19 142 0
	addl	$16, %esp
	.cfi_remember_state
	.cfi_def_cfa_offset 16
	popl	%ebx
	.cfi_restore 3
	.cfi_def_cfa_offset 12
.LVL1168:
	popl	%esi
	.cfi_restore 6
	.cfi_def_cfa_offset 8
.LVL1169:
	popl	%edi
	.cfi_restore 7
	.cfi_def_cfa_offset 4
	ret	$4
.LVL1170:
	.p2align 4,,7
	.p2align 3
.L1089:
	.cfi_restore_state
	.loc 19 140 0
	movl	%edx, (%eax)
	movl	%ebx, 4(%eax)
	.loc 19 142 0
	addl	$16, %esp
	.cfi_remember_state
	.cfi_def_cfa_offset 16
	popl	%ebx
	.cfi_restore 3
	.cfi_def_cfa_offset 12
.LVL1171:
	popl	%esi
	.cfi_restore 6
	.cfi_def_cfa_offset 8
	popl	%edi
	.cfi_restore 7
	.cfi_def_cfa_offset 4
	ret	$4
.LVL1172:
	.p2align 4,,7
	.p2align 3
.L1082:
	.cfi_restore_state
.LBB4748:
.LBB4745:
.LBB4746:
	.loc 27 896 0
	movl	$0, (%eax)
	movl	$0, 4(%eax)
.LBE4746:
.LBE4745:
.LBE4748:
	.loc 19 142 0
	addl	$16, %esp
	.cfi_remember_state
	.cfi_def_cfa_offset 16
	popl	%ebx
	.cfi_restore 3
	.cfi_def_cfa_offset 12
.LVL1173:
	popl	%esi
	.cfi_restore 6
	.cfi_def_cfa_offset 8
.LVL1174:
	popl	%edi
	.cfi_restore 7
	.cfi_def_cfa_offset 4
	ret	$4
.LVL1175:
.L1091:
	.cfi_restore_state
.LBB4749:
.LBB4747:
.LBB4739:
	call	cap_io_port_cap_get_capIOPortFirstPort.part.136
.LVL1176:
.L1092:
.LBE4739:
.LBE4747:
	.loc 19 123 0 discriminator 1
	movl	$__FUNCTION__.5622, 12(%esp)
	movl	$123, 8(%esp)
	movl	$.LC31, 4(%esp)
	movl	$.LC80, (%esp)
	call	_assert_fail
.LVL1177:
.LBE4749:
	.cfi_endproc
.LFE411:
	.size	Arch_updateCapData, .-Arch_updateCapData
	.p2align 4,,15
	.globl	Arch_maskCapRights
	.type	Arch_maskCapRights, @function
Arch_maskCapRights:
.LFB412:
	.loc 19 145 0
	.cfi_startproc
.LVL1178:
	pushl	%edi
	.cfi_def_cfa_offset 8
	.cfi_offset 7, -8
	pushl	%esi
	.cfi_def_cfa_offset 12
	.cfi_offset 6, -12
	pushl	%ebx
	.cfi_def_cfa_offset 16
	.cfi_offset 3, -16
.LVL1179:
	.loc 19 145 0
	movl	24(%esp), %edx
	movl	16(%esp), %eax
.LVL1180:
	movl	28(%esp), %edi
.LVL1181:
.LBB4778:
.LBB4779:
	.loc 27 872 0
	movl	%edx, %esi
	.loc 27 873 0
	movl	%edx, %ecx
	.loc 27 872 0
	andl	$14, %esi
	.loc 27 873 0
	andl	$15, %ecx
	movzbl	%dl, %ebx
.LVL1182:
	cmpl	$14, %esi
	cmovne	%ecx, %ebx
.LVL1183:
.LBE4779:
.LBE4778:
	.loc 19 146 0
	cmpl	$1, %ebx
	je	.L1109
.LBB4780:
.LBB4781:
.LBB4782:
	.loc 27 1502 0
	movl	%edx, (%eax)
	movl	%edi, 4(%eax)
.LBE4782:
.LBE4781:
.LBE4780:
	.loc 19 155 0
	popl	%ebx
	.cfi_remember_state
	.cfi_restore 3
	.cfi_def_cfa_offset 12
	popl	%esi
	.cfi_restore 6
	.cfi_def_cfa_offset 8
	popl	%edi
	.cfi_restore 7
	.cfi_def_cfa_offset 4
	ret	$4
.LVL1184:
	.p2align 4,,7
	.p2align 3
.L1109:
	.cfi_restore_state
.LBB4797:
.LBB4784:
.LBB4785:
	.loc 27 1487 0
	cmpl	$1, %ecx
	jne	.L1110
.LVL1185:
	.loc 27 1490 0
	movl	%edx, %ecx
	andl	$50331648, %ecx
	shrl	$24, %ecx
.LVL1186:
.LBE4785:
.LBE4784:
.LBB4787:
.LBB4788:
	.loc 4 1128 0
	cmpl	$2, %ecx
	je	.L1111
	.loc 4 1131 0
	cmpl	$3, %ecx
	movl	$16777216, %ebx
	je	.L1112
.LVL1187:
.L1099:
.LBE4788:
.LBE4787:
.LBB4794:
.LBB4783:
	.loc 27 1500 0
	andl	$-50331649, %edx
.LVL1188:
	.loc 27 1501 0
	orl	%ebx, %edx
.LVL1189:
	.loc 27 1502 0
	movl	%edx, (%eax)
	movl	%edi, 4(%eax)
.LBE4783:
.LBE4794:
.LBE4797:
	.loc 19 155 0
	popl	%ebx
	.cfi_remember_state
	.cfi_restore 3
	.cfi_def_cfa_offset 12
	popl	%esi
	.cfi_restore 6
	.cfi_def_cfa_offset 8
	popl	%edi
	.cfi_restore 7
	.cfi_def_cfa_offset 4
.LVL1190:
	ret	$4
.LVL1191:
	.p2align 4,,7
	.p2align 3
.L1112:
	.cfi_restore_state
.LBB4798:
.LBB4795:
.LBB4793:
	.loc 4 1131 0
	testb	$2, 20(%esp)
	je	.L1099
.LVL1192:
.LBB4789:
.LBB4790:
	.loc 14 125 0
	movl	20(%esp), %ecx
.LVL1193:
	andl	$1, %ecx
.LBE4790:
.LBE4789:
	.loc 4 1132 0
	cmpl	$1, %ecx
	sbbl	%ebx, %ebx
	andl	$-16777216, %ebx
	addl	$50331648, %ebx
	jmp	.L1099
.LVL1194:
	.p2align 4,,7
	.p2align 3
.L1111:
.LBB4791:
.LBB4792:
	.loc 14 120 0
	movl	20(%esp), %ecx
.LVL1195:
	andl	$2, %ecx
	shrl	%ecx
.LBE4792:
.LBE4791:
	.loc 4 1128 0
	cmpl	$1, %ecx
	sbbl	%ebx, %ebx
	andl	$-16777216, %ebx
	addl	$33554432, %ebx
	jmp	.L1099
.LVL1196:
.L1110:
.LBE4793:
.LBE4795:
.LBB4796:
.LBB4786:
	call	cap_frame_cap_get_capFVMRights.isra.119.part.120
.LVL1197:
.LBE4786:
.LBE4796:
.LBE4798:
	.cfi_endproc
.LFE412:
	.size	Arch_maskCapRights, .-Arch_maskCapRights
	.section	.rodata.str1.4
	.align 4
.LC81:
	.string	"((fault.words[0] >> 0) & 0x7) == fault_cap_fault"
	.section	.text.unlikely
	.type	fault_cap_fault_get_address.part.138, @function
fault_cap_fault_get_address.part.138:
.LFB775:
	.loc 27 1968 0
	.cfi_startproc
	subl	$28, %esp
	.cfi_def_cfa_offset 32
	.loc 27 1969 0
	movl	$__FUNCTION__.1952, 12(%esp)
	movl	$1970, 8(%esp)
	movl	$.LC34, 4(%esp)
	movl	$.LC81, (%esp)
	call	_assert_fail
.LVL1198:
	.cfi_endproc
.LFE775:
	.size	fault_cap_fault_get_address.part.138, .-fault_cap_fault_get_address.part.138
	.type	fault_cap_fault_get_inReceivePhase.isra.139.part.140, @function
fault_cap_fault_get_inReceivePhase.isra.139.part.140:
.LFB777:
	.loc 27 1976 0
	.cfi_startproc
	subl	$28, %esp
	.cfi_def_cfa_offset 32
	.loc 27 1977 0
	movl	$__FUNCTION__.1956, 12(%esp)
	movl	$1978, 8(%esp)
	movl	$.LC34, 4(%esp)
	movl	$.LC81, (%esp)
	call	_assert_fail
.LVL1199:
	.cfi_endproc
.LFE777:
	.size	fault_cap_fault_get_inReceivePhase.isra.139.part.140, .-fault_cap_fault_get_inReceivePhase.isra.139.part.140
	.section	.rodata.str1.4
	.align 4
.LC82:
	.string	"((lookup_fault.words[0] >> 0) & 0x3) == lookup_fault_guard_mismatch"
	.section	.text.unlikely
	.type	setMRs_lookup_failure.part.146, @function
setMRs_lookup_failure.part.146:
.LFB783:
	.loc 20 20 0
	.cfi_startproc
.LVL1200:
	subl	$28, %esp
	.cfi_def_cfa_offset 32
.LBB4799:
.LBB4800:
	.loc 27 2468 0
	movl	$__FUNCTION__.2125, 12(%esp)
	movl	$2469, 8(%esp)
	movl	$.LC34, 4(%esp)
	movl	$.LC82, (%esp)
	call	_assert_fail
.LVL1201:
.LBE4800:
.LBE4799:
	.cfi_endproc
.LFE783:
	.size	setMRs_lookup_failure.part.146, .-setMRs_lookup_failure.part.146
	.section	.rodata.str1.4
	.align 4
.LC83:
	.string	"((fault.words[0] >> 0) & 0x7) == fault_vm_fault"
	.section	.text.unlikely
	.type	fault_vm_fault_get_address.part.147, @function
fault_vm_fault_get_address.part.147:
.LFB784:
	.loc 27 2008 0
	.cfi_startproc
	subl	$28, %esp
	.cfi_def_cfa_offset 32
	.loc 27 2009 0
	movl	$__FUNCTION__.1967, 12(%esp)
	movl	$2010, 8(%esp)
	movl	$.LC34, 4(%esp)
	movl	$.LC83, (%esp)
	call	_assert_fail
.LVL1202:
	.cfi_endproc
.LFE784:
	.size	fault_vm_fault_get_address.part.147, .-fault_vm_fault_get_address.part.147
	.type	fault_vm_fault_get_instructionFault.isra.148.part.149, @function
fault_vm_fault_get_instructionFault.isra.148.part.149:
.LFB786:
	.loc 27 2024 0
	.cfi_startproc
	subl	$28, %esp
	.cfi_def_cfa_offset 32
	.loc 27 2025 0
	movl	$__FUNCTION__.1975, 12(%esp)
	movl	$2026, 8(%esp)
	movl	$.LC34, 4(%esp)
	movl	$.LC83, (%esp)
	call	_assert_fail
.LVL1203:
	.cfi_endproc
.LFE786:
	.size	fault_vm_fault_get_instructionFault.isra.148.part.149, .-fault_vm_fault_get_instructionFault.isra.148.part.149
	.type	fault_vm_fault_get_FSR.isra.150.part.151, @function
fault_vm_fault_get_FSR.isra.150.part.151:
.LFB788:
	.loc 27 2016 0
	.cfi_startproc
	subl	$28, %esp
	.cfi_def_cfa_offset 32
	.loc 27 2017 0
	movl	$__FUNCTION__.1971, 12(%esp)
	movl	$2018, 8(%esp)
	movl	$.LC34, 4(%esp)
	movl	$.LC83, (%esp)
	call	_assert_fail
.LVL1204:
	.cfi_endproc
.LFE788:
	.size	fault_vm_fault_get_FSR.isra.150.part.151, .-fault_vm_fault_get_FSR.isra.150.part.151
	.section	.rodata.str1.4
	.align 4
.LC84:
	.string	"((fault.words[0] >> 0) & 0x7) == fault_unknown_syscall"
	.section	.text.unlikely
	.type	fault_unknown_syscall_get_syscallNumber.part.152, @function
fault_unknown_syscall_get_syscallNumber.part.152:
.LFB789:
	.loc 27 2048 0
	.cfi_startproc
	subl	$28, %esp
	.cfi_def_cfa_offset 32
	.loc 27 2049 0
	movl	$__FUNCTION__.1984, 12(%esp)
	movl	$2050, 8(%esp)
	movl	$.LC34, 4(%esp)
	movl	$.LC84, (%esp)
	call	_assert_fail
.LVL1205:
	.cfi_endproc
.LFE789:
	.size	fault_unknown_syscall_get_syscallNumber.part.152, .-fault_unknown_syscall_get_syscallNumber.part.152
	.section	.rodata.str1.4
	.align 4
.LC85:
	.string	"((fault.words[0] >> 0) & 0x7) == fault_user_exception"
	.section	.text.unlikely
	.type	fault_user_exception_get_number.part.153, @function
fault_user_exception_get_number.part.153:
.LFB790:
	.loc 27 2076 0
	.cfi_startproc
	subl	$28, %esp
	.cfi_def_cfa_offset 32
	.loc 27 2077 0
	movl	$__FUNCTION__.1994, 12(%esp)
	movl	$2078, 8(%esp)
	movl	$.LC34, 4(%esp)
	movl	$.LC85, (%esp)
	call	_assert_fail
.LVL1206:
	.cfi_endproc
.LFE790:
	.size	fault_user_exception_get_number.part.153, .-fault_user_exception_get_number.part.153
	.type	fault_user_exception_get_code.isra.154.part.155, @function
fault_user_exception_get_code.isra.154.part.155:
.LFB792:
	.loc 27 2084 0
	.cfi_startproc
	subl	$28, %esp
	.cfi_def_cfa_offset 32
	.loc 27 2085 0
	movl	$__FUNCTION__.1998, 12(%esp)
	movl	$2086, 8(%esp)
	movl	$.LC34, 4(%esp)
	movl	$.LC85, (%esp)
	call	_assert_fail
.LVL1207:
	.cfi_endproc
.LFE792:
	.size	fault_user_exception_get_code.isra.154.part.155, .-fault_user_exception_get_code.isra.154.part.155
	.section	.rodata.str1.4
	.align 4
.LC86:
	.string	"/home/mscapero/Desktop/sel4-benchmark/sel4test-manifest/kernel/src/arch/ia32/object/tcb.c"
	.text
	.p2align 4,,15
	.globl	setMRs_fault
	.type	setMRs_fault, @function
setMRs_fault:
.LFB424:
	.loc 20 69 0
	.cfi_startproc
.LVL1208:
	pushl	%esi
	.cfi_def_cfa_offset 8
	.cfi_offset 6, -8
	pushl	%ebx
	.cfi_def_cfa_offset 12
	.cfi_offset 3, -12
	subl	$20, %esp
	.cfi_def_cfa_offset 32
	.loc 20 69 0
	movl	32(%esp), %eax
	movl	36(%esp), %ebx
	movl	40(%esp), %ecx
.LBB4865:
.LBB4866:
	.loc 27 1928 0
	movl	604(%eax), %edx
	andl	$7, %edx
.LBE4866:
.LBE4865:
	.loc 20 72 0
	cmpl	$2, %edx
	je	.L1133
	jbe	.L1164
	cmpl	$3, %edx
	je	.L1136
	cmpl	$4, %edx
	.p2align 4,,5
	jne	.L1132
.LVL1209:
.LBB4867:
.LBB4868:
.LBB4869:
	.loc 13 21 0 discriminator 1
	movl	44(%eax), %edx
.LBE4869:
.LBE4868:
	.loc 20 124 0 discriminator 1
	testl	%ecx, %ecx
.LBB4871:
.LBB4870:
	.loc 13 21 0 discriminator 1
	movl	%edx, 20(%ebx)
.LVL1210:
	movl	68(%eax), %edx
	movl	%edx, 24(%ebx)
.LVL1211:
.LBE4870:
.LBE4871:
	.loc 20 124 0 discriminator 1
	je	.L1139
.LVL1212:
.LBB4872:
.LBB4873:
	.loc 13 27 0
	movl	64(%eax), %edx
.LVL1213:
.LBE4873:
.LBE4872:
	.loc 20 126 0
	movl	%edx, 12(%ecx)
.LVL1214:
.LBB4874:
.LBB4875:
	.loc 27 2077 0
	movl	604(%eax), %edx
	movl	608(%eax), %ebx
.LVL1215:
	andl	$7, %edx
	cmpl	$4, %edx
	jne	.L1165
.LBE4875:
.LBE4874:
	.loc 20 129 0
	movl	%ebx, 16(%ecx)
.LVL1216:
	.loc 20 132 0
	movl	604(%eax), %eax
.LVL1217:
.LBB4877:
.LBB4878:
	.loc 27 2085 0
	movl	%eax, %edx
	andl	$7, %edx
	cmpl	$4, %edx
	jne	.L1166
	.loc 27 2088 0
	shrl	$3, %eax
.LVL1218:
	movl	%eax, 20(%ecx)
.LVL1219:
.LBE4878:
.LBE4877:
.LBE4867:
	.loc 20 142 0
	addl	$20, %esp
	.cfi_remember_state
	.cfi_def_cfa_offset 12
.LBB4882:
	.loc 20 133 0
	movl	$5, %eax
.LBE4882:
	.loc 20 142 0
	popl	%ebx
	.cfi_restore 3
	.cfi_def_cfa_offset 8
.LVL1220:
	popl	%esi
	.cfi_restore 6
	.cfi_def_cfa_offset 4
	ret
.LVL1221:
	.p2align 4,,7
	.p2align 3
.L1136:
	.cfi_restore_state
.LBB4883:
.LBB4884:
.LBB4885:
	.loc 13 21 0 discriminator 1
	movl	(%eax), %edx
.LBE4885:
.LBE4884:
	.loc 20 103 0 discriminator 1
	testl	%ecx, %ecx
.LBB4887:
.LBB4886:
	.loc 13 21 0 discriminator 1
	movl	%edx, 20(%ebx)
.LVL1222:
	movl	4(%eax), %edx
	movl	%edx, 24(%ebx)
.LVL1223:
.LBE4886:
.LBE4887:
	.loc 20 103 0 discriminator 1
	je	.L1139
.LVL1224:
.LBB4888:
.LBB4889:
	.loc 13 27 0
	movl	8(%eax), %edx
.LVL1225:
.LBE4889:
.LBE4888:
	.loc 20 105 0
	movl	%edx, 12(%ecx)
.LVL1226:
.LBB4897:
.LBB4890:
	.loc 13 27 0
	movl	12(%eax), %edx
.LBE4890:
.LBE4897:
	.loc 20 105 0
	movl	%edx, 16(%ecx)
.LVL1227:
.LBB4898:
.LBB4891:
	.loc 13 27 0
	movl	16(%eax), %edx
.LBE4891:
.LBE4898:
	.loc 20 105 0
	movl	%edx, 20(%ecx)
.LVL1228:
.LBB4899:
.LBB4892:
	.loc 13 27 0
	movl	20(%eax), %edx
.LBE4892:
.LBE4899:
	.loc 20 105 0
	movl	%edx, 24(%ecx)
.LVL1229:
.LBB4900:
.LBB4893:
	.loc 13 27 0
	movl	24(%eax), %edx
.LBE4893:
.LBE4900:
	.loc 20 105 0
	movl	%edx, 28(%ecx)
.LVL1230:
.LBB4901:
.LBB4894:
	.loc 13 27 0
	movl	56(%eax), %edx
.LBE4894:
.LBE4901:
	.loc 20 105 0
	movl	%edx, 32(%ecx)
.LVL1231:
.LBB4902:
.LBB4895:
	.loc 13 27 0
	movl	68(%eax), %edx
.LBE4895:
.LBE4902:
	.loc 20 105 0
	movl	%edx, 36(%ecx)
.LVL1232:
.LBB4903:
.LBB4896:
	.loc 13 27 0
	movl	64(%eax), %edx
.LBE4896:
.LBE4903:
	.loc 20 105 0
	movl	%edx, 40(%ecx)
.LVL1233:
	movl	608(%eax), %edx
.LVL1234:
.LBB4904:
.LBB4905:
	.loc 27 2049 0
	movl	604(%eax), %eax
.LVL1235:
	andl	$7, %eax
.LVL1236:
	cmpl	$3, %eax
	jne	.L1167
.LBE4905:
.LBE4904:
	.loc 20 109 0
	movl	%edx, 44(%ecx)
.LVL1237:
.LBE4883:
	.loc 20 142 0
	addl	$20, %esp
	.cfi_remember_state
	.cfi_def_cfa_offset 12
.LBB4908:
	.loc 20 111 0
	movl	$11, %eax
.LBE4908:
	.loc 20 142 0
	popl	%ebx
	.cfi_restore 3
	.cfi_def_cfa_offset 8
.LVL1238:
	popl	%esi
	.cfi_restore 6
	.cfi_def_cfa_offset 4
	ret
.LVL1239:
	.p2align 4,,7
	.p2align 3
.L1139:
	.cfi_restore_state
.LBB4909:
	.loc 20 135 0
	movl	$2, %eax
.L1147:
.LBE4909:
	.loc 20 142 0
	addl	$20, %esp
	.cfi_remember_state
	.cfi_def_cfa_offset 12
	popl	%ebx
	.cfi_restore 3
	.cfi_def_cfa_offset 8
	popl	%esi
	.cfi_restore 6
	.cfi_def_cfa_offset 4
	ret
	.p2align 4,,7
	.p2align 3
.L1164:
	.cfi_restore_state
	.loc 20 72 0
	cmpl	$1, %edx
	jne	.L1132
.LVL1240:
.LBB4910:
.LBB4911:
	.loc 13 21 0
	movl	44(%eax), %edx
	movl	%edx, 20(%ebx)
.LVL1241:
.LBE4911:
.LBE4910:
.LBB4912:
.LBB4913:
	.loc 27 1969 0
	movl	604(%eax), %edx
.LVL1242:
	movl	608(%eax), %esi
.LVL1243:
	andl	$7, %edx
	cmpl	$1, %edx
	jne	.L1168
.LVL1244:
.LBE4913:
.LBE4912:
	.loc 20 77 0
	testl	%ecx, %ecx
.LBB4915:
.LBB4916:
	.loc 13 21 0
	movl	%esi, 24(%ebx)
.LVL1245:
.LBE4916:
.LBE4915:
	.loc 20 77 0
	je	.L1139
	.loc 20 81 0
	movl	604(%eax), %edx
.LVL1246:
.LBB4917:
.LBB4918:
	.loc 27 1977 0
	movl	%edx, %ebx
.LVL1247:
	andl	$7, %ebx
	cmpl	$1, %ebx
	jne	.L1169
	.loc 27 1980 0
	shrl	$31, %edx
.LVL1248:
	movl	%edx, 12(%ecx)
.LVL1249:
	movl	612(%eax), %edx
.LVL1250:
	movl	616(%eax), %esi
.LVL1251:
.LBE4918:
.LBE4917:
.LBB4920:
.LBB4921:
.LBB4922:
.LBB4923:
	.loc 27 2358 0
	movl	%edx, %eax
.LVL1252:
	andl	$3, %eax
.LBE4923:
.LBE4922:
	.loc 20 35 0
	leal	1(%eax), %ebx
	.loc 20 38 0
	cmpl	$2, %eax
	.loc 20 35 0
	movl	%ebx, 16(%ecx)
	.loc 20 38 0
	je	.L1144
	cmpl	$3, %eax
	je	.L1145
	cmpl	$1, %eax
	jne	.L1163
.LVL1253:
.LBB4924:
.LBB4925:
	.loc 27 2400 0
	andl	$252, %edx
.LVL1254:
.LBE4925:
.LBE4924:
	.loc 20 45 0
	movb	$5, %al
.LBB4927:
.LBB4926:
	.loc 27 2400 0
	shrl	$2, %edx
	movl	%edx, 20(%ecx)
	jmp	.L1147
.LVL1255:
	.p2align 4,,7
	.p2align 3
.L1132:
.LBE4926:
.LBE4927:
.LBE4921:
.LBE4920:
	.loc 20 140 0
	movl	$__func__.5765, 12(%esp)
	movl	$140, 8(%esp)
	movl	$.LC86, 4(%esp)
	movl	$.LC65, (%esp)
	call	_fail
.LVL1256:
	.p2align 4,,7
	.p2align 3
.L1133:
.LBB4953:
.LBB4954:
	.loc 13 21 0
	movl	44(%eax), %edx
	movl	%edx, 20(%ebx)
.LVL1257:
.LBE4954:
.LBE4953:
.LBB4955:
.LBB4956:
	.loc 27 2009 0
	movl	604(%eax), %edx
.LVL1258:
	movl	608(%eax), %esi
.LVL1259:
	andl	$7, %edx
	cmpl	$2, %edx
	jne	.L1170
.LVL1260:
.LBE4956:
.LBE4955:
	.loc 20 88 0
	testl	%ecx, %ecx
.LBB4958:
.LBB4959:
	.loc 13 21 0
	movl	%esi, 24(%ebx)
.LVL1261:
.LBE4959:
.LBE4958:
	.loc 20 88 0
	je	.L1139
	.loc 20 92 0
	movl	604(%eax), %edx
.LVL1262:
.LBB4960:
.LBB4961:
	.loc 27 2025 0
	movl	%edx, %ebx
.LVL1263:
	andl	$7, %ebx
	cmpl	$2, %ebx
	jne	.L1171
	.loc 27 2028 0
	andl	$524288, %edx
.LVL1264:
	shrl	$19, %edx
	movl	%edx, 12(%ecx)
.LVL1265:
.LBE4961:
.LBE4960:
	.loc 20 93 0
	movl	604(%eax), %eax
.LVL1266:
.LBB4963:
.LBB4964:
	.loc 27 2017 0
	movl	%eax, %edx
	andl	$7, %edx
	cmpl	$2, %edx
	jne	.L1172
	.loc 27 2020 0
	shrl	$27, %eax
.LVL1267:
	movl	%eax, 16(%ecx)
.LVL1268:
.L1163:
.LBE4964:
.LBE4963:
	.loc 20 142 0
	addl	$20, %esp
	.cfi_remember_state
	.cfi_def_cfa_offset 12
	.loc 20 94 0
	movl	$4, %eax
	.loc 20 142 0
	popl	%ebx
	.cfi_restore 3
	.cfi_def_cfa_offset 8
	popl	%esi
	.cfi_restore 6
	.cfi_def_cfa_offset 4
	ret
.LVL1269:
.L1168:
	.cfi_restore_state
.LBB4966:
.LBB4914:
	call	fault_cap_fault_get_address.part.138
.LVL1270:
.L1170:
.LBE4914:
.LBE4966:
.LBB4967:
.LBB4957:
	call	fault_vm_fault_get_address.part.147
.LVL1271:
	.p2align 4,,7
	.p2align 3
.L1145:
.LBE4957:
.LBE4967:
.LBB4968:
.LBB4952:
.LBB4928:
.LBB4929:
	.loc 27 2479 0
	movl	%edx, %eax
.LBE4929:
.LBE4928:
.LBB4932:
.LBB4933:
	.loc 27 2487 0
	andl	$252, %edx
.LVL1272:
.LBE4933:
.LBE4932:
.LBB4936:
.LBB4930:
	.loc 27 2479 0
	andl	$16128, %eax
.LVL1273:
	shrl	$8, %eax
.LBE4930:
.LBE4936:
.LBB4937:
.LBB4934:
	.loc 27 2487 0
	shrl	$2, %edx
.LBE4934:
.LBE4937:
.LBB4938:
.LBB4931:
	.loc 27 2479 0
	movl	%eax, 20(%ecx)
.LVL1274:
.LBE4931:
.LBE4938:
	.loc 20 61 0
	movl	$7, %eax
	.loc 20 57 0
	movl	%esi, 24(%ecx)
.LBB4939:
.LBB4935:
	.loc 27 2487 0
	movl	%edx, 28(%ecx)
	jmp	.L1147
.LVL1275:
	.p2align 4,,7
	.p2align 3
.L1144:
.LBE4935:
.LBE4939:
.LBB4940:
.LBB4941:
	.loc 27 2439 0
	movl	%edx, %eax
.LBE4941:
.LBE4940:
.LBB4944:
.LBB4945:
	.loc 27 2431 0
	andl	$16128, %edx
.LVL1276:
.LBE4945:
.LBE4944:
.LBB4948:
.LBB4942:
	.loc 27 2439 0
	andl	$252, %eax
.LVL1277:
	shrl	$2, %eax
.LBE4942:
.LBE4948:
.LBB4949:
.LBB4946:
	.loc 27 2431 0
	shrl	$8, %edx
.LBE4946:
.LBE4949:
.LBB4950:
.LBB4943:
	.loc 27 2439 0
	movl	%eax, 20(%ecx)
.LBE4943:
.LBE4950:
	.loc 20 52 0
	movl	$6, %eax
.LBB4951:
.LBB4947:
	.loc 27 2431 0
	movl	%edx, 24(%ecx)
	jmp	.L1147
.LVL1278:
.L1169:
.LBE4947:
.LBE4951:
.LBE4952:
.LBE4968:
.LBB4969:
.LBB4919:
	call	fault_cap_fault_get_inReceivePhase.isra.139.part.140
.LVL1279:
.L1172:
.LBE4919:
.LBE4969:
.LBB4970:
.LBB4965:
	call	fault_vm_fault_get_FSR.isra.150.part.151
.LVL1280:
.L1171:
.LBE4965:
.LBE4970:
.LBB4971:
.LBB4962:
	.p2align 4,,5
	call	fault_vm_fault_get_instructionFault.isra.148.part.149
.LVL1281:
.L1166:
.LBE4962:
.LBE4971:
.LBB4972:
.LBB4880:
.LBB4879:
	.p2align 4,,5
	call	fault_user_exception_get_code.isra.154.part.155
.LVL1282:
.L1165:
.LBE4879:
.LBE4880:
.LBB4881:
.LBB4876:
	.p2align 4,,5
	call	fault_user_exception_get_number.part.153
.LVL1283:
.L1167:
.LBE4876:
.LBE4881:
.LBE4972:
.LBB4973:
.LBB4907:
.LBB4906:
	.p2align 4,,5
	call	fault_unknown_syscall_get_syscallNumber.part.152
.LVL1284:
.LBE4906:
.LBE4907:
.LBE4973:
	.cfi_endproc
.LFE424:
	.size	setMRs_fault, .-setMRs_fault
	.section	.rodata.str1.4
	.align 4
.LC87:
	.string	"/home/mscapero/Desktop/sel4-benchmark/sel4test-manifest/kernel/src/kernel/boot.c"
	.section	.rodata.str1.1
.LC88:
	.string	"reg.start <= reg.end"
	.section	.boot.text
	.type	insert_region.part.156, @function
insert_region.part.156:
.LFB793:
	.loc 21 28 0
	.cfi_startproc
	subl	$28, %esp
	.cfi_def_cfa_offset 32
	.loc 21 32 0
	movl	$__FUNCTION__.5811, 12(%esp)
	movl	$32, 8(%esp)
	movl	$.LC87, 4(%esp)
	movl	$.LC88, (%esp)
	call	_assert_fail
.LVL1285:
	.cfi_endproc
.LFE793:
	.size	insert_region.part.156, .-insert_region.part.156
	.p2align 4,,15
	.globl	insert_region
	.type	insert_region, @function
insert_region:
.LFB430:
	.loc 21 29 0
	.cfi_startproc
.LVL1286:
	pushl	%ebx
	.cfi_def_cfa_offset 8
	.cfi_offset 3, -8
	subl	$8, %esp
	.cfi_def_cfa_offset 16
	.loc 21 29 0
	movl	16(%esp), %ecx
.LVL1287:
	movl	20(%esp), %edx
.LVL1288:
	.loc 21 32 0
	cmpl	%ecx, %edx
	jb	.L1183
.LVL1289:
	.loc 21 33 0
	je	.L1179
.LVL1290:
	.loc 21 37 0 discriminator 1
	movl	ndks_boot, %eax
	cmpl	%eax, ndks_boot+4
	je	.L1180
.LVL1291:
	.loc 21 37 0 is_stmt 0
	movl	ndks_boot+8, %ebx
	.loc 21 42 0 is_stmt 1
	xorl	%eax, %eax
	.loc 21 37 0
	cmpl	%ebx, ndks_boot+12
	je	.L1184
.LVL1292:
.L1177:
	.loc 21 43 0
	addl	$8, %esp
	.cfi_remember_state
	.cfi_def_cfa_offset 8
	popl	%ebx
	.cfi_restore 3
	.cfi_def_cfa_offset 4
	ret
	.p2align 4,,7
	.p2align 3
.L1179:
	.cfi_restore_state
	addl	$8, %esp
	.cfi_remember_state
	.cfi_def_cfa_offset 8
	.loc 21 34 0
	movl	$1, %eax
	.loc 21 43 0
	popl	%ebx
	.cfi_restore 3
	.cfi_def_cfa_offset 4
	ret
.LVL1293:
	.p2align 4,,7
	.p2align 3
.L1180:
	.cfi_restore_state
	.loc 21 37 0
	movl	$ndks_boot, %eax
.LVL1294:
.L1178:
	.loc 21 38 0
	movl	%ecx, (%eax)
	movl	%edx, 4(%eax)
	.loc 21 39 0
	movl	$1, %eax
	jmp	.L1177
.LVL1295:
	.p2align 4,,7
	.p2align 3
.L1184:
	.loc 21 37 0
	movl	$ndks_boot+8, %eax
	jmp	.L1178
.LVL1296:
.L1183:
	call	insert_region.part.156
.LVL1297:
	.cfi_endproc
.LFE430:
	.size	insert_region, .-insert_region
	.section	.rodata.str1.1
.LC89:
	.string	"((~0x2 >> 1) & v) == 0"
	.section	.text.unlikely
	.type	mdb_node_ptr_set_mdbRevocable.isra.157.part.158, @function
mdb_node_ptr_set_mdbRevocable.isra.157.part.158:
.LFB795:
	.loc 27 793 0
	.cfi_startproc
.LVL1298:
	subl	$28, %esp
	.cfi_def_cfa_offset 32
	.loc 27 795 0
	movl	$__FUNCTION__.1475, 12(%esp)
	movl	$795, 8(%esp)
	movl	$.LC34, 4(%esp)
	movl	$.LC89, (%esp)
	call	_assert_fail
.LVL1299:
	.cfi_endproc
.LFE795:
	.size	mdb_node_ptr_set_mdbRevocable.isra.157.part.158, .-mdb_node_ptr_set_mdbRevocable.isra.157.part.158
	.section	.rodata.str1.1
.LC90:
	.string	"((~0x1 >> 0) & v) == 0"
	.section	.text.unlikely
	.type	mdb_node_ptr_set_mdbFirstBadged.isra.159.part.160, @function
mdb_node_ptr_set_mdbFirstBadged.isra.159.part.160:
.LFB797:
	.loc 27 815 0
	.cfi_startproc
.LVL1300:
	subl	$28, %esp
	.cfi_def_cfa_offset 32
	.loc 27 817 0
	movl	$__FUNCTION__.1488, 12(%esp)
	movl	$817, 8(%esp)
	movl	$.LC34, 4(%esp)
	movl	$.LC90, (%esp)
	call	_assert_fail
.LVL1301:
	.cfi_endproc
.LFE797:
	.size	mdb_node_ptr_set_mdbFirstBadged.isra.159.part.160, .-mdb_node_ptr_set_mdbFirstBadged.isra.159.part.160
	.section	.rodata.str1.1
.LC91:
	.string	"(capCNodeRadix & ~0x1f) == 0"
	.section	.text.unlikely
	.type	cap_cnode_cap_new.part.161, @function
cap_cnode_cap_new.part.161:
.LFB798:
	.loc 27 1252 0
	.cfi_startproc
.LVL1302:
	subl	$28, %esp
	.cfi_def_cfa_offset 32
	.loc 27 1259 0
	movl	$__FUNCTION__.1679, 12(%esp)
	movl	$1259, 8(%esp)
	movl	$.LC34, 4(%esp)
	movl	$.LC91, (%esp)
	call	_assert_fail
.LVL1303:
	.cfi_endproc
.LFE798:
	.size	cap_cnode_cap_new.part.161, .-cap_cnode_cap_new.part.161
	.section	.rodata.str1.4
	.align 4
.LC92:
	.string	"(capTCBPtr & ~0xfffffff0) == 0"
	.section	.text.unlikely
	.type	cap_thread_cap_new.part.162, @function
cap_thread_cap_new.part.162:
.LFB799:
	.loc 27 1339 0
	.cfi_startproc
.LVL1304:
	subl	$28, %esp
	.cfi_def_cfa_offset 32
	.loc 27 1346 0
	movl	$__FUNCTION__.1710, 12(%esp)
	movl	$1346, 8(%esp)
	movl	$.LC34, 4(%esp)
	movl	$.LC92, (%esp)
	call	_assert_fail
.LVL1305:
	.cfi_endproc
.LFE799:
	.size	cap_thread_cap_new.part.162, .-cap_thread_cap_new.part.162
	.section	.rodata.str1.4
	.align 4
.LC93:
	.string	"(capFreeIndex & ~0x7ffffff) == 0"
	.section	.text.unlikely
	.type	cap_untyped_cap_new.part.163, @function
cap_untyped_cap_new.part.163:
.LFB800:
	.loc 27 900 0
	.cfi_startproc
.LVL1306:
	subl	$28, %esp
	.cfi_def_cfa_offset 32
	.loc 27 907 0
	movl	$__FUNCTION__.1542, 12(%esp)
	movl	$907, 8(%esp)
	movl	$.LC34, 4(%esp)
	movl	$.LC93, (%esp)
	call	_assert_fail
.LVL1307:
	.cfi_endproc
.LFE800:
	.size	cap_untyped_cap_new.part.163, .-cap_untyped_cap_new.part.163
	.section	.rodata.str1.1
.LC94:
	.string	"(bitsFound & ~0x3f) == 0"
	.section	.text.unlikely
	.type	lookup_fault_depth_mismatch_new, @function
lookup_fault_depth_mismatch_new:
.LFB200:
	.loc 27 2404 0
	.cfi_startproc
.LVL1308:
	subl	$28, %esp
	.cfi_def_cfa_offset 32
	.loc 27 2411 0
	testl	$-64, %edx
	je	.L1196
.LVL1309:
.LBB4976:
.LBB4977:
	movl	$__FUNCTION__.2106, 12(%esp)
	movl	$2411, 8(%esp)
	movl	$.LC34, 4(%esp)
	movl	$.LC94, (%esp)
	call	_assert_fail
.LVL1310:
.L1196:
.LBE4977:
.LBE4976:
	.loc 27 2413 0
	sall	$8, %edx
.LVL1311:
	.loc 27 2415 0
	testl	$-64, %ecx
	je	.L1197
	.loc 27 2415 0 is_stmt 0 discriminator 1
	movl	$__FUNCTION__.2106, 12(%esp)
	movl	$2415, 8(%esp)
	movl	$.LC34, 4(%esp)
	movl	$.LC38, (%esp)
	call	_assert_fail
.LVL1312:
.L1197:
	.loc 27 2417 0 is_stmt 1
	leal	2(,%ecx,4), %ecx
.LVL1313:
	.loc 27 2421 0
	orl	%edx, %ecx
	movl	%ecx, (%eax)
	.loc 27 2423 0
	movl	$0, 4(%eax)
	.loc 27 2424 0
	addl	$28, %esp
	.cfi_def_cfa_offset 4
	ret
	.cfi_endproc
.LFE200:
	.size	lookup_fault_depth_mismatch_new, .-lookup_fault_depth_mismatch_new
	.section	.rodata.str1.4
	.align 4
.LC95:
	.string	"/home/mscapero/Desktop/sel4-benchmark/sel4test-manifest/kernel/src/kernel/cspace.c"
	.section	.rodata.str1.1
.LC96:
	.string	"levelBits != 0"
	.text
	.p2align 4,,15
	.globl	resolveAddressBits
	.type	resolveAddressBits, @function
resolveAddressBits:
.LFB458:
	.file 42 "/home/mscapero/Desktop/sel4-benchmark/sel4test-manifest/kernel/src/kernel/cspace.c"
	.loc 42 140 0
	.cfi_startproc
.LVL1314:
	pushl	%ebp
	.cfi_def_cfa_offset 8
	.cfi_offset 5, -8
	pushl	%edi
	.cfi_def_cfa_offset 12
	.cfi_offset 7, -12
	pushl	%esi
	.cfi_def_cfa_offset 16
	.cfi_offset 6, -16
	pushl	%ebx
	.cfi_def_cfa_offset 20
	.cfi_offset 3, -20
	subl	$44, %esp
	.cfi_def_cfa_offset 64
	movl	68(%esp), %edx
.LVL1315:
	movl	72(%esp), %ecx
.LVL1316:
.LBB4992:
.LBB4993:
	.loc 27 872 0
	movl	%edx, %esi
	.loc 27 873 0
	movl	%edx, %eax
	.loc 27 872 0
	andl	$14, %esi
	.loc 27 873 0
	andl	$15, %eax
	movzbl	%dl, %ebx
.LVL1317:
	cmpl	$14, %esi
	cmove	%ebx, %eax
.LVL1318:
.LBE4993:
.LBE4992:
	.loc 42 149 0
	cmpl	$10, %eax
	jne	.L1218
	movl	80(%esp), %esi
	movl	%edx, %eax
	.loc 42 168 0
	movl	%edx, 24(%esp)
.LVL1319:
.L1214:
.LBB4994:
.LBB4995:
	.loc 27 1284 0
	andl	$15, %eax
	cmpl	$10, %eax
	jne	.L1219
.LBE4995:
.LBE4994:
.LBB5000:
.LBB5001:
	.loc 27 1295 0
	movl	%ecx, %eax
.LBE5001:
.LBE5000:
.LBB5004:
.LBB4996:
	.loc 27 1287 0
	movl	%ecx, %edx
.LBE4996:
.LBE5004:
.LBB5005:
.LBB5002:
	.loc 27 1295 0
	andl	$8126464, %eax
.LBE5002:
.LBE5005:
.LBB5006:
.LBB4997:
	.loc 27 1287 0
	andl	$260046848, %edx
.LBE4997:
.LBE5006:
.LBB5007:
.LBB5003:
	.loc 27 1295 0
	shrl	$18, %eax
.LBE5003:
.LBE5007:
.LBB5008:
.LBB4998:
	.loc 27 1287 0
	shrl	$23, %edx
.LVL1320:
.LBE4998:
.LBE5008:
	.loc 42 161 0
	movl	%eax, %edi
	addl	%edx, %edi
.LVL1321:
	je	.L1220
.LVL1322:
	.loc 42 168 0
	movl	%esi, %ebx
.LVL1323:
.LBB5009:
.LBB5010:
	.loc 27 1315 0
	andl	$262143, %ecx
.LVL1324:
.LBE5010:
.LBE5009:
	.loc 42 168 0
	subl	%eax, %ebx
	movl	$1, %ebp
.LBB5012:
.LBB5011:
	.loc 27 1315 0
	movl	%ecx, 28(%esp)
.LBE5011:
.LBE5012:
	.loc 42 168 0
	movl	%ebx, %ecx
	movl	76(%esp), %ebx
	shrl	%cl, %ebx
	movl	%eax, %ecx
	sall	%cl, %ebp
	movl	%ebp, %ecx
	subl	$1, %ecx
	andl	%ecx, %ebx
	.loc 42 169 0
	cmpl	28(%esp), %ebx
	jne	.L1215
	cmpl	%eax, %esi
	jb	.L1215
	.loc 42 176 0
	cmpl	%edi, %esi
	jb	.L1221
	.loc 42 183 0
	movl	76(%esp), %eax
.LVL1325:
	movl	%esi, %ebx
	movl	$1, %ebp
	subl	%edi, %ebx
.LVL1326:
	movl	%ebx, %ecx
	shrl	%cl, %eax
	movl	%edx, %ecx
	sall	%cl, %ebp
	movl	%ebp, %edx
.LVL1327:
	subl	$1, %edx
	andl	%edx, %eax
.LBB5013:
.LBB5014:
	.loc 27 1335 0
	movl	24(%esp), %edx
.LBE5014:
.LBE5013:
	.loc 42 184 0
	sall	$4, %eax
.LBB5016:
.LBB5015:
	.loc 27 1335 0
	andl	$2147483632, %edx
.LBE5015:
.LBE5016:
	.loc 42 186 0
	cmpl	%edi, %esi
	.loc 42 184 0
	leal	(%eax,%edx,2), %eax
.LVL1328:
	.loc 42 186 0
	ja	.L1210
.LVL1329:
	.loc 42 190 0
	movl	64(%esp), %edi
.LVL1330:
	movl	%eax, 4(%edi)
	movl	%edi, %eax
.LVL1331:
	movl	$0, (%edi)
	movl	$0, 8(%edi)
.LVL1332:
.L1199:
	.loc 42 206 0
	addl	$44, %esp
	.cfi_remember_state
	.cfi_def_cfa_offset 20
	popl	%ebx
	.cfi_restore 3
	.cfi_def_cfa_offset 16
.LVL1333:
	popl	%esi
	.cfi_restore 6
	.cfi_def_cfa_offset 12
	popl	%edi
	.cfi_restore 7
	.cfi_def_cfa_offset 8
	popl	%ebp
	.cfi_restore 5
	.cfi_def_cfa_offset 4
	ret	$4
.LVL1334:
.L1218:
	.cfi_restore_state
	.loc 42 150 0
	movl	$0, current_lookup_fault
	movl	$0, current_lookup_fault+4
.LVL1335:
.L1217:
	.loc 42 180 0
	movl	64(%esp), %eax
	movl	80(%esp), %edi
	movl	$2, (%eax)
	movl	$0, 4(%eax)
	movl	%edi, 8(%eax)
	jmp	.L1199
.LVL1336:
.L1210:
	.loc 42 194 0
	movl	(%eax), %edi
.LVL1337:
	movl	4(%eax), %ecx
.LBB5017:
.LBB5018:
	.loc 27 872 0
	movl	%edi, %edx
	andl	$14, %edx
	cmpl	$14, %edx
.LBE5018:
.LBE5017:
	.loc 42 194 0
	movl	%edi, 24(%esp)
.LVL1338:
.LBB5021:
.LBB5019:
	.loc 27 872 0
	je	.L1211
	.loc 27 873 0
	movl	%edi, %edx
	andl	$15, %edx
.L1212:
.LBE5019:
.LBE5021:
	.loc 42 196 0
	cmpl	$10, %edx
	jne	.L1213
	.loc 42 183 0
	movl	%ebx, %esi
	movl	24(%esp), %eax
.LVL1339:
	jmp	.L1214
.LVL1340:
.L1221:
	.loc 42 177 0
	movl	%esi, %ecx
	movl	%edi, %edx
	movl	$current_lookup_fault, %eax
.LVL1341:
	call	lookup_fault_depth_mismatch_new
.LVL1342:
	jmp	.L1217
.LVL1343:
.L1215:
.LBB5022:
.LBB5023:
	.loc 27 2451 0
	testl	$-64, %esi
	jne	.L1222
.LVL1344:
	.loc 27 2457 0
	sall	$2, %eax
.LVL1345:
	.loc 27 2453 0
	sall	$8, %esi
.LVL1346:
	.loc 27 2457 0
	orl	%eax, %esi
.LBE5023:
.LBE5022:
	.loc 42 170 0
	movl	28(%esp), %eax
.LBB5026:
.LBB5024:
	.loc 27 2461 0
	orl	$3, %esi
.LVL1347:
	movl	%esi, current_lookup_fault
.LBE5024:
.LBE5026:
	.loc 42 170 0
	movl	%eax, current_lookup_fault+4
.LVL1348:
	jmp	.L1217
.LVL1349:
.L1220:
	.loc 42 161 0 discriminator 1
	movl	$__FUNCTION__.6024, 12(%esp)
	movl	$161, 8(%esp)
	movl	$.LC95, 4(%esp)
	movl	$.LC96, (%esp)
	call	_assert_fail
.LVL1350:
.L1219:
.LBB5027:
.LBB4999:
	call	cap_cnode_cap_get_capCNodeRadix.part.60
.LVL1351:
.L1211:
.LBE4999:
.LBE5027:
.LBB5028:
.LBB5020:
	.loc 27 874 0
	movzbl	24(%esp), %edx
	jmp	.L1212
.LVL1352:
.L1222:
.LBE5020:
.LBE5028:
.LBB5029:
.LBB5025:
	.loc 27 2451 0
	movl	$__FUNCTION__.2121, 12(%esp)
	movl	$2451, 8(%esp)
	movl	$.LC34, 4(%esp)
	movl	$.LC38, (%esp)
	call	_assert_fail
.LVL1353:
.L1213:
.LBE5025:
.LBE5029:
	.loc 42 200 0
	movl	64(%esp), %edi
.LVL1354:
	movl	%eax, 4(%edi)
	movl	%edi, %eax
.LVL1355:
	movl	%ebx, 8(%eax)
	movl	%edi, %eax
	movl	$0, (%edi)
	jmp	.L1199
	.cfi_endproc
.LFE458:
	.size	resolveAddressBits, .-resolveAddressBits
	.p2align 4,,15
	.globl	lookupSlot
	.type	lookupSlot, @function
lookupSlot:
.LFB453:
	.loc 42 59 0
	.cfi_startproc
.LVL1356:
	pushl	%ebp
	.cfi_def_cfa_offset 8
	.cfi_offset 5, -8
	movl	%esp, %ebp
	.cfi_def_cfa_register 5
	pushl	%edi
	pushl	%esi
	pushl	%ebx
	subl	$60, %esp
	.cfi_offset 7, -12
	.cfi_offset 6, -16
	.cfi_offset 3, -20
	.loc 42 59 0
	movl	12(%ebp), %eax
	movl	8(%ebp), %ebx
	.loc 42 64 0
	andl	$-1024, %eax
	movl	4(%eax), %edx
.LVL1357:
	movl	(%eax), %eax
	.loc 42 65 0
	movl	$32, 16(%esp)
	.loc 42 64 0
	movl	%edx, %edi
	.loc 42 65 0
	movl	16(%ebp), %edx
	.loc 42 64 0
	movl	%eax, %esi
	.loc 42 65 0
	leal	-36(%ebp), %eax
	movl	%esi, 4(%esp)
	movl	%edi, 8(%esp)
.LVL1358:
	movl	%eax, (%esp)
	movl	%edx, 12(%esp)
	call	resolveAddressBits
.LVL1359:
	.loc 42 69 0
	movl	-36(%ebp), %eax
	movl	%eax, (%ebx)
	movl	-32(%ebp), %eax
	.loc 42 65 0
	subl	$4, %esp
.LVL1360:
	.loc 42 69 0
	movl	%eax, 4(%ebx)
	.loc 42 70 0
	leal	-12(%ebp), %esp
	movl	%ebx, %eax
.LVL1361:
	popl	%ebx
	.cfi_restore 3
.LVL1362:
	popl	%esi
	.cfi_restore 6
.LVL1363:
	popl	%edi
	.cfi_restore 7
	popl	%ebp
	.cfi_restore 5
	.cfi_def_cfa 4, 4
	ret	$4
	.cfi_endproc
.LFE453:
	.size	lookupSlot, .-lookupSlot
	.p2align 4,,15
	.globl	lookupSlotForCNodeOp
	.type	lookupSlotForCNodeOp, @function
lookupSlotForCNodeOp:
.LFB454:
	.loc 42 75 0
	.cfi_startproc
.LVL1364:
	pushl	%ebp
	.cfi_def_cfa_offset 8
	.cfi_offset 5, -8
	movl	%esp, %ebp
	.cfi_def_cfa_register 5
	pushl	%edi
	pushl	%esi
	pushl	%ebx
	subl	$60, %esp
	.cfi_offset 7, -12
	.cfi_offset 6, -16
	.cfi_offset 3, -20
	.loc 42 75 0
	movl	16(%ebp), %eax
	movl	8(%ebp), %ebx
	movl	20(%ebp), %edi
.LVL1365:
.LBB5030:
.LBB5031:
	.loc 27 872 0
	movl	%eax, %esi
	.loc 27 873 0
	movl	%eax, %edx
	.loc 27 872 0
	andl	$14, %esi
	.loc 27 873 0
	andl	$15, %edx
	movzbl	%al, %ecx
.LVL1366:
	cmpl	$14, %esi
	cmove	%ecx, %edx
.LVL1367:
.LBE5031:
.LBE5030:
	.loc 42 81 0
	cmpl	$10, %edx
	jne	.L1234
	.loc 42 89 0
	movl	28(%ebp), %esi
	leal	-1(%esi), %edx
	cmpl	$31, %edx
	ja	.L1235
	.loc 42 97 0
	movl	24(%ebp), %ecx
.LVL1368:
	leal	-36(%ebp), %edx
	movl	%eax, 4(%esp)
.LVL1369:
	movl	%esi, 16(%esp)
	movl	%edi, 8(%esp)
	movl	%ecx, 12(%esp)
	movl	%edx, (%esp)
	call	resolveAddressBits
.LVL1370:
	.loc 42 98 0
	movl	-36(%ebp), %eax
	.loc 42 97 0
	movl	-28(%ebp), %ecx
.LVL1371:
	subl	$4, %esp
	.loc 42 98 0
	testl	%eax, %eax
	jne	.L1236
	.loc 42 106 0
	testl	%ecx, %ecx
	jne	.L1237
.LVL1372:
	.loc 42 117 0
	movl	-32(%ebp), %eax
	movl	$0, (%ebx)
	movl	%eax, 4(%ebx)
.LVL1373:
.L1225:
	.loc 42 118 0
	leal	-12(%ebp), %esp
	movl	%ebx, %eax
	popl	%ebx
	.cfi_remember_state
	.cfi_restore 3
	popl	%esi
	.cfi_restore 6
	popl	%edi
	.cfi_restore 7
.LVL1374:
	popl	%ebp
	.cfi_restore 5
	.cfi_def_cfa 4, 4
	ret	$4
.LVL1375:
.L1234:
	.cfi_restore_state
	.loc 42 83 0
	movl	12(%ebp), %eax
.LVL1376:
	.loc 42 82 0
	movl	$6, current_syscall_error+24
	.loc 42 84 0
	movl	$0, current_lookup_fault
	movl	$0, current_lookup_fault+4
	.loc 42 83 0
	movl	%eax, current_syscall_error+20
.LVL1377:
	.loc 42 86 0
	movl	$3, (%ebx)
	movl	$0, 4(%ebx)
	jmp	.L1225
.LVL1378:
.L1237:
	.loc 42 108 0
	movl	12(%ebp), %eax
	.loc 42 109 0
	xorl	%edx, %edx
	.loc 42 107 0
	movl	$6, current_syscall_error+24
	.loc 42 108 0
	movl	%eax, current_syscall_error+20
	.loc 42 109 0
	movl	$current_lookup_fault, %eax
	call	lookup_fault_depth_mismatch_new
.LVL1379:
	.loc 42 112 0
	movl	$3, (%ebx)
	movl	$0, 4(%ebx)
	jmp	.L1225
.LVL1380:
.L1236:
	.loc 42 100 0
	movl	12(%ebp), %eax
	.loc 42 99 0
	movl	$6, current_syscall_error+24
	.loc 42 103 0
	movl	$3, (%ebx)
	movl	$0, 4(%ebx)
	.loc 42 100 0
	movl	%eax, current_syscall_error+20
.LVL1381:
	.loc 42 103 0
	jmp	.L1225
.LVL1382:
.L1235:
	.loc 42 90 0
	movl	$4, current_syscall_error+24
	.loc 42 91 0
	movl	$1, current_syscall_error+8
	.loc 42 92 0
	movl	$32, current_syscall_error+12
.LVL1383:
	.loc 42 94 0
	movl	$3, (%ebx)
	movl	$0, 4(%ebx)
	jmp	.L1225
	.cfi_endproc
.LFE454:
	.size	lookupSlotForCNodeOp, .-lookupSlotForCNodeOp
	.p2align 4,,15
	.globl	lookupSourceSlot
	.type	lookupSourceSlot, @function
lookupSourceSlot:
.LFB455:
	.loc 42 122 0
	.cfi_startproc
.LVL1384:
	pushl	%ebp
	.cfi_def_cfa_offset 8
	.cfi_offset 5, -8
	movl	%esp, %ebp
	.cfi_def_cfa_register 5
	pushl	%ebx
	subl	$36, %esp
	.cfi_offset 3, -12
	.loc 42 123 0
	movl	24(%ebp), %eax
	.loc 42 122 0
	movl	8(%ebp), %ebx
	.loc 42 123 0
	movl	16(%ebp), %edx
	movl	$1, 4(%esp)
	movl	%eax, 20(%esp)
	movl	20(%ebp), %eax
	movl	%ebx, (%esp)
	movl	%edx, 12(%esp)
	movl	%eax, 16(%esp)
	movl	12(%ebp), %eax
	movl	%eax, 8(%esp)
	call	lookupSlotForCNodeOp
.LVL1385:
	.loc 42 124 0
	movl	%ebx, %eax
	movl	-4(%ebp), %ebx
	.loc 42 123 0
	subl	$4, %esp
	.loc 42 124 0
	leave
	.cfi_restore 5
	.cfi_restore 3
	.cfi_def_cfa 4, 4
	ret	$4
	.cfi_endproc
.LFE455:
	.size	lookupSourceSlot, .-lookupSourceSlot
	.p2align 4,,15
	.globl	lookupTargetSlot
	.type	lookupTargetSlot, @function
lookupTargetSlot:
.LFB456:
	.loc 42 128 0
	.cfi_startproc
.LVL1386:
	pushl	%ebp
	.cfi_def_cfa_offset 8
	.cfi_offset 5, -8
	movl	%esp, %ebp
	.cfi_def_cfa_register 5
	pushl	%ebx
	subl	$36, %esp
	.cfi_offset 3, -12
	.loc 42 129 0
	movl	24(%ebp), %eax
	.loc 42 128 0
	movl	8(%ebp), %ebx
	.loc 42 129 0
	movl	16(%ebp), %edx
	movl	$0, 4(%esp)
	movl	%eax, 20(%esp)
	movl	20(%ebp), %eax
	movl	%ebx, (%esp)
	movl	%edx, 12(%esp)
	movl	%eax, 16(%esp)
	movl	12(%ebp), %eax
	movl	%eax, 8(%esp)
	call	lookupSlotForCNodeOp
.LVL1387:
	.loc 42 130 0
	movl	%ebx, %eax
	movl	-4(%ebp), %ebx
	.loc 42 129 0
	subl	$4, %esp
	.loc 42 130 0
	leave
	.cfi_restore 5
	.cfi_restore 3
	.cfi_def_cfa 4, 4
	ret	$4
	.cfi_endproc
.LFE456:
	.size	lookupTargetSlot, .-lookupTargetSlot
	.p2align 4,,15
	.globl	lookupPivotSlot
	.type	lookupPivotSlot, @function
lookupPivotSlot:
.LFB457:
	.loc 42 134 0
	.cfi_startproc
.LVL1388:
	pushl	%ebp
	.cfi_def_cfa_offset 8
	.cfi_offset 5, -8
	movl	%esp, %ebp
	.cfi_def_cfa_register 5
	pushl	%ebx
	subl	$36, %esp
	.cfi_offset 3, -12
	.loc 42 135 0
	movl	24(%ebp), %eax
	.loc 42 134 0
	movl	8(%ebp), %ebx
	.loc 42 135 0
	movl	16(%ebp), %edx
	movl	$1, 4(%esp)
	movl	%eax, 20(%esp)
	movl	20(%ebp), %eax
	movl	%ebx, (%esp)
	movl	%edx, 12(%esp)
	movl	%eax, 16(%esp)
	movl	12(%ebp), %eax
	movl	%eax, 8(%esp)
	call	lookupSlotForCNodeOp
.LVL1389:
	.loc 42 136 0
	movl	%ebx, %eax
	movl	-4(%ebp), %ebx
	.loc 42 135 0
	subl	$4, %esp
	.loc 42 136 0
	leave
	.cfi_restore 5
	.cfi_restore 3
	.cfi_def_cfa 4, 4
	ret	$4
	.cfi_endproc
.LFE457:
	.size	lookupPivotSlot, .-lookupPivotSlot
	.p2align 4,,15
	.globl	lookupExtraCaps
	.type	lookupExtraCaps, @function
lookupExtraCaps:
.LFB580:
	.loc 30 208 0
	.cfi_startproc
.LVL1390:
	pushl	%ebp
	.cfi_def_cfa_offset 8
	.cfi_offset 5, -8
	movl	%esp, %ebp
	.cfi_def_cfa_register 5
	pushl	%edi
	pushl	%esi
	pushl	%ebx
	subl	$60, %esp
	.cfi_offset 7, -12
	.cfi_offset 6, -16
	.cfi_offset 3, -20
	.loc 30 213 0
	movl	12(%ebp), %edx
	testl	%edx, %edx
	je	.L1255
.LVL1391:
.LBB5042:
.LBB5043:
	.loc 14 60 0
	movl	16(%ebp), %eax
	andl	$384, %eax
	movl	%eax, -44(%ebp)
	shrl	$7, -44(%ebp)
.LVL1392:
.LBE5043:
.LBE5042:
	.loc 30 220 0
	movl	-44(%ebp), %eax
	testl	%eax, %eax
	je	.L1251
	movl	8(%ebp), %esi
	xorl	%ebx, %ebx
	andl	$-1024, %esi
	jmp	.L1250
.LVL1393:
	.p2align 4,,7
	.p2align 3
.L1248:
	.loc 30 229 0
	movl	%edx, current_extra_caps(,%ebx,4)
	.loc 30 220 0
	addl	$1, %ebx
.LVL1394:
	cmpl	-44(%ebp), %ebx
	je	.L1256
.LVL1395:
.L1250:
.LBB5044:
.LBB5045:
	.loc 30 164 0
	movl	12(%ebp), %eax
.LBE5045:
.LBE5044:
.LBB5047:
.LBB5048:
	.loc 42 64 0
	movl	4(%esi), %edx
.LVL1396:
.LBE5048:
.LBE5047:
.LBB5050:
.LBB5046:
	.loc 30 164 0
	movl	488(%eax,%ebx,4), %edi
.LVL1397:
.LBE5046:
.LBE5050:
.LBB5051:
.LBB5049:
	.loc 42 64 0
	movl	(%esi), %eax
	.loc 42 65 0
	movl	%edx, 8(%esp)
.LVL1398:
	movl	$32, 16(%esp)
	movl	%edi, 12(%esp)
	movl	%eax, 4(%esp)
.LVL1399:
	leal	-36(%ebp), %eax
.LVL1400:
	movl	%eax, (%esp)
	call	resolveAddressBits
.LVL1401:
	.loc 42 67 0
	movl	-36(%ebp), %eax
.LVL1402:
	.loc 42 68 0
	movl	-32(%ebp), %edx
.LVL1403:
	.loc 42 65 0
	subl	$4, %esp
.LBE5049:
.LBE5051:
	.loc 30 224 0
	testl	%eax, %eax
	je	.L1248
.LVL1404:
	.loc 30 225 0
	movl	$1, current_fault
	movl	%edi, current_fault+4
.LVL1405:
.L1246:
	.loc 30 236 0
	leal	-12(%ebp), %esp
	popl	%ebx
	.cfi_remember_state
	.cfi_restore 3
.LVL1406:
	popl	%esi
	.cfi_restore 6
	popl	%edi
	.cfi_restore 7
.LVL1407:
	popl	%ebp
	.cfi_restore 5
	.cfi_def_cfa 4, 4
	ret
.LVL1408:
	.p2align 4,,7
	.p2align 3
.L1256:
	.cfi_restore_state
	.loc 30 235 0
	xorl	%eax, %eax
.LVL1409:
	.loc 30 231 0
	cmpl	$3, %ebx
	je	.L1246
.LVL1410:
.L1247:
	.loc 30 232 0
	movl	$0, current_extra_caps(,%ebx,4)
	.loc 30 236 0
	leal	-12(%ebp), %esp
	.loc 30 235 0
	xorl	%eax, %eax
	.loc 30 236 0
	popl	%ebx
	.cfi_remember_state
	.cfi_restore 3
	popl	%esi
	.cfi_restore 6
	popl	%edi
	.cfi_restore 7
	popl	%ebp
	.cfi_restore 5
	.cfi_def_cfa 4, 4
	ret
	.p2align 4,,7
	.p2align 3
.L1255:
	.cfi_restore_state
	.loc 30 214 0
	movl	$0, current_extra_caps
	.loc 30 236 0
	leal	-12(%ebp), %esp
	.loc 30 215 0
	xorl	%eax, %eax
	.loc 30 236 0
	popl	%ebx
	.cfi_remember_state
	.cfi_restore 3
	popl	%esi
	.cfi_restore 6
	popl	%edi
	.cfi_restore 7
	popl	%ebp
	.cfi_restore 5
	.cfi_def_cfa 4, 4
	ret
.LVL1411:
.L1251:
	.cfi_restore_state
	.loc 30 220 0
	xorl	%ebx, %ebx
	jmp	.L1247
	.cfi_endproc
.LFE580:
	.size	lookupExtraCaps, .-lookupExtraCaps
	.p2align 4,,15
	.globl	lookupCap
	.type	lookupCap, @function
lookupCap:
.LFB451:
	.loc 42 21 0
	.cfi_startproc
.LVL1412:
	pushl	%ebp
	.cfi_def_cfa_offset 8
	.cfi_offset 5, -8
	movl	%esp, %ebp
	.cfi_def_cfa_register 5
	pushl	%edi
	pushl	%esi
	pushl	%ebx
	subl	$60, %esp
	.cfi_offset 7, -12
	.cfi_offset 6, -16
	.cfi_offset 3, -20
	.loc 42 21 0
	movl	12(%ebp), %eax
.LVL1413:
	movl	8(%ebp), %ebx
.LBB5054:
.LBB5055:
	.loc 42 64 0
	andl	$-1024, %eax
.LVL1414:
	movl	4(%eax), %edx
.LVL1415:
	movl	(%eax), %eax
	.loc 42 65 0
	movl	$32, 16(%esp)
	.loc 42 64 0
	movl	%edx, %edi
	.loc 42 65 0
	movl	16(%ebp), %edx
	.loc 42 64 0
	movl	%eax, %esi
	.loc 42 65 0
	leal	-36(%ebp), %eax
	movl	%eax, (%esp)
	movl	%edx, 12(%esp)
	movl	%esi, 4(%esp)
	movl	%edi, 8(%esp)
.LVL1416:
	call	resolveAddressBits
.LVL1417:
	.loc 42 67 0
	movl	-36(%ebp), %edx
.LVL1418:
	.loc 42 68 0
	movl	-32(%ebp), %eax
.LVL1419:
	.loc 42 65 0
	subl	$4, %esp
.LBE5055:
.LBE5054:
	.loc 42 26 0
	testl	%edx, %edx
	jne	.L1261
.LVL1420:
	.loc 42 33 0
	movl	(%eax), %edx
.LVL1421:
	movl	4(%eax), %eax
.LVL1422:
	.loc 42 34 0
	movl	$0, (%ebx)
	movl	%edx, 4(%ebx)
	movl	%eax, 8(%ebx)
.LVL1423:
.L1257:
	.loc 42 35 0
	leal	-12(%ebp), %esp
	movl	%ebx, %eax
	popl	%ebx
	.cfi_remember_state
	.cfi_restore 3
	popl	%esi
	.cfi_restore 6
.LVL1424:
	popl	%edi
	.cfi_restore 7
	popl	%ebp
	.cfi_restore 5
	.cfi_def_cfa 4, 4
	ret	$4
.LVL1425:
.L1261:
	.cfi_restore_state
	.loc 42 29 0
	movl	%edx, (%ebx)
	movl	$0, 4(%ebx)
	movl	$0, 8(%ebx)
	jmp	.L1257
	.cfi_endproc
.LFE451:
	.size	lookupCap, .-lookupCap
	.p2align 4,,15
	.globl	lookupCapAndSlot
	.type	lookupCapAndSlot, @function
lookupCapAndSlot:
.LFB452:
	.loc 42 39 0
	.cfi_startproc
.LVL1426:
	pushl	%ebp
	.cfi_def_cfa_offset 8
	.cfi_offset 5, -8
	movl	%esp, %ebp
	.cfi_def_cfa_register 5
	pushl	%edi
	pushl	%esi
	pushl	%ebx
	subl	$60, %esp
	.cfi_offset 7, -12
	.cfi_offset 6, -16
	.cfi_offset 3, -20
	.loc 42 39 0
	movl	12(%ebp), %eax
.LVL1427:
	movl	8(%ebp), %ebx
.LBB5058:
.LBB5059:
	.loc 42 64 0
	andl	$-1024, %eax
.LVL1428:
	movl	4(%eax), %edx
.LVL1429:
	movl	(%eax), %eax
	.loc 42 65 0
	movl	$32, 16(%esp)
	.loc 42 64 0
	movl	%edx, %edi
	.loc 42 65 0
	movl	16(%ebp), %edx
	.loc 42 64 0
	movl	%eax, %esi
	.loc 42 65 0
	leal	-36(%ebp), %eax
	movl	%eax, (%esp)
	movl	%edx, 12(%esp)
	movl	%esi, 4(%esp)
	movl	%edi, 8(%esp)
.LVL1430:
	call	resolveAddressBits
.LVL1431:
	.loc 42 67 0
	movl	-36(%ebp), %edx
.LVL1432:
	.loc 42 68 0
	movl	-32(%ebp), %eax
.LVL1433:
	.loc 42 65 0
	subl	$4, %esp
.LBE5059:
.LBE5058:
	.loc 42 44 0
	testl	%edx, %edx
	jne	.L1266
.LVL1434:
	.loc 42 53 0
	movl	(%eax), %ecx
.LVL1435:
	movl	4(%eax), %edx
.LVL1436:
	.loc 42 54 0
	movl	$0, (%ebx)
	movl	%eax, 12(%ebx)
	movl	%ecx, 4(%ebx)
	movl	%edx, 8(%ebx)
.LVL1437:
.L1262:
	.loc 42 55 0
	leal	-12(%ebp), %esp
	movl	%ebx, %eax
.LVL1438:
	popl	%ebx
	.cfi_remember_state
	.cfi_restore 3
	popl	%esi
	.cfi_restore 6
.LVL1439:
	popl	%edi
	.cfi_restore 7
	popl	%ebp
	.cfi_restore 5
	.cfi_def_cfa 4, 4
	ret	$4
.LVL1440:
.L1266:
	.cfi_restore_state
	.loc 42 48 0
	movl	%edx, (%ebx)
	movl	$0, 4(%ebx)
	movl	$0, 8(%ebx)
	movl	$0, 12(%ebx)
	jmp	.L1262
	.cfi_endproc
.LFE452:
	.size	lookupCapAndSlot, .-lookupCapAndSlot
	.p2align 4,,15
	.globl	getReceiveSlots
	.type	getReceiveSlots, @function
getReceiveSlots:
.LFB533:
	.loc 26 951 0
	.cfi_startproc
.LVL1441:
	pushl	%ebp
	.cfi_def_cfa_offset 8
	.cfi_offset 5, -8
	movl	%esp, %ebp
	.cfi_def_cfa_register 5
	pushl	%edi
	pushl	%esi
	pushl	%ebx
	subl	$60, %esp
	.cfi_offset 7, -12
	.cfi_offset 6, -16
	.cfi_offset 3, -20
	.loc 26 951 0
	movl	12(%ebp), %eax
	.loc 26 959 0
	testl	%eax, %eax
	je	.L1275
.LVL1442:
.LBB5072:
.LBB5073:
.LBB5074:
.LBB5075:
	.loc 28 64 0
	movl	500(%eax), %ecx
.LVL1443:
.LBE5075:
.LBE5074:
.LBE5073:
.LBE5072:
.LBB5079:
.LBB5080:
.LBB5081:
.LBB5082:
	.loc 42 65 0
	leal	-36(%ebp), %edi
.LBE5082:
.LBE5081:
.LBE5080:
.LBE5079:
.LBB5088:
.LBB5078:
.LBB5077:
.LBB5076:
	.loc 28 65 0
	movl	504(%eax), %ebx
.LVL1444:
	.loc 28 66 0
	movl	508(%eax), %esi
.LVL1445:
.LBE5076:
.LBE5077:
.LBE5078:
.LBE5088:
.LBB5089:
.LBB5087:
.LBB5085:
.LBB5083:
	.loc 42 64 0
	movl	8(%ebp), %eax
.LVL1446:
	andl	$-1024, %eax
	movl	4(%eax), %edx
.LVL1447:
	movl	(%eax), %eax
	.loc 42 65 0
	movl	%ecx, 12(%esp)
	movl	$32, 16(%esp)
	movl	%edx, 8(%esp)
	movl	%eax, 4(%esp)
.LVL1448:
	movl	%edi, (%esp)
	call	resolveAddressBits
.LVL1449:
.LBE5083:
.LBE5085:
	.loc 42 26 0
	movl	-36(%ebp), %ecx
.LBB5086:
.LBB5084:
	.loc 42 68 0
	movl	-32(%ebp), %eax
	.loc 42 65 0
	subl	$4, %esp
.LVL1450:
.LBE5084:
.LBE5086:
	.loc 42 26 0
	testl	%ecx, %ecx
	jne	.L1275
.LVL1451:
	.loc 42 33 0
	movl	4(%eax), %edx
.LVL1452:
	movl	(%eax), %ecx
.LVL1453:
.LBE5087:
.LBE5089:
.LBB5090:
.LBB5091:
	.loc 42 129 0
	leal	-48(%ebp), %eax
.LVL1454:
	movl	%eax, (%esp)
	movl	%esi, 20(%esp)
	movl	%edx, 12(%esp)
	movl	%ebx, 16(%esp)
	movl	%ecx, 8(%esp)
	movl	$0, 4(%esp)
	call	lookupSlotForCNodeOp
.LVL1455:
.LBE5091:
.LBE5090:
	.loc 26 973 0
	movl	-48(%ebp), %edx
.LBB5093:
.LBB5092:
	.loc 42 129 0
	movl	-44(%ebp), %eax
.LVL1456:
	subl	$4, %esp
.LBE5092:
.LBE5093:
	.loc 26 973 0
	testl	%edx, %edx
	jne	.L1275
.LVL1457:
	.loc 26 978 0
	movl	(%eax), %ecx
.LVL1458:
.LBB5094:
.LBB5095:
	.loc 27 872 0
	movl	%ecx, %ebx
.LVL1459:
	.loc 27 873 0
	movl	%ecx, %edx
	.loc 27 872 0
	andl	$14, %ebx
	.loc 27 873 0
	andl	$15, %edx
	movzbl	%cl, %ecx
.LVL1460:
	cmpl	$14, %ebx
	cmove	%ecx, %edx
.LBE5095:
.LBE5094:
	.loc 26 978 0
	testl	%edx, %edx
	jne	.L1275
	.loc 26 983 0
	leal	-12(%ebp), %esp
	popl	%ebx
	.cfi_remember_state
	.cfi_restore 3
	popl	%esi
	.cfi_restore 6
.LVL1461:
	popl	%edi
	.cfi_restore 7
.LVL1462:
	popl	%ebp
	.cfi_restore 5
	.cfi_def_cfa 4, 4
	ret
.LVL1463:
	.p2align 4,,7
	.p2align 3
.L1275:
	.cfi_restore_state
	leal	-12(%ebp), %esp
	.loc 26 968 0
	xorl	%eax, %eax
	.loc 26 983 0
	popl	%ebx
	.cfi_restore 3
	popl	%esi
	.cfi_restore 6
	popl	%edi
	.cfi_restore 7
	popl	%ebp
	.cfi_restore 5
	.cfi_def_cfa 4, 4
	ret
	.cfi_endproc
.LFE533:
	.size	getReceiveSlots, .-getReceiveSlots
	.section	.rodata.str1.1
.LC97:
	.string	"((~0xf >> 0) & v) == 0"
	.section	.text.unlikely
	.type	thread_state_ptr_set_tsType.isra.166.part.167, @function
thread_state_ptr_set_tsType.isra.166.part.167:
.LFB804:
	.loc 27 623 0
	.cfi_startproc
.LVL1464:
	subl	$28, %esp
	.cfi_def_cfa_offset 32
	.loc 27 625 0
	movl	$__FUNCTION__.1392, 12(%esp)
	movl	$625, 8(%esp)
	movl	$.LC34, 4(%esp)
	movl	$.LC97, (%esp)
	call	_assert_fail
.LVL1465:
	.cfi_endproc
.LFE804:
	.size	thread_state_ptr_set_tsType.isra.166.part.167, .-thread_state_ptr_set_tsType.isra.166.part.167
	.text
	.p2align 4,,15
	.type	thread_state_ptr_set_tsType.isra.166.constprop.286, @function
thread_state_ptr_set_tsType.isra.166.constprop.286:
.LFB868:
	.loc 27 623 0
	.cfi_startproc
.LVL1466:
	.loc 27 626 0
	movl	(%eax), %edx
	andl	$-16, %edx
	.loc 27 627 0
	orl	$2, %edx
	movl	%edx, (%eax)
	ret
	.cfi_endproc
.LFE868:
	.size	thread_state_ptr_set_tsType.isra.166.constprop.286, .-thread_state_ptr_set_tsType.isra.166.constprop.286
	.section	.rodata.str1.1
.LC98:
	.string	"((~0xfffffff0 << 0) & v) == 0"
	.section	.text.unlikely
	.type	async_endpoint_ptr_set_aepQueue_head.isra.168.part.169, @function
async_endpoint_ptr_set_aepQueue_head.isra.168.part.169:
.LFB806:
	.loc 27 194 0
	.cfi_startproc
.LVL1467:
	subl	$28, %esp
	.cfi_def_cfa_offset 32
	.loc 27 196 0
	movl	$__FUNCTION__.1182, 12(%esp)
	movl	$196, 8(%esp)
	movl	$.LC34, 4(%esp)
	movl	$.LC98, (%esp)
	call	_assert_fail
.LVL1468:
	.cfi_endproc
.LFE806:
	.size	async_endpoint_ptr_set_aepQueue_head.isra.168.part.169, .-async_endpoint_ptr_set_aepQueue_head.isra.168.part.169
	.type	async_endpoint_ptr_set_aepQueue_tail.isra.170.part.171, @function
async_endpoint_ptr_set_aepQueue_tail.isra.170.part.171:
.LFB808:
	.loc 27 207 0
	.cfi_startproc
.LVL1469:
	subl	$28, %esp
	.cfi_def_cfa_offset 32
	.loc 27 209 0
	movl	$__FUNCTION__.1190, 12(%esp)
	movl	$209, 8(%esp)
	movl	$.LC34, 4(%esp)
	movl	$.LC98, (%esp)
	call	_assert_fail
.LVL1470:
	.cfi_endproc
.LFE808:
	.size	async_endpoint_ptr_set_aepQueue_tail.isra.170.part.171, .-async_endpoint_ptr_set_aepQueue_tail.isra.170.part.171
	.section	.rodata.str1.1
.LC99:
	.string	"((~0x3 >> 0) & v) == 0"
	.section	.text.unlikely
	.type	async_endpoint_ptr_set_state.isra.172.part.173, @function
async_endpoint_ptr_set_state.isra.172.part.173:
.LFB810:
	.loc 27 220 0
	.cfi_startproc
.LVL1471:
	subl	$28, %esp
	.cfi_def_cfa_offset 32
	.loc 27 222 0
	movl	$__FUNCTION__.1198, 12(%esp)
	movl	$222, 8(%esp)
	movl	$.LC34, 4(%esp)
	movl	$.LC99, (%esp)
	call	_assert_fail
.LVL1472:
	.cfi_endproc
.LFE810:
	.size	async_endpoint_ptr_set_state.isra.172.part.173, .-async_endpoint_ptr_set_state.isra.172.part.173
	.type	thread_state_ptr_set_blockingIPCEndpoint.isra.174.part.175, @function
thread_state_ptr_set_blockingIPCEndpoint.isra.174.part.175:
.LFB812:
	.loc 27 605 0
	.cfi_startproc
.LVL1473:
	subl	$28, %esp
	.cfi_def_cfa_offset 32
	.loc 27 607 0
	movl	$__FUNCTION__.1381, 12(%esp)
	movl	$607, 8(%esp)
	movl	$.LC34, 4(%esp)
	movl	$.LC98, (%esp)
	call	_assert_fail
.LVL1474:
	.cfi_endproc
.LFE812:
	.size	thread_state_ptr_set_blockingIPCEndpoint.isra.174.part.175, .-thread_state_ptr_set_blockingIPCEndpoint.isra.174.part.175
	.type	cap_async_endpoint_cap_get_capAEPBadge.part.176, @function
cap_async_endpoint_cap_get_capAEPBadge.part.176:
.LFB813:
	.loc 27 1126 0
	.cfi_startproc
	subl	$28, %esp
	.cfi_def_cfa_offset 32
	.loc 27 1127 0
	movl	$__FUNCTION__.1624, 12(%esp)
	movl	$1128, 8(%esp)
	movl	$.LC34, 4(%esp)
	movl	$.LC37, (%esp)
	call	_assert_fail
.LVL1475:
	.cfi_endproc
.LFE813:
	.size	cap_async_endpoint_cap_get_capAEPBadge.part.176, .-cap_async_endpoint_cap_get_capAEPBadge.part.176
	.section	.rodata.str1.4
	.align 4
.LC100:
	.string	"((cap_ptr->words[0] >> 0) & 0xf) == cap_untyped_cap"
	.section	.text.unlikely
	.type	cap_untyped_cap_ptr_set_capFreeIndex.part.177, @function
cap_untyped_cap_ptr_set_capFreeIndex.part.177:
.LFB814:
	.loc 27 935 0
	.cfi_startproc
.LVL1476:
	subl	$28, %esp
	.cfi_def_cfa_offset 32
	.loc 27 937 0
	movl	$__FUNCTION__.1551, 12(%esp)
	movl	$938, 8(%esp)
	movl	$.LC34, 4(%esp)
	movl	$.LC100, (%esp)
	call	_assert_fail
.LVL1477:
	.cfi_endproc
.LFE814:
	.size	cap_untyped_cap_ptr_set_capFreeIndex.part.177, .-cap_untyped_cap_ptr_set_capFreeIndex.part.177
	.section	.rodata.str1.1
.LC101:
	.string	"((~0xfffffff8 << 0) & v) == 0"
	.section	.text.unlikely
	.type	mdb_node_ptr_set_mdbNext.isra.178.part.179, @function
mdb_node_ptr_set_mdbNext.isra.178.part.179:
.LFB816:
	.loc 27 771 0
	.cfi_startproc
.LVL1478:
	subl	$28, %esp
	.cfi_def_cfa_offset 32
	.loc 27 773 0
	movl	$__FUNCTION__.1462, 12(%esp)
	movl	$773, 8(%esp)
	movl	$.LC34, 4(%esp)
	movl	$.LC101, (%esp)
	call	_assert_fail
.LVL1479:
	.cfi_endproc
.LFE816:
	.size	mdb_node_ptr_set_mdbNext.isra.178.part.179, .-mdb_node_ptr_set_mdbNext.isra.178.part.179
	.type	mdb_node_ptr_set_mdbPrev.isra.180.part.181, @function
mdb_node_ptr_set_mdbPrev.isra.180.part.181:
.LFB818:
	.loc 27 837 0
	.cfi_startproc
.LVL1480:
	subl	$28, %esp
	.cfi_def_cfa_offset 32
	.loc 27 839 0
	movl	$__FUNCTION__.1501, 12(%esp)
	movl	$839, 8(%esp)
	movl	$.LC34, 4(%esp)
	movl	$.LC101, (%esp)
	call	_assert_fail
.LVL1481:
	.cfi_endproc
.LFE818:
	.size	mdb_node_ptr_set_mdbPrev.isra.180.part.181, .-mdb_node_ptr_set_mdbPrev.isra.180.part.181
	.section	.rodata.str1.1
.LC102:
	.string	"(mdbPrev & ~0xfffffff8) == 0"
	.text
	.p2align 4,,15
	.globl	insertNewCap
	.type	insertNewCap, @function
insertNewCap:
.LFB526:
	.loc 26 802 0
	.cfi_startproc
.LVL1482:
	pushl	%esi
	.cfi_def_cfa_offset 8
	.cfi_offset 6, -8
	pushl	%ebx
	.cfi_def_cfa_offset 12
	.cfi_offset 3, -12
	subl	$20, %esp
	.cfi_def_cfa_offset 32
	.loc 26 802 0
	movl	32(%esp), %ebx
	movl	36(%esp), %esi
	.loc 26 806 0
	movl	40(%esp), %eax
	movl	44(%esp), %edx
.LBB5106:
.LBB5107:
	.loc 27 767 0
	movl	12(%ebx), %ecx
.LBE5107:
.LBE5106:
	.loc 26 806 0
	movl	%eax, (%esi)
	movl	%edx, 4(%esi)
.LBB5109:
.LBB5108:
	.loc 27 767 0
	andl	$-8, %ecx
.LVL1483:
.LBE5108:
.LBE5109:
.LBB5110:
.LBB5111:
	.loc 27 756 0
	movl	%ecx, %eax
	orl	$3, %eax
.LVL1484:
	.loc 27 758 0
	testb	$7, %bl
	jne	.L1302
.LVL1485:
	.loc 27 760 0
	movl	%ebx, %edx
	andl	$-8, %edx
.LVL1486:
.LBE5111:
.LBE5110:
	.loc 26 808 0
	testl	%ecx, %ecx
.LBB5114:
.LBB5112:
	.loc 27 760 0
	movl	%edx, 8(%esi)
.LBE5112:
.LBE5114:
	.loc 26 807 0
	movl	%eax, 12(%esi)
	.loc 26 808 0
	je	.L1297
.LVL1487:
.LBB5115:
.LBB5116:
	.loc 27 839 0
	testl	$7, %esi
	jne	.L1303
	.loc 27 840 0
	movl	8(%ecx), %eax
.LVL1488:
	.loc 27 841 0
	andl	$-8, %esi
.LVL1489:
	.loc 27 840 0
	andl	$7, %eax
	.loc 27 841 0
	orl	%esi, %eax
	movl	%eax, 8(%ecx)
.LVL1490:
.L1299:
.LBE5116:
.LBE5115:
.LBB5118:
.LBB5119:
	.loc 27 774 0
	movl	12(%ebx), %eax
	andl	$7, %eax
	.loc 27 775 0
	orl	%esi, %eax
	movl	%eax, 12(%ebx)
.LBE5119:
.LBE5118:
	.loc 26 812 0
	addl	$20, %esp
	.cfi_remember_state
	.cfi_def_cfa_offset 12
	popl	%ebx
	.cfi_restore 3
	.cfi_def_cfa_offset 8
.LVL1491:
	popl	%esi
	.cfi_restore 6
	.cfi_def_cfa_offset 4
	ret
.LVL1492:
	.p2align 4,,7
	.p2align 3
.L1297:
	.cfi_restore_state
.LBB5121:
.LBB5120:
	.loc 27 773 0
	testl	$7, %esi
	jne	.L1304
	andl	$-8, %esi
.LVL1493:
	jmp	.L1299
.LVL1494:
.L1304:
	call	mdb_node_ptr_set_mdbNext.isra.178.part.179
.LVL1495:
.L1302:
.LBE5120:
.LBE5121:
.LBB5122:
.LBB5113:
	.loc 27 758 0
	movl	$__FUNCTION__.1454, 12(%esp)
	movl	$758, 8(%esp)
	movl	$.LC34, 4(%esp)
	movl	$.LC102, (%esp)
	call	_assert_fail
.LVL1496:
.L1303:
.LBE5113:
.LBE5122:
.LBB5123:
.LBB5117:
	call	mdb_node_ptr_set_mdbPrev.isra.180.part.181
.LVL1497:
.LBE5117:
.LBE5123:
	.cfi_endproc
.LFE526:
	.size	insertNewCap, .-insertNewCap
	.p2align 4,,15
	.globl	cteSwap
	.type	cteSwap, @function
cteSwap:
.LFB516:
	.loc 26 511 0
	.cfi_startproc
.LVL1498:
	pushl	%ebp
	.cfi_def_cfa_offset 8
	.cfi_offset 5, -8
	pushl	%edi
	.cfi_def_cfa_offset 12
	.cfi_offset 7, -12
	pushl	%esi
	.cfi_def_cfa_offset 16
	.cfi_offset 6, -16
	pushl	%ebx
	.cfi_def_cfa_offset 20
	.cfi_offset 3, -20
	subl	$12, %esp
	.cfi_def_cfa_offset 32
	.loc 26 511 0
	movl	40(%esp), %ecx
	.loc 26 515 0
	movl	44(%esp), %eax
	movl	48(%esp), %edx
	.loc 26 511 0
	movl	52(%esp), %ebx
	.loc 26 515 0
	movl	%eax, (%ecx)
	.loc 26 516 0
	movl	32(%esp), %eax
	.loc 26 515 0
	movl	%edx, 4(%ecx)
	.loc 26 516 0
	movl	36(%esp), %edx
	movl	%eax, (%ebx)
	movl	%edx, 4(%ebx)
	.loc 26 518 0
	movl	8(%ecx), %eax
.LVL1499:
	movl	12(%ecx), %edx
.LVL1500:
	.loc 26 521 0
	movl	%eax, %edi
	andl	$-8, %edi
	jne	.L1327
.L1306:
	.loc 26 527 0
	movl	%edx, %edi
	andl	$-8, %edi
	jne	.L1328
.L1308:
	.loc 26 532 0
	movl	8(%ebx), %edi
.LVL1501:
	movl	12(%ebx), %esi
.LVL1502:
	.loc 26 533 0
	movl	%edi, 8(%ecx)
	.loc 26 537 0
	andl	$-8, %edi
.LVL1503:
	.loc 26 533 0
	movl	%esi, 12(%ecx)
	.loc 26 534 0
	movl	%eax, 8(%ebx)
.LVL1504:
	movl	%edx, 12(%ebx)
	.loc 26 537 0
	jne	.L1329
.LVL1505:
.L1310:
	.loc 26 543 0
	andl	$-8, %esi
.LVL1506:
	jne	.L1330
	.loc 26 547 0
	addl	$12, %esp
	.cfi_remember_state
	.cfi_def_cfa_offset 20
	popl	%ebx
	.cfi_restore 3
	.cfi_def_cfa_offset 16
	popl	%esi
	.cfi_restore 6
	.cfi_def_cfa_offset 12
	popl	%edi
	.cfi_restore 7
	.cfi_def_cfa_offset 8
	popl	%ebp
	.cfi_restore 5
	.cfi_def_cfa_offset 4
	ret
	.p2align 4,,7
	.p2align 3
.L1330:
	.cfi_restore_state
.LVL1507:
.LBB5148:
.LBB5149:
	.loc 27 839 0
	testb	$7, %cl
	jne	.L1313
	.loc 27 840 0
	movl	8(%esi), %eax
	.loc 27 841 0
	andl	$-8, %ecx
.LVL1508:
	.loc 27 840 0
	andl	$7, %eax
	.loc 27 841 0
	orl	%ecx, %eax
	movl	%eax, 8(%esi)
.LBE5149:
.LBE5148:
	.loc 26 547 0
	addl	$12, %esp
	.cfi_remember_state
	.cfi_def_cfa_offset 20
	popl	%ebx
	.cfi_restore 3
	.cfi_def_cfa_offset 16
	popl	%esi
	.cfi_restore 6
	.cfi_def_cfa_offset 12
.LVL1509:
	popl	%edi
	.cfi_restore 7
	.cfi_def_cfa_offset 8
	popl	%ebp
	.cfi_restore 5
	.cfi_def_cfa_offset 4
	ret
.LVL1510:
	.p2align 4,,7
	.p2align 3
.L1328:
	.cfi_restore_state
.LBB5150:
.LBB5151:
	.loc 27 839 0
	testb	$7, %bl
	jne	.L1313
	.loc 27 840 0
	movl	8(%edi), %esi
	.loc 27 841 0
	movl	%ebx, %ebp
	andl	$-8, %ebp
	.loc 27 840 0
	andl	$7, %esi
	.loc 27 841 0
	orl	%ebp, %esi
	movl	%esi, 8(%edi)
	jmp	.L1308
.LVL1511:
	.p2align 4,,7
	.p2align 3
.L1327:
.LBE5151:
.LBE5150:
.LBB5153:
.LBB5154:
	.loc 27 773 0
	testb	$7, %bl
	jne	.L1311
	.loc 27 774 0
	movl	12(%edi), %esi
	.loc 27 775 0
	movl	%ebx, %ebp
	andl	$-8, %ebp
	.loc 27 774 0
	andl	$7, %esi
	.loc 27 775 0
	orl	%ebp, %esi
	movl	%esi, 12(%edi)
	jmp	.L1306
.LVL1512:
	.p2align 4,,7
	.p2align 3
.L1329:
.LBE5154:
.LBE5153:
.LBB5156:
.LBB5157:
	.loc 27 773 0
	testb	$7, %cl
	jne	.L1311
	.loc 27 774 0
	movl	12(%edi), %eax
.LVL1513:
	.loc 27 775 0
	movl	%ecx, %edx
.LVL1514:
	andl	$-8, %edx
	.loc 27 774 0
	andl	$7, %eax
	.loc 27 775 0
	orl	%edx, %eax
	movl	%eax, 12(%edi)
.LVL1515:
	jmp	.L1310
.LVL1516:
.L1313:
.LBE5157:
.LBE5156:
.LBB5158:
.LBB5152:
	call	mdb_node_ptr_set_mdbPrev.isra.180.part.181
.LVL1517:
.L1311:
.LBE5152:
.LBE5158:
.LBB5159:
.LBB5155:
	call	mdb_node_ptr_set_mdbNext.isra.178.part.179
.LVL1518:
.LBE5155:
.LBE5159:
	.cfi_endproc
.LFE516:
	.size	cteSwap, .-cteSwap
	.p2align 4,,15
	.globl	capSwapForDelete
	.type	capSwapForDelete, @function
capSwapForDelete:
.LFB515:
	.loc 26 496 0
	.cfi_startproc
.LVL1519:
	pushl	%ebp
	.cfi_def_cfa_offset 8
	.cfi_offset 5, -8
	pushl	%edi
	.cfi_def_cfa_offset 12
	.cfi_offset 7, -12
	pushl	%esi
	.cfi_def_cfa_offset 16
	.cfi_offset 6, -16
	pushl	%ebx
	.cfi_def_cfa_offset 20
	.cfi_offset 3, -20
	subl	$12, %esp
	.cfi_def_cfa_offset 32
	.loc 26 496 0
	movl	32(%esp), %esi
	movl	36(%esp), %edi
	.loc 26 499 0
	cmpl	%edi, %esi
	je	.L1331
	.loc 26 503 0
	movl	(%esi), %ecx
.LVL1520:
	movl	4(%esi), %ebx
	.loc 26 504 0
	movl	4(%edi), %edx
.LVL1521:
	movl	(%edi), %eax
.LBB5178:
.LBB5179:
	.loc 26 515 0
	movl	%edx, 4(%esi)
	movl	%eax, (%esi)
.LVL1522:
	.loc 26 516 0
	movl	%ecx, (%edi)
	movl	%ebx, 4(%edi)
.LVL1523:
	.loc 26 518 0
	movl	8(%esi), %ebx
.LVL1524:
	movl	12(%esi), %ecx
.LVL1525:
	.loc 26 521 0
	movl	%ebx, %edx
.LVL1526:
	andl	$-8, %edx
	jne	.L1355
	.loc 26 527 0
	movl	%ecx, %edx
	andl	$-8, %edx
	jne	.L1356
.L1335:
	.loc 26 532 0
	movl	8(%edi), %edx
.LVL1527:
	movl	12(%edi), %eax
.LVL1528:
	.loc 26 533 0
	movl	%edx, 8(%esi)
	.loc 26 537 0
	andl	$-8, %edx
.LVL1529:
	.loc 26 533 0
	movl	%eax, 12(%esi)
	.loc 26 534 0
	movl	%ebx, 8(%edi)
.LVL1530:
	movl	%ecx, 12(%edi)
	.loc 26 537 0
	jne	.L1357
	.loc 26 543 0
	andl	$-8, %eax
.LVL1531:
	jne	.L1358
.LVL1532:
.L1331:
.LBE5179:
.LBE5178:
	.loc 26 507 0
	addl	$12, %esp
	.cfi_remember_state
	.cfi_def_cfa_offset 20
	popl	%ebx
	.cfi_restore 3
	.cfi_def_cfa_offset 16
	popl	%esi
	.cfi_restore 6
	.cfi_def_cfa_offset 12
	popl	%edi
	.cfi_restore 7
	.cfi_def_cfa_offset 8
	popl	%ebp
	.cfi_restore 5
	.cfi_def_cfa_offset 4
	ret
.LVL1533:
	.p2align 4,,7
	.p2align 3
.L1358:
	.cfi_restore_state
.LBB5196:
.LBB5194:
.LBB5180:
.LBB5181:
	.loc 27 839 0
	testl	$7, %esi
	jne	.L1340
	.loc 27 840 0
	movl	8(%eax), %edx
	.loc 27 841 0
	andl	$-8, %esi
.LVL1534:
	.loc 27 840 0
	andl	$7, %edx
	.loc 27 841 0
	orl	%esi, %edx
	movl	%edx, 8(%eax)
.LBE5181:
.LBE5180:
.LBE5194:
.LBE5196:
	.loc 26 507 0
	addl	$12, %esp
	.cfi_remember_state
	.cfi_def_cfa_offset 20
	popl	%ebx
	.cfi_restore 3
	.cfi_def_cfa_offset 16
	popl	%esi
	.cfi_restore 6
	.cfi_def_cfa_offset 12
	popl	%edi
	.cfi_restore 7
	.cfi_def_cfa_offset 8
.LVL1535:
	popl	%ebp
	.cfi_restore 5
	.cfi_def_cfa_offset 4
	ret
.LVL1536:
	.p2align 4,,7
	.p2align 3
.L1355:
	.cfi_restore_state
.LBB5197:
.LBB5195:
.LBB5182:
.LBB5183:
	.loc 27 773 0
	testl	$7, %edi
	jne	.L1338
	.loc 27 774 0
	movl	12(%edx), %eax
	.loc 27 775 0
	movl	%edi, %ebp
	andl	$-8, %ebp
	.loc 27 774 0
	andl	$7, %eax
	.loc 27 775 0
	orl	%ebp, %eax
	movl	%eax, 12(%edx)
.LBE5183:
.LBE5182:
	.loc 26 527 0
	movl	%ecx, %edx
.LVL1537:
	andl	$-8, %edx
	je	.L1335
.LVL1538:
.L1356:
.LBB5185:
.LBB5186:
	.loc 27 839 0
	testl	$7, %edi
	jne	.L1340
	.loc 27 840 0
	movl	8(%edx), %eax
	.loc 27 841 0
	movl	%edi, %ebp
	andl	$-8, %ebp
	.loc 27 840 0
	andl	$7, %eax
	.loc 27 841 0
	orl	%ebp, %eax
	movl	%eax, 8(%edx)
	jmp	.L1335
.LVL1539:
	.p2align 4,,7
	.p2align 3
.L1357:
.LBE5186:
.LBE5185:
.LBB5188:
.LBB5189:
	.loc 27 773 0
	testl	$7, %esi
	jne	.L1338
	.loc 27 774 0
	movl	12(%edx), %ecx
.LVL1540:
	.loc 27 775 0
	movl	%esi, %ebx
.LVL1541:
	andl	$-8, %ebx
	.loc 27 774 0
	andl	$7, %ecx
	.loc 27 775 0
	orl	%ebx, %ecx
.LBE5189:
.LBE5188:
	.loc 26 543 0
	andl	$-8, %eax
.LVL1542:
.LBB5191:
.LBB5190:
	.loc 27 775 0
	movl	%ecx, 12(%edx)
.LVL1543:
.LBE5190:
.LBE5191:
	.loc 26 543 0
	je	.L1331
	jmp	.L1358
.LVL1544:
.L1338:
.LBB5192:
.LBB5184:
	call	mdb_node_ptr_set_mdbNext.isra.178.part.179
.LVL1545:
.L1340:
.LBE5184:
.LBE5192:
.LBB5193:
.LBB5187:
	.p2align 4,,8
	call	mdb_node_ptr_set_mdbPrev.isra.180.part.181
.LVL1546:
.LBE5187:
.LBE5193:
.LBE5195:
.LBE5197:
	.cfi_endproc
.LFE515:
	.size	capSwapForDelete, .-capSwapForDelete
	.section	.rodata.str1.4
	.align 4
.LC103:
	.string	"/home/mscapero/Desktop/sel4-benchmark/sel4test-manifest/kernel/src/object/cnode.c"
	.align 4
.LC104:
	.string	"cap_get_capType(destSlot->cap) == cap_null_cap"
	.align 4
.LC105:
	.string	"(cte_t*)mdb_node_get_mdbNext(destSlot->cteMDBNode) == NULL && (cte_t*)mdb_node_get_mdbPrev(destSlot->cteMDBNode) == NULL"
	.text
	.p2align 4,,15
	.globl	cteInsert
	.type	cteInsert, @function
cteInsert:
.LFB513:
	.loc 26 405 0
	.cfi_startproc
.LVL1547:
	pushl	%ebp
	.cfi_def_cfa_offset 8
	.cfi_offset 5, -8
	pushl	%edi
	.cfi_def_cfa_offset 12
	.cfi_offset 7, -12
	pushl	%esi
	.cfi_def_cfa_offset 16
	.cfi_offset 6, -16
	pushl	%ebx
	.cfi_def_cfa_offset 20
	.cfi_offset 3, -20
	subl	$60, %esp
	.cfi_def_cfa_offset 80
	.loc 26 405 0
	movl	88(%esp), %edx
	movl	80(%esp), %edi
	movl	84(%esp), %eax
	.loc 26 411 0
	movl	(%edx), %ebx
	.loc 26 410 0
	movl	12(%edx), %ecx
.LVL1548:
	.loc 26 411 0
	movl	4(%edx), %esi
	.loc 26 405 0
	movl	%eax, 32(%esp)
.LVL1549:
	.loc 26 410 0
	movl	8(%edx), %ebp
	.loc 26 411 0
	movl	%ebx, 28(%esp)
.LBB5246:
.LBB5247:
	.loc 27 872 0
	movl	%edi, %ebx
.LBE5247:
.LBE5246:
	.loc 26 405 0
	movl	92(%esp), %eax
.LVL1550:
.LBB5251:
.LBB5248:
	.loc 27 872 0
	andl	$14, %ebx
.LBE5248:
.LBE5251:
	.loc 26 410 0
	movl	%ecx, 36(%esp)
.LVL1551:
.LBB5252:
.LBB5249:
	.loc 27 873 0
	movl	%edi, %ecx
.LBE5249:
.LBE5252:
	.loc 26 411 0
	movl	%esi, 40(%esp)
.LVL1552:
.LBB5253:
.LBB5250:
	.loc 27 872 0
	movl	%ebx, %esi
.LVL1553:
	.loc 27 873 0
	andl	$15, %ecx
	.loc 27 872 0
	movl	%ebx, 44(%esp)
	.loc 27 873 0
	movl	%edi, %ebx
	cmpl	$14, %esi
	movzbl	%bl, %ebx
.LVL1554:
	cmovne	%ecx, %ebx
.LVL1555:
.LBE5250:
.LBE5253:
